libcvc3.so.5 libcvc3-5 #MINVER#
 Lisp_flex_debug@Base 2.4.1
 Lispchar@Base 2.4.1
 Lispdebug@Base 2.4.1
 Lispin@Base 2.4.1
 Lispleng@Base 2.4.1
 Lisplineno@Base 2.4.1
 Lisplval@Base 2.4.1
 Lispnerrs@Base 2.4.1
 Lispout@Base 2.4.1
 Lisptext@Base 2.4.1
 PL_flex_debug@Base 2.4.1
 PLchar@Base 2.4.1
 PLdebug@Base 2.4.1
 PLin@Base 2.4.1
 PLleng@Base 2.4.1
 PLlineno@Base 2.4.1
 PLlval@Base 2.4.1
 PLnerrs@Base 2.4.1
 PLout@Base 2.4.1
 PLtext@Base 2.4.1
 _Z10Lispget_inv@Base 2.4.1
 _Z10Lispset_inP8_IO_FILE@Base 2.4.1
 _Z10PL_bufSizev@Base 2.4.1
 _Z10PLget_lengv@Base 2.4.1
 _Z10PLget_textv@Base 2.4.1
 _Z10canGetHeadRKN4CVC34ExprE@Base 2.4.1
 _Z10getSubTrigRKN4CVC34ExprE@Base 2.4.1
 _Z10hasMoreBVsRKN4CVC34ExprE@Base 2.4.1
 _Z10is_eq_kindi@Base 2.4.1
 _Z10smtlib2lexv@Base 2.4.1
 _Z10smtlibfreePv@Base 2.4.1
 _Z11Lispget_outv@Base 2.4.1
 _Z11LispreallocPvm@Base 2.4.1
 _Z11LisprestartP8_IO_FILE@Base 2.4.1
 _Z11Lispset_outP8_IO_FILE@Base 2.4.1
 _Z11PL_bufStatev@Base 2.4.1
 _Z11PLget_debugv@Base 2.4.1
 _Z11PLset_debugi@Base 2.4.1
 _Z11is_oppositei@Base 2.4.1
 _Z11is_smt_kindi@Base 2.4.1
 _Z11kind_to_stri@Base 2.4.1
 _Z11smtlib2freePv@Base 2.4.1
 _Z11smtliballocm@Base 2.4.1
 _Z11smtliberrorPKc@Base 2.4.1
 _Z11smtlibparsev@Base 2.4.1
 _Z12Lisp_bufSizev@Base 2.4.1
 _Z12Lispget_lengv@Base 2.4.1
 _Z12Lispget_textv@Base 2.4.1
 _Z12PL_buf_statev@Base 2.4.1
 _Z12PLget_linenov@Base 2.4.1
 _Z12PLset_linenoi@Base 2.4.1
 _Z12findPolarityRKN4CVC34ExprERNS_7ExprMapINS_8PolarityEEES4_@Base 2.4.1
 _Z12getBoundVarsRKN4CVC34ExprE@Base 2.4.1
 _Z12isSimpleTrigRKN4CVC34ExprE@Base 2.4.1
 _Z12signal_errorPKciN4CVC39ExceptionE@Base 2.4.1
 _Z12smtlib2allocm@Base 2.4.1
 _Z12smtlib2errorPKc@Base 2.4.1
 _Z12smtlib2parsev@Base 2.4.1
 _Z12smtlibget_inv@Base 2.4.1
 _Z12smtlibset_inP8_IO_FILE@Base 2.4.1
 _Z13Lisp_bufStatev@Base 2.4.1
 _Z13Lispget_debugv@Base 2.4.1
 _Z13Lispset_debugi@Base 2.4.1
 _Z13PL_scan_bytesPKcm@Base 2.4.1
 _Z13PLlex_destroyv@Base 2.4.1
 _Z13get_knd_orderi@Base 2.4.1
 _Z13isUniterpFuncRKN4CVC34ExprE@Base 2.4.1
 _Z13is_comparisoni@Base 2.4.1
 _Z13printSatProofPN3SAT12SatProofNodeE@Base 2.4.1
 _Z13smtlib2get_inv@Base 2.4.1
 _Z13smtlib2set_inP8_IO_FILE@Base 2.4.1
 _Z13smtlibget_outv@Base 2.4.1
 _Z13smtlibreallocPvm@Base 2.4.1
 _Z13smtlibrestartP8_IO_FILE@Base 2.4.1
 _Z13smtlibset_outP8_IO_FILE@Base 2.4.1
 _Z13trigInitScoreRKN4CVC34ExprE@Base 2.4.1
 _Z13usefulInMatchRKN4CVC34ExprE@Base 2.4.1
 _Z14Lisp_buf_statev@Base 2.4.1
 _Z14Lispget_linenov@Base 2.4.1
 _Z14Lispset_linenoi@Base 2.4.1
 _Z14PL_scan_bufferPcm@Base 2.4.1
 _Z14PL_scan_stringPKc@Base 2.4.1
 _Z14get_knd_resultii@Base 2.4.1
 _Z14get_normalizedib@Base 2.4.1
 _Z14print_rationalRKN4CVC38RationalERSo@Base 2.4.1
 _Z14smtlib2get_outv@Base 2.4.1
 _Z14smtlib2reallocPvm@Base 2.4.1
 _Z14smtlib2restartP8_IO_FILE@Base 2.4.1
 _Z14smtlib2set_outP8_IO_FILE@Base 2.4.1
 _Z14smtlib_bufSizev@Base 2.4.1
 _Z14smtlibget_lengv@Base 2.4.1
 _Z14smtlibget_textv@Base 2.4.1
 _Z15Lisp_scan_bytesPKcm@Base 2.4.1
 _Z15Lisplex_destroyv@Base 2.4.1
 _Z15PL_createBufferi@Base 2.4.1
 _Z15PL_deleteBufferPv@Base 2.4.1
 _Z15PL_flush_bufferP15yy_buffer_state@Base 2.4.1
 _Z15ajr_debug_printRKN4CVC34ExprE@Base 2.4.1
 _Z15getPartTriggersRKN4CVC34ExprE@Base 2.4.1
 _Z15smtlib2_bufSizev@Base 2.4.1
 _Z15smtlib2get_lengv@Base 2.4.1
 _Z15smtlib2get_textv@Base 2.4.1
 _Z15smtlib_bufStatev@Base 2.4.1
 _Z15smtlibget_debugv@Base 2.4.1
 _Z15smtlibset_debugi@Base 2.4.1
 _Z16Lisp_scan_bufferPcm@Base 2.4.1
 _Z16Lisp_scan_stringPKc@Base 2.4.1
 _Z16PL_create_bufferP8_IO_FILEi@Base 2.4.1
 _Z16PL_delete_bufferP15yy_buffer_state@Base 2.4.1
 _Z16generateSatProofPN3SAT12SatProofNodeEPNS_11CNF_ManagerEPN4CVC315TheoremProducerE@Base 2.4.1
 _Z16smtlib2_bufStatev@Base 2.4.1
 _Z16smtlib2get_debugv@Base 2.4.1
 _Z16smtlib2set_debugi@Base 2.4.1
 _Z16smtlib_buf_statev@Base 2.4.1
 _Z16smtlibget_linenov@Base 2.4.1
 _Z16smtlibset_linenoi@Base 2.4.1
 _Z17Lisp_createBufferi@Base 2.4.1
 _Z17Lisp_deleteBufferPv@Base 2.4.1
 _Z17Lisp_flush_bufferP15yy_buffer_state@Base 2.4.1
 _Z17PL_setInteractiveb@Base 2.4.1
 _Z17PL_switchToBufferPv@Base 2.4.1
 _Z17goodMultiTriggersRKSt6vectorIN4CVC34ExprESaIS1_EES3_@Base 2.4.1
 _Z17isGoodFullTriggerRKN4CVC34ExprERKSt6vectorIS0_SaIS0_EE@Base 2.4.1
 _Z17isGoodPartTriggerRKN4CVC34ExprERKSt6vectorIS0_SaIS0_EE@Base 2.4.1
 _Z17isSuperSimpleTrigRKN4CVC34ExprE@Base 2.4.1
 _Z17make_flatten_exprRKN4CVC34ExprERS0_i@Base 2.4.1
 _Z17smtlib2_buf_statev@Base 2.4.1
 _Z17smtlib2get_linenov@Base 2.4.1
 _Z17smtlib2set_linenoi@Base 2.4.1
 _Z17smtlib_scan_bytesPKcm@Base 2.4.1
 _Z17smtliblex_destroyv@Base 2.4.1
 _Z17vectorExpr2stringRKSt6vectorIN4CVC34ExprESaIS1_EE@Base 2.4.1
 _Z18Lisp_create_bufferP8_IO_FILEi@Base 2.4.1
 _Z18Lisp_delete_bufferP15yy_buffer_state@Base 2.4.1
 _Z18PLpop_buffer_statev@Base 2.4.1
 _Z18findPolarityAtomicRKN4CVC34ExprERNS_7ExprMapINS_8PolarityEEES4_@Base 2.4.1
 _Z18isGoodMultiTriggerRKN4CVC34ExprERKSt6vectorIS0_SaIS0_EEi@Base 2.4.1
 _Z18recursiveExprScoreRKN4CVC34ExprE@Base 2.4.1
 _Z18smtlib2_scan_bytesPKcm@Base 2.4.1
 _Z18smtlib2lex_destroyv@Base 2.4.1
 _Z18smtlib_scan_bufferPcm@Base 2.4.1
 _Z18smtlib_scan_stringPKc@Base 2.4.1
 _Z19Lisp_setInteractiveb@Base 2.4.1
 _Z19Lisp_switchToBufferPv@Base 2.4.1
 _Z19PL_switch_to_bufferP15yy_buffer_state@Base 2.4.1
 _Z19PLpush_buffer_stateP15yy_buffer_state@Base 2.4.1
 _Z19make_flatten_expr_hRKN4CVC34ExprERS0_S2_bi@Base 2.4.1
 _Z19smtlib2_scan_bufferPcm@Base 2.4.1
 _Z19smtlib2_scan_stringPKc@Base 2.4.1
 _Z19smtlib_createBufferi@Base 2.4.1
 _Z19smtlib_deleteBufferPv@Base 2.4.1
 _Z19smtlib_flush_bufferP15yy_buffer_state@Base 2.4.1
 _Z20Lisppop_buffer_statev@Base 2.4.1
 _Z20isGoodSysPredTriggerRKN4CVC34ExprE@Base 2.4.1
 _Z20smtlib2_createBufferi@Base 2.4.1
 _Z20smtlib2_deleteBufferPv@Base 2.4.1
 _Z20smtlib2_flush_bufferP15yy_buffer_state@Base 2.4.1
 _Z20smtlib_create_bufferP8_IO_FILEi@Base 2.4.1
 _Z20smtlib_delete_bufferP15yy_buffer_state@Base 2.4.1
 _Z21Lisp_switch_to_bufferP15yy_buffer_state@Base 2.4.1
 _Z21Lisppush_buffer_stateP15yy_buffer_state@Base 2.4.1
 _Z21print_rational_divideRKN4CVC38RationalES2_RSo@Base 2.4.1
 _Z21smtlib2_create_bufferP8_IO_FILEi@Base 2.4.1
 _Z21smtlib2_delete_bufferP15yy_buffer_state@Base 2.4.1
 _Z21smtlib_setInteractiveb@Base 2.4.1
 _Z21smtlib_switchToBufferPv@Base 2.4.1
 _Z22smtlib2_setInteractiveb@Base 2.4.1
 _Z22smtlib2_switchToBufferPv@Base 2.4.1
 _Z22smtlibpop_buffer_statev@Base 2.4.1
 _Z23smtlib2pop_buffer_statev@Base 2.4.1
 _Z23smtlib_switch_to_bufferP15yy_buffer_state@Base 2.4.1
 _Z23smtlibpush_buffer_stateP15yy_buffer_state@Base 2.4.1
 _Z24smtlib2_switch_to_bufferP15yy_buffer_state@Base 2.4.1
 _Z24smtlib2push_buffer_stateP15yy_buffer_state@Base 2.4.1
 _Z5PLlexv@Base 2.4.1
 _Z6PLfreePv@Base 2.4.1
 _Z6getRatRKN4CVC34ExprERNS_8RationalE@Base 2.4.1
 _Z6isFlatRKN4CVC34ExprE@Base 2.4.1
 _Z6isIntxRKN4CVC34ExprERKNS_8RationalE@Base 2.4.1
 _Z7Lisplexv@Base 2.4.1
 _Z7PLallocm@Base 2.4.1
 _Z7PLerrorPKc@Base 2.4.1
 _Z7PLparsev@Base 2.4.1
 _Z7cmpExprN4CVC34ExprES0_@Base 2.4.1
 _Z7getLeftRKN4CVC34ExprE@Base 2.4.1
 _Z7get_noti@Base 2.4.1
 _Z8LispfreePv@Base 2.4.1
 _Z8PLget_inv@Base 2.4.1
 _Z8PLset_inP8_IO_FILE@Base 2.4.1
 _Z8findAtomN4CVC34ExprE@Base 2.4.1
 _Z8flatAndsRKN4CVC34ExprERSt6vectorIS0_SaIS0_EE@Base 2.4.1
 _Z8getRightRKN4CVC34ExprE@Base 2.4.1
 _Z8isGroundRKN4CVC34ExprE@Base 2.4.1
 _Z9Lispallocm@Base 2.4.1
 _Z9LisperrorPKc@Base 2.4.1
 _Z9Lispparsev@Base 2.4.1
 _Z9PLget_outv@Base 2.4.1
 _Z9PLreallocPvm@Base 2.4.1
 _Z9PLrestartP8_IO_FILE@Base 2.4.1
 _Z9PLset_outP8_IO_FILE@Base 2.4.1
 _Z9exprScoreRKN4CVC34ExprE@Base 2.4.1
 _Z9isSysPredRKN4CVC34ExprE@Base 2.4.1
 _Z9print_mpqiiRSo@Base 2.4.1
 _Z9smtliblexv@Base 2.4.1
 _ZGVZNK4CVC313VariableValue10getTheoremEvE4null@Base 2.4.1
 _ZGVZNK4CVC313VariableValue12getAssumpThmEvE4null@Base 2.4.1
 _ZGVZNK4CVC313VariableValue13getAntecedentEvE4null@Base 2.4.1
 _ZGVZNK4CVC34Expr6getRepEvE7nullThm@Base 2.4.1
 _ZGVZNK4CVC34Expr6getSigEvE7nullThm@Base 2.4.1
 _ZGVZNK4CVC38Rational4Impl11getUnsignedEvE3max@Base 2.4.1
 _ZGVZNK4CVC38Rational4Impl11getUnsignedEvE3min@Base 2.4.1
 _ZGVZNK4CVC38Rational4Impl6getIntEvE3max@Base 2.4.1
 _ZGVZNK4CVC38Rational4Impl6getIntEvE3min@Base 2.4.1
 _ZGVZNK4CVC38Unsigned4Impl11getUnsignedEvE3max@Base 2.4.1
 _ZGVZNK4CVC39ExprValue10getTheoremEvE4null@Base 2.4.1
 _ZGVZNK4CVC39ExprValue11getRationalEvE1r@Base 2.4.1
 _ZGVZNK4CVC39ExprValue11getTriggersEvE4null@Base 2.4.1
 _ZGVZNK4CVC39ExprValue14getExistentialEvE4null@Base 2.4.1
 _ZGVZNK4CVC39ExprValue6getUidEvE4null@Base 2.4.1
 _ZGVZNK4CVC39ExprValue6getVarEvE4null@Base 2.4.1
 _ZGVZNK4CVC39ExprValue7getBodyEvE4null@Base 2.4.1
 _ZGVZNK4CVC39ExprValue7getNameEvE3ret@Base 2.4.1
 _ZGVZNK4CVC39ExprValue7getVarsEvE4null@Base 2.4.1
 _ZGVZNK4CVC39ExprValue8getFieldEvE4null@Base 2.4.1
 _ZGVZNK4CVC39ExprValue9getFieldsEvE4null@Base 2.4.1
 _ZGVZNK4CVC39ExprValue9getStringEvE1s@Base 2.4.1
 _ZN10CInterface10deleteExprEPv@Base 2.4.1
 _ZN10CInterface12deleteVectorEPPv@Base 2.4.1
 _ZN10CInterface4toOpEPvRKN4CVC32OpE@Base 2.4.1
 _ZN10CInterface6fromOpEPv@Base 2.4.1
 _ZN10CInterface6toExprERKN4CVC34ExprE@Base 2.4.1
 _ZN10CInterface6toTypeERKN4CVC34TypeE@Base 2.4.1
 _ZN10CInterface8fromExprEPv@Base 2.4.1
 _ZN10CInterface8fromTypeEPv@Base 2.4.1
 _ZN10LFSCAssume10get_lengthEv@Base 2.4.1
 _ZN10LFSCAssume12AsLFSCAssumeEv@Base 2.4.1
 _ZN10LFSCAssume12checkBoolResERSt6vectorIiSaIiEE@Base 2.4.1
 _ZN10LFSCAssume12print_structERSoi@Base 2.4.1
 _ZN10LFSCAssume14getNumChildrenEv@Base 2.4.1
 _ZN10LFSCAssume4MakeEiP9LFSCProofbi@Base 2.4.1
 _ZN10LFSCAssume5cloneEv@Base 2.4.1
 _ZN10LFSCAssume8getChildEi@Base 2.4.1
 _ZN10LFSCAssume8print_pfERSoi@Base 2.4.1
 _ZN10LFSCAssumeD0Ev@Base 2.4.1
 _ZN10LFSCAssumeD1Ev@Base 2.4.1
 _ZN10LFSCAssumeD2Ev@Base 2.4.1
 _ZN10LFSCLraAdd10get_lengthEv@Base 2.4.1
 _ZN10LFSCLraAdd12AsLFSCLraAddEv@Base 2.4.1
 _ZN10LFSCLraAdd14getNumChildrenEv@Base 2.4.1
 _ZN10LFSCLraAdd4MakeEP9LFSCProofS1_ii@Base 2.4.1
 _ZN10LFSCLraAdd5cloneEv@Base 2.4.1
 _ZN10LFSCLraAdd7checkOpEv@Base 2.4.1
 _ZN10LFSCLraAdd8getChildEi@Base 2.4.1
 _ZN10LFSCLraAdd8print_pfERSoi@Base 2.4.1
 _ZN10LFSCLraAddD0Ev@Base 2.4.1
 _ZN10LFSCLraAddD1Ev@Base 2.4.1
 _ZN10LFSCLraAddD2Ev@Base 2.4.1
 _ZN10LFSCLraSub10get_lengthEv@Base 2.4.1
 _ZN10LFSCLraSub12AsLFSCLraSubEv@Base 2.4.1
 _ZN10LFSCLraSub14getNumChildrenEv@Base 2.4.1
 _ZN10LFSCLraSub4MakeEP9LFSCProofS1_ii@Base 2.4.1
 _ZN10LFSCLraSub5cloneEv@Base 2.4.1
 _ZN10LFSCLraSub7checkOpEv@Base 2.4.1
 _ZN10LFSCLraSub8getChildEi@Base 2.4.1
 _ZN10LFSCLraSub8print_pfERSoi@Base 2.4.1
 _ZN10LFSCLraSubD0Ev@Base 2.4.1
 _ZN10LFSCLraSubD1Ev@Base 2.4.1
 _ZN10LFSCLraSubD2Ev@Base 2.4.1
 _ZN11LFSCBoolRes10get_lengthEv@Base 2.4.1
 _ZN11LFSCBoolRes12checkBoolResERSt6vectorIiSaIiEE@Base 2.4.1
 _ZN11LFSCBoolRes12print_structERSoi@Base 2.4.1
 _ZN11LFSCBoolRes13AsLFSCBoolResEv@Base 2.4.1
 _ZN11LFSCBoolRes14getNumChildrenEv@Base 2.4.1
 _ZN11LFSCBoolRes4MakeEP9LFSCProofS1_RKN4CVC34ExprES5_b@Base 2.4.1
 _ZN11LFSCBoolRes4MakeEP9LFSCProofS1_ib@Base 2.4.1
 _ZN11LFSCBoolRes5MakeCEP9LFSCProofRKN4CVC34ExprE@Base 2.4.1
 _ZN11LFSCBoolRes5cloneEv@Base 2.4.1
 _ZN11LFSCBoolRes8getChildEi@Base 2.4.1
 _ZN11LFSCBoolRes8print_pfERSoi@Base 2.4.1
 _ZN11LFSCBoolResD0Ev@Base 2.4.1
 _ZN11LFSCBoolResD1Ev@Base 2.4.1
 _ZN11LFSCBoolResD2Ev@Base 2.4.1
 _ZN11LFSCConvert12cvc3_to_lfscERKN4CVC34ExprEbb@Base 2.4.1
 _ZN11LFSCConvert12make_trustedERKN4CVC34ExprE@Base 2.4.1
 _ZN11LFSCConvert13isIgnoredRuleERKN4CVC34ExprE@Base 2.4.1
 _ZN11LFSCConvert14make_let_proofEP9LFSCProof@Base 2.4.1
 _ZN11LFSCConvert17get_proof_patternERKN4CVC34ExprERS1_@Base 2.4.1
 _ZN11LFSCConvert20isTrivialTheoryAxiomERKN4CVC34ExprEb@Base 2.4.1
 _ZN11LFSCConvert21isTrivialBooleanAxiomERKN4CVC34ExprE@Base 2.4.1
 _ZN11LFSCConvert6do_bsoERKN4CVC34ExprEbbP7TReturnS5_RSt19basic_ostringstreamIcSt11char_traitsIcESaIcEE@Base 2.4.1
 _ZN11LFSCConvert7convertERKN4CVC34ExprE@Base 2.4.1
 _ZN11LFSCConvertC1Ei@Base 2.4.1
 _ZN11LFSCConvertC2Ei@Base 2.4.1
 _ZN11LFSCConvertD0Ev@Base 2.4.1
 _ZN11LFSCConvertD1Ev@Base 2.4.1
 _ZN11LFSCConvertD2Ev@Base 2.4.1
 _ZN11LFSCLraMulC10get_lengthEv@Base 2.4.1
 _ZN11LFSCLraMulC13AsLFSCLraMulCEv@Base 2.4.1
 _ZN11LFSCLraMulC14getNumChildrenEv@Base 2.4.1
 _ZN11LFSCLraMulC4MakeEP9LFSCProofN4CVC38RationalEi@Base 2.4.1
 _ZN11LFSCLraMulC5cloneEv@Base 2.4.1
 _ZN11LFSCLraMulC7checkOpEv@Base 2.4.1
 _ZN11LFSCLraMulC8getChildEi@Base 2.4.1
 _ZN11LFSCLraMulC8print_pfERSoi@Base 2.4.1
 _ZN11LFSCLraMulC9isLraMulCEv@Base 2.4.1
 _ZN11LFSCLraMulCD0Ev@Base 2.4.1
 _ZN11LFSCLraMulCD1Ev@Base 2.4.1
 _ZN11LFSCLraMulCD2Ev@Base 2.4.1
 _ZN11LFSCLraPoly10get_lengthEv@Base 2.4.1
 _ZN11LFSCLraPoly13AsLFSCLraPolyEv@Base 2.4.1
 _ZN11LFSCLraPoly14getNumChildrenEv@Base 2.4.1
 _ZN11LFSCLraPoly4MakeERKN4CVC34ExprEP9LFSCProof@Base 2.4.1
 _ZN11LFSCLraPoly5cloneEv@Base 2.4.1
 _ZN11LFSCLraPoly7checkOpEv@Base 2.4.1
 _ZN11LFSCLraPoly8getChildEi@Base 2.4.1
 _ZN11LFSCLraPoly8print_pfERSoi@Base 2.4.1
 _ZN11LFSCLraPolyD0Ev@Base 2.4.1
 _ZN11LFSCLraPolyD1Ev@Base 2.4.1
 _ZN11LFSCLraPolyD2Ev@Base 2.4.1
 _ZN11LFSCPrinter10print_LFSCERKN4CVC34ExprE@Base 2.4.1
 _ZN11LFSCPrinter12make_let_mapERKN4CVC34ExprE@Base 2.4.1
 _ZN11LFSCPrinter13print_terms_hERKN4CVC34ExprERSo@Base 2.4.1
 _ZN11LFSCPrinter15print_formula_hERKN4CVC34ExprERSo@Base 2.4.1
 _ZN11LFSCPrinter15print_poly_normERKN4CVC34ExprERSobb@Base 2.4.1
 _ZN11LFSCPrinterC1EN4CVC34ExprES1_St6vectorIS1_SaIS1_EEiPNS0_16CommonProofRulesE@Base 2.4.1
 _ZN11LFSCPrinterC2EN4CVC34ExprES1_St6vectorIS1_SaIS1_EEiPNS0_16CommonProofRulesE@Base 2.4.1
 _ZN11LFSCPrinterD0Ev@Base 2.4.1
 _ZN11LFSCPrinterD1Ev@Base 2.4.1
 _ZN11LFSCPrinterD2Ev@Base 2.4.1
 _ZN12LFSCClausify10get_lengthEv@Base 2.4.1
 _ZN12LFSCClausify12checkBoolResERSt6vectorIiSaIiEE@Base 2.4.1
 _ZN12LFSCClausify12print_structERSoi@Base 2.4.1
 _ZN12LFSCClausify14AsLFSCClausifyEv@Base 2.4.1
 _ZN12LFSCClausify14getNumChildrenEv@Base 2.4.1
 _ZN12LFSCClausify4MakeERKN4CVC34ExprEP9LFSCProofb@Base 2.4.1
 _ZN12LFSCClausify5cloneEv@Base 2.4.1
 _ZN12LFSCClausify6Make_iERKN4CVC34ExprEP9LFSCProofRSt6vectorIS1_SaIS1_EES3_@Base 2.4.1
 _ZN12LFSCClausify8getChildEi@Base 2.4.1
 _ZN12LFSCClausify8print_pfERSoi@Base 2.4.1
 _ZN12LFSCClausifyD0Ev@Base 2.4.1
 _ZN12LFSCClausifyD1Ev@Base 2.4.1
 _ZN12LFSCClausifyD2Ev@Base 2.4.1
 _ZN12LFSCLraAxiom10get_lengthEv@Base 2.4.1
 _ZN12LFSCLraAxiom14AsLFSCLraAxiomEv@Base 2.4.1
 _ZN12LFSCLraAxiom2eqE@Base 2.4.1
 _ZN12LFSCLraAxiom5cloneEv@Base 2.4.1
 _ZN12LFSCLraAxiom6MakeEqEv@Base 2.4.1
 _ZN12LFSCLraAxiom7checkOpEv@Base 2.4.1
 _ZN12LFSCLraAxiom8print_pfERSoi@Base 2.4.1
 _ZN12LFSCLraAxiom9isTrivialEv@Base 2.4.1
 _ZN12LFSCLraAxiomD0Ev@Base 2.4.1
 _ZN12LFSCLraAxiomD1Ev@Base 2.4.1
 _ZN12LFSCLraAxiomD2Ev@Base 2.4.1
 _ZN12LFSCPfLambda10get_lengthEv@Base 2.4.1
 _ZN12LFSCPfLambda14AsLFSCPfLambdaEv@Base 2.4.1
 _ZN12LFSCPfLambda14getNumChildrenEv@Base 2.4.1
 _ZN12LFSCPfLambda5cloneEv@Base 2.4.1
 _ZN12LFSCPfLambda8getChildEi@Base 2.4.1
 _ZN12LFSCPfLambda8print_pfERSoi@Base 2.4.1
 _ZN12LFSCPfLambdaD0Ev@Base 2.4.1
 _ZN12LFSCPfLambdaD1Ev@Base 2.4.1
 _ZN12LFSCPfLambdaD2Ev@Base 2.4.1
 _ZN13LFSCLraContra10get_lengthEv@Base 2.4.1
 _ZN13LFSCLraContra14getNumChildrenEv@Base 2.4.1
 _ZN13LFSCLraContra15AsLFSCLraContraEv@Base 2.4.1
 _ZN13LFSCLraContra4MakeEP9LFSCProofi@Base 2.4.1
 _ZN13LFSCLraContra5cloneEv@Base 2.4.1
 _ZN13LFSCLraContra7checkOpEv@Base 2.4.1
 _ZN13LFSCLraContra8getChildEi@Base 2.4.1
 _ZN13LFSCLraContra8print_pfERSoi@Base 2.4.1
 _ZN13LFSCLraContraD0Ev@Base 2.4.1
 _ZN13LFSCLraContraD1Ev@Base 2.4.1
 _ZN13LFSCLraContraD2Ev@Base 2.4.1
 _ZN13LFSCProofExpr10get_lengthEv@Base 2.4.1
 _ZN13LFSCProofExpr10initializeEv@Base 2.4.1
 _ZN13LFSCProofExpr15AsLFSCProofExprEv@Base 2.4.1
 _ZN13LFSCProofExpr4MakeERKN4CVC34ExprEb@Base 2.4.1
 _ZN13LFSCProofExpr5cloneEv@Base 2.4.1
 _ZN13LFSCProofExpr8print_pfERSoi@Base 2.4.1
 _ZN13LFSCProofExpr9fillHolesEv@Base 2.4.1
 _ZN13LFSCProofExprC1ERKN4CVC34ExprEb@Base 2.4.1
 _ZN13LFSCProofExprC2ERKN4CVC34ExprEb@Base 2.4.1
 _ZN13LFSCProofExprD0Ev@Base 2.4.1
 _ZN13LFSCProofExprD1Ev@Base 2.4.1
 _ZN13LFSCProofExprD2Ev@Base 2.4.1
 _ZN16LFSCProofGeneric10get_lengthEv@Base 2.4.1
 _ZN16LFSCProofGeneric14getNumChildrenEv@Base 2.4.1
 _ZN16LFSCProofGeneric18AsLFSCProofGenericEv@Base 2.4.1
 _ZN16LFSCProofGeneric4MakeERSt6vectorI6RefPtrI9LFSCProofESaIS3_EERS0_ISsSaISsEEb@Base 2.4.1
 _ZN16LFSCProofGeneric4MakeESsP9LFSCProofS1_Ssb@Base 2.4.1
 _ZN16LFSCProofGeneric4MakeESsP9LFSCProofSsb@Base 2.4.1
 _ZN16LFSCProofGeneric5cloneEv@Base 2.4.1
 _ZN16LFSCProofGeneric7MakeStrEPKcb@Base 2.4.1
 _ZN16LFSCProofGeneric8getChildEi@Base 2.4.1
 _ZN16LFSCProofGeneric8print_pfERSoi@Base 2.4.1
 _ZN16LFSCProofGenericD0Ev@Base 2.4.1
 _ZN16LFSCProofGenericD1Ev@Base 2.4.1
 _ZN16LFSCProofGenericD2Ev@Base 2.4.1
 _ZN17recCompleteInster10build_treeEv@Base 2.4.1
 _ZN17recCompleteInster11inst_helperEi@Base 2.4.1
 _ZN17recCompleteInster4instEv@Base 2.4.1
 _ZN17recCompleteInsterC1ERKN4CVC34ExprERKSt6vectorIS1_SaIS1_EERSt3setIS1_St4lessIS1_ES5_ES1_@Base 2.4.1
 _ZN17recCompleteInsterC2ERKN4CVC34ExprERKSt6vectorIS1_SaIS1_EERSt3setIS1_St4lessIS1_ES5_ES1_@Base 2.4.1
 _ZN17recCompleteInsterD1Ev@Base 2.4.1
 _ZN17recCompleteInsterD2Ev@Base 2.4.1
 _ZN3Obj10indentFlagE@Base 2.4.1
 _ZN3Obj11print_errorEPKcRSo@Base 2.4.1
 _ZN3Obj4errsE@Base 2.4.1
 _ZN3Obj5UnrefEv@Base 2.4.1
 _ZN3Obj8errsInitE@Base 2.4.1
 _ZN3ObjD0Ev@Base 2.4.1
 _ZN3ObjD1Ev@Base 2.4.1
 _ZN3ObjD2Ev@Base 2.4.1
 _ZN3SAT10DPLLTBasic11getSatProofEPNS_11CNF_ManagerEPN4CVC310TheoryCoreE@Base 2.4.1
 _ZN3SAT10DPLLTBasic12addAssertionERKNS_11CNF_FormulaE@Base 2.4.1
 _ZN3SAT10DPLLTBasic12addNewClauseERKNS_6ClauseE@Base 2.4.1
 _ZN3SAT10DPLLTBasic12generate_CDBERNS_16CNF_Formula_ImplE@Base 2.4.1
 _ZN3SAT10DPLLTBasic13addNewClausesERNS_16CNF_Formula_ImplE@Base 2.4.1
 _ZN3SAT10DPLLTBasic13continueCheckERKNS_11CNF_FormulaE@Base 2.4.1
 _ZN3SAT10DPLLTBasic13createManagerEv@Base 2.4.1
 _ZN3SAT10DPLLTBasic13getCurClausesEv@Base 2.4.1
 _ZN3SAT10DPLLTBasic13handle_resultEN9SatSolver9SATStatusE@Base 2.4.1
 _ZN3SAT10DPLLTBasic15verify_solutionEv@Base 2.4.1
 _ZN3SAT10DPLLTBasic17getCurAssignmentsEv@Base 2.4.1
 _ZN3SAT10DPLLTBasic3popEv@Base 2.4.1
 _ZN3SAT10DPLLTBasic4pushEv@Base 2.4.1
 _ZN3SAT10DPLLTBasic8checkSatERKNS_11CNF_FormulaE@Base 2.4.1
 _ZN3SAT10DPLLTBasic8getValueENS_3VarE@Base 2.4.1
 _ZN3SAT10DPLLTBasicC1EPNS_5DPLLT9TheoryAPIEPNS1_7DeciderEPN4CVC314ContextManagerEb@Base 2.4.1
 _ZN3SAT10DPLLTBasicC2EPNS_5DPLLT9TheoryAPIEPNS1_7DeciderEPN4CVC314ContextManagerEb@Base 2.4.1
 _ZN3SAT10DPLLTBasicD0Ev@Base 2.4.1
 _ZN3SAT10DPLLTBasicD1Ev@Base 2.4.1
 _ZN3SAT10DPLLTBasicD2Ev@Base 2.4.1
 _ZN3SAT11CNF_Formula10addLiteralENS_3LitEb@Base 2.4.1
 _ZN3SAT11CNF_Formula4copyERKS0_@Base 2.4.1
 _ZN3SAT11CNF_FormulapLERKNS_6ClauseE@Base 2.4.1
 _ZN3SAT11CNF_FormulapLERKS0_@Base 2.4.1
 _ZN3SAT11CNF_Manager11concreteLitENS_3LitEb@Base 2.4.1
 _ZN3SAT11CNF_Manager11concreteThmERKN4CVC34ExprE@Base 2.4.1
 _ZN3SAT11CNF_Manager11concreteVarENS_3VarE@Base 2.4.1
 _ZN3SAT11CNF_Manager12concreteExprERKN4CVC34ExprERKNS_3LitE@Base 2.4.1
 _ZN3SAT11CNF_Manager12convertLemmaERKN4CVC37TheoremERNS_11CNF_FormulaE@Base 2.4.1
 _ZN3SAT11CNF_Manager12registerAtomERKN4CVC34ExprERKNS1_7TheoremE@Base 2.4.1
 _ZN3SAT11CNF_Manager13addAssumptionERKN4CVC37TheoremERNS_11CNF_FormulaE@Base 2.4.1
 _ZN3SAT11CNF_Manager13replaceITErecERKN4CVC34ExprENS_3VarEb@Base 2.4.1
 _ZN3SAT11CNF_Manager13translateExprERKN4CVC37TheoremERNS_11CNF_FormulaE@Base 2.4.1
 _ZN3SAT11CNF_Manager16createProofRulesEPN4CVC314TheoremManagerERKNS1_7CLFlagsE@Base 2.4.1
 _ZN3SAT11CNF_Manager16translateExprRecERKN4CVC34ExprERNS_11CNF_FormulaERKNS1_7TheoremE@Base 2.4.1
 _ZN3SAT11CNF_Manager4consEjjRKN4CVC34ExprERSt6vectorIjSaIjEE@Base 2.4.1
 _ZN3SAT11CNF_Manager7VarinfoC1ERKS1_@Base 2.4.1
 _ZN3SAT11CNF_Manager7VarinfoC2ERKS1_@Base 2.4.1
 _ZN3SAT11CNF_Manager7VarinfoD1Ev@Base 2.4.1
 _ZN3SAT11CNF_Manager7VarinfoD2Ev@Base 2.4.1
 _ZN3SAT11CNF_Manager8addLemmaEN4CVC37TheoremERNS_11CNF_FormulaE@Base 2.4.1
 _ZN3SAT11CNF_Manager9getCNFLitERKN4CVC34ExprE@Base 2.4.1
 _ZN3SAT11CNF_ManagerC1EPN4CVC314TheoremManagerERNS1_10StatisticsERKNS1_7CLFlagsE@Base 2.4.1
 _ZN3SAT11CNF_ManagerC2EPN4CVC314TheoremManagerERNS1_10StatisticsERKNS1_7CLFlagsE@Base 2.4.1
 _ZN3SAT11CNF_ManagerD1Ev@Base 2.4.1
 _ZN3SAT11CNF_ManagerD2Ev@Base 2.4.1
 _ZN3SAT12DPLLTMiniSat10pushSolverEv@Base 2.4.1
 _ZN3SAT12DPLLTMiniSat11getSatProofEPNS_11CNF_ManagerEPN4CVC310TheoryCoreE@Base 2.4.1
 _ZN3SAT12DPLLTMiniSat12addAssertionERKNS_11CNF_FormulaE@Base 2.4.1
 _ZN3SAT12DPLLTMiniSat13continueCheckERKNS_11CNF_FormulaE@Base 2.4.1
 _ZN3SAT12DPLLTMiniSat13getCurClausesEv@Base 2.4.1
 _ZN3SAT12DPLLTMiniSat15getActiveSolverEv@Base 2.4.1
 _ZN3SAT12DPLLTMiniSat17getCurAssignmentsEv@Base 2.4.1
 _ZN3SAT12DPLLTMiniSat3popEv@Base 2.4.1
 _ZN3SAT12DPLLTMiniSat4pushEv@Base 2.4.1
 _ZN3SAT12DPLLTMiniSat6searchEv@Base 2.4.1
 _ZN3SAT12DPLLTMiniSat8checkSatERKNS_11CNF_FormulaE@Base 2.4.1
 _ZN3SAT12DPLLTMiniSat8getValueENS_3VarE@Base 2.4.1
 _ZN3SAT12DPLLTMiniSatC1EPNS_5DPLLT9TheoryAPIEPNS1_7DeciderEbb@Base 2.4.1
 _ZN3SAT12DPLLTMiniSatC2EPNS_5DPLLT9TheoryAPIEPNS1_7DeciderEbb@Base 2.4.1
 _ZN3SAT12DPLLTMiniSatD0Ev@Base 2.4.1
 _ZN3SAT12DPLLTMiniSatD1Ev@Base 2.4.1
 _ZN3SAT12DPLLTMiniSatD2Ev@Base 2.4.1
 _ZN3SAT14CD_CNF_Formula10setNumVarsEj@Base 2.4.1
 _ZN3SAT14CD_CNF_Formula12registerUnitEv@Base 2.4.1
 _ZN3SAT14CD_CNF_Formula9newClauseEv@Base 2.4.1
 _ZN3SAT14CD_CNF_FormulaD0Ev@Base 2.4.1
 _ZN3SAT14CD_CNF_FormulaD1Ev@Base 2.4.1
 _ZN3SAT14CD_CNF_FormulaD2Ev@Base 2.4.1
 _ZN3SAT16CNF_Formula_Impl10setNumVarsEj@Base 2.4.1
 _ZN3SAT16CNF_Formula_Impl12registerUnitEv@Base 2.4.1
 _ZN3SAT16CNF_Formula_Impl5resetEv@Base 2.4.1
 _ZN3SAT16CNF_Formula_Impl8simplifyEv@Base 2.4.1
 _ZN3SAT16CNF_Formula_Impl9newClauseEv@Base 2.4.1
 _ZN3SAT16CNF_Formula_ImplC1Ev@Base 2.4.1
 _ZN3SAT16CNF_Formula_ImplC2Ev@Base 2.4.1
 _ZN3SAT16CNF_Formula_ImplD0Ev@Base 2.4.1
 _ZN3SAT16CNF_Formula_ImplD1Ev@Base 2.4.1
 _ZN3SAT16CNF_Formula_ImplD2Ev@Base 2.4.1
 _ZN3SAT6ClauseD1Ev@Base 2.4.1
 _ZN3SAT6ClauseD2Ev@Base 2.4.1
 _ZN4CVC310ContextObj11makeCurrentEi@Base 2.4.1
 _ZN4CVC310ContextObj11restoreDataEPS0_@Base 2.4.1
 _ZN4CVC310ContextObj6updateEi@Base 2.4.1
 _ZN4CVC310ContextObjC1EPNS_7ContextE@Base 2.4.1
 _ZN4CVC310ContextObjC1ERKS0_@Base 2.4.1
 _ZN4CVC310ContextObjC2EPNS_7ContextE@Base 2.4.1
 _ZN4CVC310ContextObjC2ERKS0_@Base 2.4.1
 _ZN4CVC310ContextObjD0Ev@Base 2.4.1
 _ZN4CVC310ContextObjD1Ev@Base 2.4.1
 _ZN4CVC310ContextObjD2Ev@Base 2.4.1
 _ZN4CVC310ContextObjdlEPv@Base 2.4.1
 _ZN4CVC310ContextObjdlEPvPNS_13MemoryManagerE@Base 2.4.1
 _ZN4CVC310ContextObjnwEmPNS_13MemoryManagerE@Base 2.4.1
 _ZN4CVC310ExprSkolemD0Ev@Base 2.4.1
 _ZN4CVC310ExprSkolemD1Ev@Base 2.4.1
 _ZN4CVC310ExprSkolemD2Ev@Base 2.4.1
 _ZN4CVC310ExprStream11resetIndentEv@Base 2.4.1
 _ZN4CVC310ExprStream12addLetHeaderERKNS_4ExprE@Base 2.4.1
 _ZN4CVC310ExprStream13collectSharedERKNS_4ExprERNS_7ExprMapIbEE@Base 2.4.1
 _ZN4CVC310ExprStream6popDagEv@Base 2.4.1
 _ZN4CVC310ExprStream7newNameEv@Base 2.4.1
 _ZN4CVC310ExprStream7pushDagEv@Base 2.4.1
 _ZN4CVC310ExprStream8resetDagEv@Base 2.4.1
 _ZN4CVC310ExprStream9popIndentEv@Base 2.4.1
 _ZN4CVC310ExprStreamC1EPNS_11ExprManagerE@Base 2.4.1
 _ZN4CVC310ExprStreamC2EPNS_11ExprManagerE@Base 2.4.1
 _ZN4CVC310ExprStreamD1Ev@Base 2.4.1
 _ZN4CVC310ExprStreamD2Ev@Base 2.4.1
 _ZN4CVC310ExprStringD0Ev@Base 2.4.1
 _ZN4CVC310ExprStringD1Ev@Base 2.4.1
 _ZN4CVC310ExprStringD2Ev@Base 2.4.1
 _ZN4CVC310ExprSymbolD0Ev@Base 2.4.1
 _ZN4CVC310ExprSymbolD1Ev@Base 2.4.1
 _ZN4CVC310ExprSymbolD2Ev@Base 2.4.1
 _ZN4CVC310NotifyListD1Ev@Base 2.4.1
 _ZN4CVC310NotifyListD2Ev@Base 2.4.1
 _ZN4CVC310ParserDataC1Ev@Base 2.4.1
 _ZN4CVC310ParserDataC2Ev@Base 2.4.1
 _ZN4CVC310ParserDataD1Ev@Base 2.4.1
 _ZN4CVC310ParserDataD2Ev@Base 2.4.1
 _ZN4CVC310ParserTemp10setPrompt1Ev@Base 2.4.1
 _ZN4CVC310ParserTemp10setPrompt2Ev@Base 2.4.1
 _ZN4CVC310ParserTemp5errorERKSs@Base 2.4.1
 _ZN4CVC310ParserTemp9getPromptEv@Base 2.4.1
 _ZN4CVC310ParserTempC1Ev@Base 2.4.1
 _ZN4CVC310ParserTempC2Ev@Base 2.4.1
 _ZN4CVC310ParserTempD1Ev@Base 2.4.1
 _ZN4CVC310ParserTempD2Ev@Base 2.4.1
 _ZN4CVC310TheoryCore10addToVarDBERKNS_4ExprE@Base 2.4.1
 _ZN4CVC310TheoryCore10assertFactERKNS_7TheoremE@Base 2.4.1
 _ZN4CVC310TheoryCore10buildModelERNS_7ExprMapINS_4ExprEEE@Base 2.4.1
 _ZN4CVC310TheoryCore10buildModelERNS_7TheoremE@Base 2.4.1
 _ZN4CVC310TheoryCore10computeTCCERKNS_4ExprE@Base 2.4.1
 _ZN4CVC310TheoryCore10incompleteERSt6vectorISsSaISsEE@Base 2.4.1
 _ZN4CVC310TheoryCore10simplifyOpERKNS_4ExprE@Base 2.4.1
 _ZN4CVC310TheoryCore11assignValueERKNS_4ExprES3_@Base 2.4.1
 _ZN4CVC310TheoryCore11assignValueERKNS_7TheoremE@Base 2.4.1
 _ZN4CVC310TheoryCore11checkSolvedERKNS_7TheoremE@Base 2.4.1
 _ZN4CVC310TheoryCore11computeTypeERKNS_4ExprE@Base 2.4.1
 _ZN4CVC310TheoryCore11enqueueFactERKNS_7TheoremE@Base 2.4.1
 _ZN4CVC310TheoryCore11getResourceEv@Base 2.4.1
 _ZN4CVC310TheoryCore11isBasicKindEi@Base 2.4.1
 _ZN4CVC310TheoryCore11parseExprOpERKNS_4ExprE@Base 2.4.1
 _ZN4CVC310TheoryCore11processCondERKNS_4ExprEi@Base 2.4.1
 _ZN4CVC310TheoryCore11rewriteCoreERKNS_4ExprE@Base 2.4.1
 _ZN4CVC310TheoryCore11rewriteCoreERKNS_7TheoremE@Base 2.4.1
 _ZN4CVC310TheoryCore12checkSATCoreEv@Base 2.4.1
 _ZN4CVC310TheoryCore12inconsistentEv@Base 2.4.1
 _ZN4CVC310TheoryCore12registerAtomERKNS_4ExprERKNS_7TheoremE@Base 2.4.1
 _ZN4CVC310TheoryCore12setTimeLimitEj@Base 2.4.1
 _ZN4CVC310TheoryCore13CoreNotifyObj6notifyEv@Base 2.4.1
 _ZN4CVC310TheoryCore13CoreNotifyObjD0Ev@Base 2.4.1
 _ZN4CVC310TheoryCore13CoreNotifyObjD1Ev@Base 2.4.1
 _ZN4CVC310TheoryCore13CoreNotifyObjD2Ev@Base 2.4.1
 _ZN4CVC310TheoryCore13addSharedTermERKNS_4ExprE@Base 2.4.1
 _ZN4CVC310TheoryCore13assertFormulaERKNS_7TheoremE@Base 2.4.1
 _ZN4CVC310TheoryCore13checkEquationERKNS_7TheoremE@Base 2.4.1
 _ZN4CVC310TheoryCore13getAssignmentEv@Base 2.4.1
 _ZN4CVC310TheoryCore13getModelValueERKNS_4ExprE@Base 2.4.1
 _ZN4CVC310TheoryCore13initTimeLimitEv@Base 2.4.1
 _ZN4CVC310TheoryCore13processNotifyERKNS_7TheoremEPNS_10NotifyListE@Base 2.4.1
 _ZN4CVC310TheoryCore13setIncompleteERKSs@Base 2.4.1
 _ZN4CVC310TheoryCore14assertFactCoreERKNS_7TheoremE@Base 2.4.1
 _ZN4CVC310TheoryCore14finiteTypeInfoERNS_4ExprERNS_8UnsignedEbb@Base 2.4.1
 _ZN4CVC310TheoryCore14processUpdatesEv@Base 2.4.1
 _ZN4CVC310TheoryCore14rewriteLitCoreERKNS_4ExprE@Base 2.4.1
 _ZN4CVC310TheoryCore14rewriteLiteralERKNS_4ExprE@Base 2.4.1
 _ZN4CVC310TheoryCore14setFindLiteralERKNS_7TheoremE@Base 2.4.1
 _ZN4CVC310TheoryCore15computeBaseTypeERKNS_4TypeE@Base 2.4.1
 _ZN4CVC310TheoryCore15computeTypePredERKNS_4TypeERKNS_4ExprE@Base 2.4.1
 _ZN4CVC310TheoryCore15setInconsistentERKNS_7TheoremE@Base 2.4.1
 _ZN4CVC310TheoryCore16assertEqualitiesERKNS_7TheoremE@Base 2.4.1
 _ZN4CVC310TheoryCore16collectBasicVarsEv@Base 2.4.1
 _ZN4CVC310TheoryCore16createProofRulesEPNS_14TheoremManagerE@Base 2.4.1
 _ZN4CVC310TheoryCore16processFactQueueENS0_11EffortLevelE@Base 2.4.1
 _ZN4CVC310TheoryCore16setupSubFormulasERKNS_4ExprES3_RKNS_7TheoremE@Base 2.4.1
 _ZN4CVC310TheoryCore16timeLimitReachedEv@Base 2.4.1
 _ZN4CVC310TheoryCore17computeModelBasicERKSt6vectorINS_4ExprESaIS2_EE@Base 2.4.1
 _ZN4CVC310TheoryCore17getImpliedLiteralEv@Base 2.4.1
 _ZN4CVC310TheoryCore17getTheoremForTermERKNS_4ExprE@Base 2.4.1
 _ZN4CVC310TheoryCore17printSmtLibSharedERNS_10ExprStreamERKNS_4ExprE@Base 2.4.1
 _ZN4CVC310TheoryCore18collectModelValuesERKNS_4ExprERNS_7ExprMapIS1_EE@Base 2.4.1
 _ZN4CVC310TheoryCore20callTheoryPreprocessERKNS_4ExprE@Base 2.4.1
 _ZN4CVC310TheoryCore20getQuantLevelForTermERKNS_4ExprE@Base 2.4.1
 _ZN4CVC310TheoryCore20refineCounterExampleERNS_7TheoremE@Base 2.4.1
 _ZN4CVC310TheoryCore20refineCounterExampleEv@Base 2.4.1
 _ZN4CVC310TheoryCore24getImpliedLiteralByIndexEj@Base 2.4.1
 _ZN4CVC310TheoryCore5printERNS_10ExprStreamERKNS_4ExprE@Base 2.4.1
 _ZN4CVC310TheoryCore5setupERKNS_4ExprE@Base 2.4.1
 _ZN4CVC310TheoryCore5solveERKNS_7TheoremE@Base 2.4.1
 _ZN4CVC310TheoryCore6updateERKNS_7TheoremERKNS_4ExprE@Base 2.4.1
 _ZN4CVC310TheoryCore7addFactERKNS_7TheoremE@Base 2.4.1
 _ZN4CVC310TheoryCore7rewriteERKNS_4ExprE@Base 2.4.1
 _ZN4CVC310TheoryCore8checkSatEb@Base 2.4.1
 _ZN4CVC310TheoryCore8getValueENS_4ExprE@Base 2.4.1
 _ZN4CVC310TheoryCore8simplifyERKNS_4ExprE@Base 2.4.1
 _ZN4CVC310TheoryCore8typePredERKNS_4ExprE@Base 2.4.1
 _ZN4CVC310TheoryCore9checkTypeERKNS_4ExprE@Base 2.4.1
 _ZN4CVC310TheoryCore9enqueueSEERKNS_7TheoremE@Base 2.4.1
 _ZN4CVC310TheoryCore9parseExprERKNS_4ExprE@Base 2.4.1
 _ZN4CVC310TheoryCore9setupTermERKNS_4ExprEPNS_6TheoryERKNS_7TheoremE@Base 2.4.1
 _ZN4CVC310TheoryCoreC1EPNS_14ContextManagerEPNS_11ExprManagerEPNS_14TheoremManagerEPNS_10TranslatorERKNS_7CLFlagsERNS_10StatisticsE@Base 2.4.1
 _ZN4CVC310TheoryCoreC2EPNS_14ContextManagerEPNS_11ExprManagerEPNS_14TheoremManagerEPNS_10TranslatorERKNS_7CLFlagsERNS_10StatisticsE@Base 2.4.1
 _ZN4CVC310TheoryCoreD0Ev@Base 2.4.1
 _ZN4CVC310TheoryCoreD1Ev@Base 2.4.1
 _ZN4CVC310TheoryCoreD2Ev@Base 2.4.1
 _ZN4CVC310Translator10preprocessERKNS_4ExprERNS_7ExprMapIS1_EE@Base 2.4.1
 _ZN4CVC310Translator11preprocess2ERKNS_4ExprERNS_7ExprMapIS1_EE@Base 2.4.1
 _ZN4CVC310Translator11processTypeERKNS_4ExprE@Base 2.4.1
 _ZN4CVC310Translator11setCategoryESs@Base 2.4.1
 _ZN4CVC310Translator12escapeSymbolERKSs@Base 2.4.1
 _ZN4CVC310Translator12fixConstNameERKSs@Base 2.4.1
 _ZN4CVC310Translator12setBenchNameESs@Base 2.4.1
 _ZN4CVC310Translator13containsArrayERKNS_4ExprE@Base 2.4.1
 _ZN4CVC310Translator13dumpAssertionERKNS_4ExprE@Base 2.4.1
 _ZN4CVC310Translator13preprocessRecERKNS_4ExprERNS_7ExprMapIS1_EE@Base 2.4.1
 _ZN4CVC310Translator14preprocess2RecERKNS_4ExprERNS_7ExprMapIS1_EENS_4TypeE@Base 2.4.1
 _ZN4CVC310Translator14printArrayExprERNS_10ExprStreamERKNS_4ExprE@Base 2.4.1
 _ZN4CVC310Translator15dumpQueryResultENS_11QueryResultE@Base 2.4.1
 _ZN4CVC310Translator15quoteAnnotationERKSs@Base 2.4.1
 _ZN4CVC310Translator22fileToSMTLIBIdentifierERKSs@Base 2.4.1
 _ZN4CVC310Translator4dumpERKNS_4ExprEb@Base 2.4.1
 _ZN4CVC310Translator5startERKSs@Base 2.4.1
 _ZN4CVC310Translator6finishEv@Base 2.4.1
 _ZN4CVC310Translator7zeroVarEv@Base 2.4.1
 _ZN4CVC310Translator9dumpQueryERKNS_4ExprE@Base 2.4.1
 _ZN4CVC310Translator9setSourceESs@Base 2.4.1
 _ZN4CVC310Translator9setStatusESs@Base 2.4.1
 _ZN4CVC310TranslatorC1EPNS_11ExprManagerERKbS4_S4_RKSsbS6_S6_bbi@Base 2.4.1
 _ZN4CVC310TranslatorC2EPNS_11ExprManagerERKbS4_S4_RKSsbS6_S6_bbi@Base 2.4.1
 _ZN4CVC310TranslatorD1Ev@Base 2.4.1
 _ZN4CVC310TranslatorD2Ev@Base 2.4.1
 _ZN4CVC310fatalErrorERKSsiS1_S1_@Base 2.4.1
 _ZN4CVC310int2stringEi@Base 2.4.1
 _ZN4CVC310parserTempE@Base 2.4.1
 _ZN4CVC311Assumptions3addERKNS_7TheoremE@Base 2.4.1
 _ZN4CVC311Assumptions3addERKSt6vectorINS_7TheoremESaIS2_EE@Base 2.4.1
 _ZN4CVC311Assumptions7s_emptyE@Base 2.4.1
 _ZN4CVC311Assumptions8findExprERKS0_RKNS_4ExprERSt6vectorINS_7TheoremESaIS7_EE@Base 2.4.1
 _ZN4CVC311Assumptions9findExprsERKS0_RKSt6vectorINS_4ExprESaIS4_EERS3_INS_7TheoremESaIS9_EE@Base 2.4.1
 _ZN4CVC311AssumptionsC1ERKNS_7TheoremES3_@Base 2.4.1
 _ZN4CVC311AssumptionsC1ERKSt6vectorINS_7TheoremESaIS2_EE@Base 2.4.1
 _ZN4CVC311AssumptionsC2ERKNS_7TheoremES3_@Base 2.4.1
 _ZN4CVC311AssumptionsC2ERKSt6vectorINS_7TheoremESaIS2_EE@Base 2.4.1
 _ZN4CVC311AssumptionsD1Ev@Base 2.4.1
 _ZN4CVC311AssumptionsD2Ev@Base 2.4.1
 _ZN4CVC311BVConstExprC1EPNS_11ExprManagerESsmm@Base 2.4.1
 _ZN4CVC311BVConstExprC1EPNS_11ExprManagerESt6vectorIbSaIbEEmm@Base 2.4.1
 _ZN4CVC311BVConstExprC2EPNS_11ExprManagerESsmm@Base 2.4.1
 _ZN4CVC311BVConstExprC2EPNS_11ExprManagerESt6vectorIbSaIbEEmm@Base 2.4.1
 _ZN4CVC311BVConstExprD0Ev@Base 2.4.1
 _ZN4CVC311BVConstExprD1Ev@Base 2.4.1
 _ZN4CVC311BVConstExprD2Ev@Base 2.4.1
 _ZN4CVC311CLExceptionD0Ev@Base 2.4.1
 _ZN4CVC311CLExceptionD1Ev@Base 2.4.1
 _ZN4CVC311CLExceptionD2Ev@Base 2.4.1
 _ZN4CVC311ClauseOwnerD1Ev@Base 2.4.1
 _ZN4CVC311ClauseOwnerD2Ev@Base 2.4.1
 _ZN4CVC311ClauseValueC1EPNS_10TheoryCoreEPNS_15VariableManagerERKNS_7TheoremEi@Base 2.4.1
 _ZN4CVC311ClauseValueC2EPNS_10TheoryCoreEPNS_15VariableManagerERKNS_7TheoremEi@Base 2.4.1
 _ZN4CVC311ClauseValueD1Ev@Base 2.4.1
 _ZN4CVC311ClauseValueD2Ev@Base 2.4.1
 _ZN4CVC311ExprClosure11setTriggersERKSt6vectorIS1_INS_4ExprESaIS2_EESaIS4_EE@Base 2.4.1
 _ZN4CVC311ExprClosureC1EPNS_11ExprManagerEiRKSt6vectorINS_4ExprESaIS4_EERKS4_RKS3_IS6_SaIS6_EEm@Base 2.4.1
 _ZN4CVC311ExprClosureC2EPNS_11ExprManagerEiRKSt6vectorINS_4ExprESaIS4_EERKS4_RKS3_IS6_SaIS6_EEm@Base 2.4.1
 _ZN4CVC311ExprClosureD0Ev@Base 2.4.1
 _ZN4CVC311ExprClosureD1Ev@Base 2.4.1
 _ZN4CVC311ExprClosureD2Ev@Base 2.4.1
 _ZN4CVC311ExprManager10newRatExprERKNS_8RationalE@Base 2.4.1
 _ZN4CVC311ExprManager10newVarExprERKSs@Base 2.4.1
 _ZN4CVC311ExprManager10rebuildRecERKNS_4ExprE@Base 2.4.1
 _ZN4CVC311ExprManager11computeTypeERKNS_4ExprE@Base 2.4.1
 _ZN4CVC311ExprManager11getKindNameEi@Base 2.4.1
 _ZN4CVC311ExprManager11newLeafExprERKNS_2OpE@Base 2.4.1
 _ZN4CVC311ExprManager12newExprValueEPNS_9ExprValueE@Base 2.4.1
 _ZN4CVC311ExprManager13newStringExprERKSs@Base 2.4.1
 _ZN4CVC311ExprManager13newSymbolExprERKSsi@Base 2.4.1
 _ZN4CVC311ExprManager14finiteTypeInfoERNS_4ExprERNS_8UnsignedEbb@Base 2.4.1
 _ZN4CVC311ExprManager14getEmptyVectorEv@Base 2.4.1
 _ZN4CVC311ExprManager14newClosureExprEiRKSt6vectorINS_4ExprESaIS2_EERKS2_@Base 2.4.1
 _ZN4CVC311ExprManager14newClosureExprEiRKSt6vectorINS_4ExprESaIS2_EERKS2_RKS1_IS4_SaIS4_EE@Base 2.4.1
 _ZN4CVC311ExprManager15newBoundVarExprERKNS_4TypeE@Base 2.4.1
 _ZN4CVC311ExprManager15newBoundVarExprERKSsS2_@Base 2.4.1
 _ZN4CVC311ExprManager16installExprValueEPNS_9ExprValueE@Base 2.4.1
 _ZN4CVC311ExprManager16registerSubclassEm@Base 2.4.1
 _ZN4CVC311ExprManager21registerPrettyPrinterERNS_13PrettyPrinterE@Base 2.4.1
 _ZN4CVC311ExprManager23unregisterPrettyPrinterEv@Base 2.4.1
 _ZN4CVC311ExprManager2gcEPNS_9ExprValueE@Base 2.4.1
 _ZN4CVC311ExprManager5clearEv@Base 2.4.1
 _ZN4CVC311ExprManager6indentEib@Base 2.4.1
 _ZN4CVC311ExprManager7getKindERKSs@Base 2.4.1
 _ZN4CVC311ExprManager7newKindEiRKSsb@Base 2.4.1
 _ZN4CVC311ExprManager7rebuildERKNS_4ExprE@Base 2.4.1
 _ZN4CVC311ExprManager8isActiveEv@Base 2.4.1
 _ZN4CVC311ExprManager8nextFlagEv@Base 2.4.1
 _ZN4CVC311ExprManager8resumeGCEv@Base 2.4.1
 _ZN4CVC311ExprManager9checkTypeERKNS_4ExprE@Base 2.4.1
 _ZN4CVC311ExprManager9getMemoryEi@Base 2.4.1
 _ZN4CVC311ExprManager9incIndentEib@Base 2.4.1
 _ZN4CVC311ExprManagerC1EPNS_14ContextManagerERKNS_7CLFlagsE@Base 2.4.1
 _ZN4CVC311ExprManagerC2EPNS_14ContextManagerERKNS_7CLFlagsE@Base 2.4.1
 _ZN4CVC311ExprManagerD1Ev@Base 2.4.1
 _ZN4CVC311ExprManagerD2Ev@Base 2.4.1
 _ZN4CVC311ExprNodeTmpD0Ev@Base 2.4.1
 _ZN4CVC311ExprNodeTmpD1Ev@Base 2.4.1
 _ZN4CVC311ExprNodeTmpD2Ev@Base 2.4.1
 _ZN4CVC311TheoryArith10grayShadowERKNS_4ExprES3_RKNS_8RationalES6_@Base 2.4.1
 _ZN4CVC311TheoryArith13printRationalERNS_10ExprStreamERKNS_8RationalEb@Base 2.4.1
 _ZN4CVC311TheoryArith13rewriteToDiffERKNS_4ExprE@Base 2.4.1
 _ZN4CVC311TheoryArith17isAtomicArithTermERKNS_4ExprE@Base 2.4.1
 _ZN4CVC311TheoryArith17leavesAreNumConstERKNS_4ExprE@Base 2.4.1
 _ZN4CVC311TheoryArith19addPairToArithOrderERKNS_4ExprES3_@Base 2.4.1
 _ZN4CVC311TheoryArith19isSyntacticRationalERKNS_4ExprERNS_8RationalE@Base 2.4.1
 _ZN4CVC311TheoryArith20isAtomicArithFormulaERKNS_4ExprE@Base 2.4.1
 _ZN4CVC311TheoryArith23recursiveCanonSimpCheckERKNS_4ExprE@Base 2.4.1
 _ZN4CVC311TheoryArith26addMultiplicativeSignSplitERKNS_7TheoremE@Base 2.4.1
 _ZN4CVC311TheoryArith8canonRecERKNS_4ExprE@Base 2.4.1
 _ZN4CVC311TheoryArith8canonThmERKNS_7TheoremE@Base 2.4.1
 _ZN4CVC311TheoryArith9canonSimpERKNS_4ExprE@Base 2.4.1
 _ZN4CVC311TheoryArithD0Ev@Base 2.4.1
 _ZN4CVC311TheoryArithD1Ev@Base 2.4.1
 _ZN4CVC311TheoryArithD2Ev@Base 2.4.1
 _ZN4CVC311TheoryArray10assertFactERKNS_7TheoremE@Base 2.4.1
 _ZN4CVC311TheoryArray10computeTCCERKNS_4ExprE@Base 2.4.1
 _ZN4CVC311TheoryArray11computeTypeERKNS_4ExprE@Base 2.4.1
 _ZN4CVC311TheoryArray11parseExprOpERKNS_4ExprE@Base 2.4.1
 _ZN4CVC311TheoryArray12computeModelERKNS_4ExprERSt6vectorIS1_SaIS1_EE@Base 2.4.1
 _ZN4CVC311TheoryArray13addSharedTermERKNS_4ExprE@Base 2.4.1
 _ZN4CVC311TheoryArray14finiteTypeInfoERNS_4ExprERNS_8UnsignedEbb@Base 2.4.1
 _ZN4CVC311TheoryArray15computeBaseTypeERKNS_4TypeE@Base 2.4.1
 _ZN4CVC311TheoryArray16computeModelTermERKNS_4ExprERSt6vectorIS1_SaIS1_EE@Base 2.4.1
 _ZN4CVC311TheoryArray16createProofRulesEv@Base 2.4.1
 _ZN4CVC311TheoryArray5printERNS_10ExprStreamERKNS_4ExprE@Base 2.4.1
 _ZN4CVC311TheoryArray5setupERKNS_4ExprE@Base 2.4.1
 _ZN4CVC311TheoryArray5solveERKNS_7TheoremE@Base 2.4.1
 _ZN4CVC311TheoryArray6updateERKNS_7TheoremERKNS_4ExprE@Base 2.4.1
 _ZN4CVC311TheoryArray7rewriteERKNS_4ExprE@Base 2.4.1
 _ZN4CVC311TheoryArray8checkSatEb@Base 2.4.1
 _ZN4CVC311TheoryArray9checkTypeERKNS_4ExprE@Base 2.4.1
 _ZN4CVC311TheoryArray9pullIndexERKNS_4ExprES3_@Base 2.4.1
 _ZN4CVC311TheoryArrayC1EPNS_10TheoryCoreE@Base 2.4.1
 _ZN4CVC311TheoryArrayC2EPNS_10TheoryCoreE@Base 2.4.1
 _ZN4CVC311TheoryArrayD0Ev@Base 2.4.1
 _ZN4CVC311TheoryArrayD1Ev@Base 2.4.1
 _ZN4CVC311TheoryArrayD2Ev@Base 2.4.1
 _ZN4CVC311TheoryQuant10add_parentERKNS_4ExprE@Base 2.4.1
 _ZN4CVC311TheoryQuant10assertFactERKNS_7TheoremE@Base 2.4.1
 _ZN4CVC311TheoryQuant10computeTCCERKNS_4ExprE@Base 2.4.1
 _ZN4CVC311TheoryQuant10iterBKListERKNS_4ExprES3_mS3_@Base 2.4.1
 _ZN4CVC311TheoryQuant10iterFWListERKNS_4ExprES3_mS3_@Base 2.4.1
 _ZN4CVC311TheoryQuant10synNewInstEmRKSt6vectorINS_4ExprESaIS2_EERKS2_RKNS_7TriggerE@Base 2.4.1
 _ZN4CVC311TheoryQuant11computeTypeERKNS_4ExprE@Base 2.4.1
 _ZN4CVC311TheoryQuant11delNewTrigsERNS_7ExprMapIPNS1_IPSt6vectorINS_7dynTrigESaIS3_EEEEEE@Base 2.4.1
 _ZN4CVC311TheoryQuant11enqueueInstERKNS_7TheoremERKSt6vectorINS_4ExprESaIS5_EERKS5_@Base 2.4.1
 _ZN4CVC311TheoryQuant11enqueueInstERKNS_7TheoremERNS_7TriggerERKSt6vectorINS_4ExprESaIS7_EERKS7_@Base 2.4.1
 _ZN4CVC311TheoryQuant11enqueueInstEmRKSt6vectorINS_4ExprESaIS2_EERKS2_@Base 2.4.1
 _ZN4CVC311TheoryQuant11getHeadExprERKNS_4ExprE@Base 2.4.1
 _ZN4CVC311TheoryQuant11getSubTermsERKNS_4ExprE@Base 2.4.1
 _ZN4CVC311TheoryQuant11instantiateENS_7TheoremEbbm@Base 2.4.1
 _ZN4CVC311TheoryQuant11isTransLikeERKSt6vectorINS_4ExprESaIS2_EE@Base 2.4.1
 _ZN4CVC311TheoryQuant11newTopMatchERKNS_4ExprES3_RSt6vectorINS_7ExprMapIS1_EESaIS6_EERKNS_7TriggerE@Base 2.4.1
 _ZN4CVC311TheoryQuant11parseExprOpERKNS_4ExprE@Base 2.4.1
 _ZN4CVC311TheoryQuant11saveContextEv@Base 2.4.1
 _ZN4CVC311TheoryQuant11semCheckSatEb@Base 2.4.1
 _ZN4CVC311TheoryQuant11sendInstNewEv@Base 2.4.1
 _ZN4CVC311TheoryQuant11simpRAWListERKNS_4ExprE@Base 2.4.1
 _ZN4CVC311TheoryQuant11synCheckSatERNS_7ExprMapIPNS1_IPSt6vectorINS_7dynTrigESaIS3_EEEEEEb@Base 2.4.1
 _ZN4CVC311TheoryQuant12isTrans2LikeERKSt6vectorINS_4ExprESaIS2_EERKS2_@Base 2.4.1
 _ZN4CVC311TheoryQuant12matchListNewERNS_7ExprMapIPNS1_IPSt6vectorINS_7dynTrigESaIS3_EEEEEERKNS_6CDListINS_4ExprEEEmm@Base 2.4.1
 _ZN4CVC311TheoryQuant12matchListOldERKNS_6CDListINS_4ExprEEEmm@Base 2.4.1
 _ZN4CVC311TheoryQuant12multMatchTopERKNS_4ExprES3_RSt6vectorINS_7ExprMapIS1_EESaIS6_EE@Base 2.4.1
 _ZN4CVC311TheoryQuant12pushBackListERKNS_4ExprES1_@Base 2.4.1
 _ZN4CVC311TheoryQuant12pushForwListERKNS_4ExprES1_@Base 2.4.1
 _ZN4CVC311TheoryQuant12recMultMatchERKNS_4ExprES3_RSt6vectorINS_7ExprMapIS1_EESaIS6_EE@Base 2.4.1
 _ZN4CVC311TheoryQuant12recursiveMapERKNS_4ExprE@Base 2.4.1
 _ZN4CVC311TheoryQuant12registerTrigERNS_7ExprMapIPNS1_IPSt6vectorINS_7dynTrigESaIS3_EEEEEENS_7TriggerES2_INS_4ExprESaISC_EEm@Base 2.4.1
 _ZN4CVC311TheoryQuant13addSharedTermERKNS_4ExprE@Base 2.4.1
 _ZN4CVC311TheoryQuant13multTrigsInfoC1ERKS1_@Base 2.4.1
 _ZN4CVC311TheoryQuant13multTrigsInfoC2ERKS1_@Base 2.4.1
 _ZN4CVC311TheoryQuant13multTrigsInfoD1Ev@Base 2.4.1
 _ZN4CVC311TheoryQuant13multTrigsInfoD2Ev@Base 2.4.1
 _ZN4CVC311TheoryQuant13naiveCheckSatEb@Base 2.4.1
 _ZN4CVC311TheoryQuant13setupTriggersERNS_7ExprMapIPNS1_IPSt6vectorINS_7dynTrigESaIS3_EEEEEERKNS_7TheoremEm@Base 2.4.1
 _ZN4CVC311TheoryQuant14arrayHeuristicERKNS_7TriggerEm@Base 2.4.1
 _ZN4CVC311TheoryQuant14arrayIndexNameERKNS_4ExprE@Base 2.4.1
 _ZN4CVC311TheoryQuant14exprMap2stringERKNS_7ExprMapINS_4ExprEEE@Base 2.4.1
 _ZN4CVC311TheoryQuant14mapTermsByTypeERKNS_6CDListINS_4ExprEEE@Base 2.4.1
 _ZN4CVC311TheoryQuant14multMatchChildERKNS_4ExprES3_RSt6vectorINS_7ExprMapIS1_EESaIS6_EEb@Base 2.4.1
 _ZN4CVC311TheoryQuant14newTopMatchSigERKNS_4ExprES3_RSt6vectorINS_7ExprMapIS1_EESaIS6_EERKNS_7TriggerE@Base 2.4.1
 _ZN4CVC311TheoryQuant14recInstantiateERNS_7TheoremEbbmRSt6vectorINS_4ExprESaIS4_EE@Base 2.4.1
 _ZN4CVC311TheoryQuant15recGoodSemMatchERKNS_4ExprERKSt6vectorIS1_SaIS1_EERS6_RSt3setIS6_St4lessIS6_ESaIS6_EE@Base 2.4.1
 _ZN4CVC311TheoryQuant15simplifyExprMapERNS_7ExprMapINS_4ExprEEE@Base 2.4.1
 _ZN4CVC311TheoryQuant16createProofRulesEv@Base 2.4.1
 _ZN4CVC311TheoryQuant16newTopMatchNoSigERKNS_4ExprES3_RSt6vectorINS_7ExprMapIS1_EESaIS6_EERKNS_7TriggerE@Base 2.4.1
 _ZN4CVC311TheoryQuant16theoryPreprocessERKNS_4ExprE@Base 2.4.1
 _ZN4CVC311TheoryQuant17exprMap2stringSigERKNS_7ExprMapINS_4ExprEEE@Base 2.4.1
 _ZN4CVC311TheoryQuant17recMultMatchDebugERKNS_4ExprES3_RSt6vectorINS_7ExprMapIS1_EESaIS6_EE@Base 2.4.1
 _ZN4CVC311TheoryQuant18combineOldNewTrigsERNS_7ExprMapIPNS1_IPSt6vectorINS_7dynTrigESaIS3_EEEEEE@Base 2.4.1
 _ZN4CVC311TheoryQuant18notifyInconsistentERKNS_7TheoremE@Base 2.4.1
 _ZN4CVC311TheoryQuant18recMultMatchOldWayERKNS_4ExprES3_RSt6vectorINS_7ExprMapIS1_EESaIS6_EE@Base 2.4.1
 _ZN4CVC311TheoryQuant19collectChangedTermsERNS_6CDListINS_4ExprEEE@Base 2.4.1
 _ZN4CVC311TheoryQuant19findInstAssumptionsERKNS_7TheoremE@Base 2.4.1
 _ZN4CVC311TheoryQuant21simplifyVectorExprMapERSt6vectorINS_7ExprMapINS_4ExprEEESaIS4_EE@Base 2.4.1
 _ZN4CVC311TheoryQuant22exprMap2stringSimplifyERKNS_7ExprMapINS_4ExprEEE@Base 2.4.1
 _ZN4CVC311TheoryQuant4helpEi@Base 2.4.1
 _ZN4CVC311TheoryQuant5debugEi@Base 2.4.1
 _ZN4CVC311TheoryQuant5printERNS_10ExprStreamERKNS_4ExprE@Base 2.4.1
 _ZN4CVC311TheoryQuant5setupERKNS_4ExprE@Base 2.4.1
 _ZN4CVC311TheoryQuant6updateERKNS_7TheoremERKNS_4ExprE@Base 2.4.1
 _ZN4CVC311TheoryQuant7getHeadERKNS_4ExprE@Base 2.4.1
 _ZN4CVC311TheoryQuant7rewriteERKNS_4ExprE@Base 2.4.1
 _ZN4CVC311TheoryQuant8canMatchERKNS_4ExprES3_RNS_7ExprMapIS1_EE@Base 2.4.1
 _ZN4CVC311TheoryQuant8checkSatEb@Base 2.4.1
 _ZN4CVC311TheoryQuant9addNotifyERKNS_4ExprE@Base 2.4.1
 _ZN4CVC311TheoryQuant9loc_gtermERKSt6vectorINS_4ExprESaIS2_EERKS2_i@Base 2.4.1
 _ZN4CVC311TheoryQuantC1EPNS_10TheoryCoreE@Base 2.4.1
 _ZN4CVC311TheoryQuantC2EPNS_10TheoryCoreE@Base 2.4.1
 _ZN4CVC311TheoryQuantD0Ev@Base 2.4.1
 _ZN4CVC311TheoryQuantD1Ev@Base 2.4.1
 _ZN4CVC311TheoryQuantD2Ev@Base 2.4.1
 _ZN4CVC311pushRestoreERNS_10ExprStreamE@Base 2.4.1
 _ZN4CVC312ExprApplyTmpD0Ev@Base 2.4.1
 _ZN4CVC312ExprApplyTmpD1Ev@Base 2.4.1
 _ZN4CVC312ExprApplyTmpD2Ev@Base 2.4.1
 _ZN4CVC312ExprBoundVarD0Ev@Base 2.4.1
 _ZN4CVC312ExprBoundVarD1Ev@Base 2.4.1
 _ZN4CVC312ExprBoundVarD2Ev@Base 2.4.1
 _ZN4CVC312ExprRationalD0Ev@Base 2.4.1
 _ZN4CVC312ExprRationalD1Ev@Base 2.4.1
 _ZN4CVC312ExprRationalD2Ev@Base 2.4.1
 _ZN4CVC312SearchEngine11createRulesEPS0_@Base 2.4.1
 _ZN4CVC312SearchEngine11createRulesEv@Base 2.4.1
 _ZN4CVC312SearchEngine16getConcreteModelERNS_7ExprMapINS_4ExprEEE@Base 2.4.1
 _ZN4CVC312SearchEngine18tryModelGenerationERNS_7TheoremE@Base 2.4.1
 _ZN4CVC312SearchEngineC1EPNS_10TheoryCoreE@Base 2.4.1
 _ZN4CVC312SearchEngineC2EPNS_10TheoryCoreE@Base 2.4.1
 _ZN4CVC312SearchEngineD0Ev@Base 2.4.1
 _ZN4CVC312SearchEngineD1Ev@Base 2.4.1
 _ZN4CVC312SearchEngineD2Ev@Base 2.4.1
 _ZN4CVC312SearchSimple13checkValidRecERNS_7TheoremE@Base 2.4.1
 _ZN4CVC312SearchSimple14addLiteralFactERKNS_7TheoremE@Base 2.4.1
 _ZN4CVC312SearchSimple14checkValidMainERKNS_4ExprE@Base 2.4.1
 _ZN4CVC312SearchSimple15restartInternalERKNS_4ExprE@Base 2.4.1
 _ZN4CVC312SearchSimple17addNonLiteralFactERKNS_7TheoremE@Base 2.4.1
 _ZN4CVC312SearchSimple18checkValidInternalERKNS_4ExprE@Base 2.4.1
 _ZN4CVC312SearchSimple7getNameEv@Base 2.4.1
 _ZN4CVC312SearchSimpleC1EPNS_10TheoryCoreE@Base 2.4.1
 _ZN4CVC312SearchSimpleC2EPNS_10TheoryCoreE@Base 2.4.1
 _ZN4CVC312SearchSimpleD0Ev@Base 2.4.1
 _ZN4CVC312SearchSimpleD1Ev@Base 2.4.1
 _ZN4CVC312SearchSimpleD2Ev@Base 2.4.1
 _ZN4CVC312TheoremValueD0Ev@Base 2.4.1
 _ZN4CVC312TheoremValueD1Ev@Base 2.4.1
 _ZN4CVC312TheoremValueD2Ev@Base 2.4.1
 _ZN4CVC312TheoryArith310assertFactERKNS_7TheoremE@Base 2.4.1
 _ZN4CVC312TheoryArith310computeTCCERKNS_4ExprE@Base 2.4.1
 _ZN4CVC312TheoryArith310findBoundsERKNS_4ExprERNS_8RationalES5_@Base 2.4.1
 _ZN4CVC312TheoryArith310getFactorsERKNS_4ExprERSt3setIS1_St4lessIS1_ESaIS1_EE@Base 2.4.1
 _ZN4CVC312TheoryArith310solvedFormERKSt6vectorINS_7TheoremESaIS2_EE@Base 2.4.1
 _ZN4CVC312TheoryArith311addToBufferERKNS_7TheoremE@Base 2.4.1
 _ZN4CVC312TheoryArith311collectVarsERKNS_4ExprERSt6vectorIS1_SaIS1_EERSt3setIS1_St4lessIS1_ES5_E@Base 2.4.1
 _ZN4CVC312TheoryArith311computeTypeERKNS_4ExprE@Base 2.4.1
 _ZN4CVC312TheoryArith311lessThanVarERKNS_4ExprES3_@Base 2.4.1
 _ZN4CVC312TheoryArith311parseExprOpERKNS_4ExprE@Base 2.4.1
 _ZN4CVC312TheoryArith311updateStatsERKNS_4ExprE@Base 2.4.1
 _ZN4CVC312TheoryArith311updateStatsERKNS_8RationalERKNS_4ExprE@Base 2.4.1
 _ZN4CVC312TheoryArith312computeModelERKNS_4ExprERSt6vectorIS1_SaIS1_EE@Base 2.4.1
 _ZN4CVC312TheoryArith312isIntegerThmERKNS_4ExprE@Base 2.4.1
 _ZN4CVC312TheoryArith312pickMonomialERKNS_4ExprE@Base 2.4.1
 _ZN4CVC312TheoryArith312processIntEqERKNS_7TheoremE@Base 2.4.1
 _ZN4CVC312TheoryArith313VarOrderGraph13selectLargestERKSt6vectorINS_4ExprESaIS3_EERS5_@Base 2.4.1
 _ZN4CVC312TheoryArith313VarOrderGraph14selectSmallestERSt6vectorINS_4ExprESaIS3_EES6_@Base 2.4.1
 _ZN4CVC312TheoryArith313VarOrderGraph3dfsERKNS_4ExprES4_@Base 2.4.1
 _ZN4CVC312TheoryArith313VarOrderGraph7addEdgeERKNS_4ExprES4_@Base 2.4.1
 _ZN4CVC312TheoryArith313VarOrderGraph8lessThanERKNS_4ExprES4_@Base 2.4.1
 _ZN4CVC312TheoryArith313VarOrderGraphD1Ev@Base 2.4.1
 _ZN4CVC312TheoryArith313VarOrderGraphD2Ev@Base 2.4.1
 _ZN4CVC312TheoryArith313addSharedTermERKNS_4ExprE@Base 2.4.1
 _ZN4CVC312TheoryArith313canonSimplifyERKNS_4ExprE@Base 2.4.1
 _ZN4CVC312TheoryArith313freeConstIneqERKNS_4ExprEb@Base 2.4.1
 _ZN4CVC312TheoryArith313kidsCanonicalERKNS_4ExprE@Base 2.4.1
 _ZN4CVC312TheoryArith313processBufferEv@Base 2.4.1
 _ZN4CVC312TheoryArith313processRealEqERKNS_7TheoremE@Base 2.4.1
 _ZN4CVC312TheoryArith314canonPredEquivERKNS_7TheoremE@Base 2.4.1
 _ZN4CVC312TheoryArith314finiteTypeInfoERNS_4ExprERNS_8UnsignedEbb@Base 2.4.1
 _ZN4CVC312TheoryArith315assignVariablesERSt6vectorINS_4ExprESaIS2_EE@Base 2.4.1
 _ZN4CVC312TheoryArith315computeBaseTypeERKNS_4TypeE@Base 2.4.1
 _ZN4CVC312TheoryArith315computeTypePredERKNS_4TypeERKNS_4ExprE@Base 2.4.1
 _ZN4CVC312TheoryArith315isIntegerDeriveERKNS_4ExprERKNS_7TheoremE@Base 2.4.1
 _ZN4CVC312TheoryArith315isolateVariableERKNS_7TheoremERb@Base 2.4.1
 _ZN4CVC312TheoryArith316computeModelTermERKNS_4ExprERSt6vectorIS1_SaIS1_EE@Base 2.4.1
 _ZN4CVC312TheoryArith316separateMonomialERKNS_4ExprERS1_S4_@Base 2.4.1
 _ZN4CVC312TheoryArith316substAndCanonizeERKNS_4ExprERNS_7ExprMapINS_7TheoremEEE@Base 2.4.1
 _ZN4CVC312TheoryArith316substAndCanonizeERKNS_7TheoremERNS_7ExprMapIS1_EE@Base 2.4.1
 _ZN4CVC312TheoryArith317computeModelBasicERKSt6vectorINS_4ExprESaIS2_EE@Base 2.4.1
 _ZN4CVC312TheoryArith317createProofRules3Ev@Base 2.4.1
 _ZN4CVC312TheoryArith317findRationalBoundERKNS_4ExprES3_S3_RNS_8RationalE@Base 2.4.1
 _ZN4CVC312TheoryArith317pickIntEqMonomialERKNS_4ExprERS1_Rb@Base 2.4.1
 _ZN4CVC312TheoryArith318processSimpleIntEqERKNS_7TheoremE@Base 2.4.1
 _ZN4CVC312TheoryArith319computeNormalFactorERKNS_4ExprE@Base 2.4.1
 _ZN4CVC312TheoryArith319projectInequalitiesERKNS_7TheoremEb@Base 2.4.1
 _ZN4CVC312TheoryArith319updateSubsumptionDBERKNS_4ExprEbRb@Base 2.4.1
 _ZN4CVC312TheoryArith320refineCounterExampleEv@Base 2.4.1
 _ZN4CVC312TheoryArith321canonConjunctionEquivERKNS_7TheoremE@Base 2.4.1
 _ZN4CVC312TheoryArith321currentMaxCoefficientENS_4ExprE@Base 2.4.1
 _ZN4CVC312TheoryArith321normalizeProjectIneqsERKNS_7TheoremES3_@Base 2.4.1
 _ZN4CVC312TheoryArith321processFiniteIntervalERKNS_7TheoremES3_@Base 2.4.1
 _ZN4CVC312TheoryArith322checkAssertEqInvariantERKNS_7TheoremE@Base 2.4.1
 _ZN4CVC312TheoryArith322processFiniteIntervalsERKNS_4ExprE@Base 2.4.1
 _ZN4CVC312TheoryArith324fixCurrentMaxCoefficientENS_4ExprENS_8RationalE@Base 2.4.1
 _ZN4CVC312TheoryArith327selectSmallestByCoefficientESt6vectorINS_4ExprESaIS2_EERS4_@Base 2.4.1
 _ZN4CVC312TheoryArith35canonERKNS_4ExprE@Base 2.4.1
 _ZN4CVC312TheoryArith35printERNS_10ExprStreamERKNS_4ExprE@Base 2.4.1
 _ZN4CVC312TheoryArith35setupERKNS_4ExprE@Base 2.4.1
 _ZN4CVC312TheoryArith35solveERKNS_7TheoremE@Base 2.4.1
 _ZN4CVC312TheoryArith36updateERKNS_7TheoremERKNS_4ExprE@Base 2.4.1
 _ZN4CVC312TheoryArith37doSolveERKNS_7TheoremE@Base 2.4.1
 _ZN4CVC312TheoryArith37isStaleERKNS0_4IneqE@Base 2.4.1
 _ZN4CVC312TheoryArith37isStaleERKNS_4ExprE@Base 2.4.1
 _ZN4CVC312TheoryArith37rewriteERKNS_4ExprE@Base 2.4.1
 _ZN4CVC312TheoryArith38checkSatEb@Base 2.4.1
 _ZN4CVC312TheoryArith38setupRecERKNS_4ExprE@Base 2.4.1
 _ZN4CVC312TheoryArith39canonPredERKNS_7TheoremE@Base 2.4.1
 _ZN4CVC312TheoryArith39checkTypeERKNS_4ExprE@Base 2.4.1
 _ZN4CVC312TheoryArith39isIntegerERKNS_4ExprE@Base 2.4.1
 _ZN4CVC312TheoryArith39normalizeERKNS_4ExprE@Base 2.4.1
 _ZN4CVC312TheoryArith39normalizeERKNS_7TheoremE@Base 2.4.1
 _ZN4CVC312TheoryArith3C1EPNS_10TheoryCoreE@Base 2.4.1
 _ZN4CVC312TheoryArith3C2EPNS_10TheoryCoreE@Base 2.4.1
 _ZN4CVC312TheoryArith3D0Ev@Base 2.4.1
 _ZN4CVC312TheoryArith3D1Ev@Base 2.4.1
 _ZN4CVC312TheoryArith3D2Ev@Base 2.4.1
 _ZN4CVC312arrayLiteralERKNS_4ExprES2_@Base 2.4.1
 _ZN4CVC312compareByPtrERKNS_7TheoremES2_@Base 2.4.1
 _ZN4CVC313EvalExceptionD0Ev@Base 2.4.1
 _ZN4CVC313EvalExceptionD1Ev@Base 2.4.1
 _ZN4CVC313EvalExceptionD2Ev@Base 2.4.1
 _ZN4CVC313ExprTransform10GetGTerms2ERSt3setINS_4ExprESt4lessIS2_ESaIS2_EES7_@Base 2.4.1
 _ZN4CVC313ExprTransform10GetSub_vecERSt6vectorINS_4ExprESaIS2_EERKS2_RSt3setIS2_St4lessIS2_ES3_E@Base 2.4.1
 _ZN4CVC313ExprTransform10preprocessERKNS_4ExprE@Base 2.4.1
 _ZN4CVC313ExprTransform10preprocessERKNS_7TheoremE@Base 2.4.1
 _ZN4CVC313ExprTransform10substituteERKNS_4ExprERNS_11ExprHashMapINS_7TheoremEEES7_@Base 2.4.1
 _ZN4CVC313ExprTransform11BryantNamesERSt3mapINS_4ExprEPSt3setIS2_St4lessIS2_ESaIS2_EES5_SaISt4pairIKS2_S8_EEERS1_IS2_NS_4TypeES5_SaIS9_ISA_SF_EEE@Base 2.4.1
 _ZN4CVC313ExprTransform11GetOrderingERSt3mapINS_4ExprEPSt6vectorIS2_SaIS2_EESt4lessIS2_ESaISt4pairIKS2_S6_EEESE_SE_@Base 2.4.1
 _ZN4CVC313ExprTransform11updateQueueERNS_7ExprMapIPSt3setINS_4ExprESt4lessIS3_ESaIS3_EEEERKS3_RKS7_@Base 2.4.1
 _ZN4CVC313ExprTransform12NewBryantVarEii@Base 2.4.1
 _ZN4CVC313ExprTransform12pushNegationERKNS_4ExprE@Base 2.4.1
 _ZN4CVC313ExprTransform13CountSubTermsERKNS_4ExprERi@Base 2.4.1
 _ZN4CVC313ExprTransform13GetFormulaMapERKNS_4ExprERSt3setIS1_St4lessIS1_ESaIS1_EES9_Rii@Base 2.4.1
 _ZN4CVC313ExprTransform13ITE_generatorERNS_4ExprES2_RSt3mapIS1_PSt6vectorIS1_SaIS1_EESt4lessIS1_ESaISt4pairIKS1_S7_EEERS3_ISA_IS1_S1_ES1_S8_ISG_ESaISA_IKSG_S1_EEERS3_IS1_S1_S9_SaISA_ISB_S1_EEE@Base 2.4.1
 _ZN4CVC313ExprTransform13pushNegation1ERKNS_4ExprE@Base 2.4.1
 _ZN4CVC313ExprTransform13smartSimplifyERKNS_4ExprERNS_7ExprMapIbEE@Base 2.4.1
 _ZN4CVC313ExprTransform14GetSortedOpVecERSt3mapINS_4ExprEPSt6vectorIS2_SaIS2_EESt4lessIS2_ESaISt4pairIKS2_S6_EEESE_SE_RSt3setIS2_S8_S4_ESH_SH_RS5_SH_@Base 2.4.1
 _ZN4CVC313ExprTransform15BuildBryantMapsERKNS_4ExprERSt3mapIS1_PSt3setIS1_St4lessIS1_ESaIS1_EES7_SaISt4pairIS2_SA_EEERS4_IS1_PSt6vectorIS1_S8_ES7_SaISB_IS2_SI_EEERS4_IS1_NS_4TypeES7_SaISB_IS2_SN_EEERSH_RS9_ST_SM_SM_ST_ST_@Base 2.4.1
 _ZN4CVC313ExprTransform15GetOrderedTermsERSt3mapINS_4ExprEiSt4lessIS2_ESaISt4pairIKS2_iEEERS1_IS5_IS2_S2_ES2_S3_ISB_ESaIS5_IKSB_S2_EEERS1_IS2_PSt6vectorIS2_SaIS2_EES4_SaIS5_IS6_SL_EEERSK_RSt3setIS2_S4_SJ_EST_SQ_SQ_SQ_SQ_ST_ST_SP_SP_ST_ST_@Base 2.4.1
 _ZN4CVC313ExprTransform15PredConstrainerERSt3setINS_4ExprESt4lessIS2_ESaIS2_EERKS2_S9_iRSt3mapISt4pairIS2_S2_ES2_S3_ISC_ESaISB_IKSC_S2_EEES7_S7_RSA_IS2_PS6_S4_SaISB_IS8_SJ_EEES7_@Base 2.4.1
 _ZN4CVC313ExprTransform15pushNegationRecERKNS_4ExprEb@Base 2.4.1
 _ZN4CVC313ExprTransform15pushNegationRecERKNS_7TheoremEb@Base 2.4.1
 _ZN4CVC313ExprTransform15specialSimplifyERKNS_4ExprERNS_11ExprHashMapINS_7TheoremEEE@Base 2.4.1
 _ZN4CVC313ExprTransform16simplifyWithCareERKNS_4ExprE@Base 2.4.1
 _ZN4CVC313ExprTransform18B_Term_Map_DeleterERSt3mapINS_4ExprEPSt6vectorIS2_SaIS2_EESt4lessIS2_ESaISt4pairIKS2_S6_EEE@Base 2.4.1
 _ZN4CVC313ExprTransform18RemoveFunctionAppsERKNS_4ExprERSt3setIS1_St4lessIS1_ESaIS1_EERSt6vectorIS1_S7_ESC_RSt3mapIS1_S1_S6_SaISt4pairIS2_S1_EEES9_@Base 2.4.1
 _ZN4CVC313ExprTransform19PredConstrainTesterERSt3setINS_4ExprESt4lessIS2_ESaIS2_EERKS2_RSt3mapISt4pairIS2_S2_ES2_S3_ISC_ESaISB_IKSC_S2_EEERSt6vectorIS2_S5_ES7_S7_RSA_IS2_PS6_S4_SaISB_IS8_SM_EEE@Base 2.4.1
 _ZN4CVC313ExprTransform22ConstrainedConstraintsERSt3setINS_4ExprESt4lessIS2_ESaIS2_EERSt3mapIS2_PS6_S4_SaISt4pairIKS2_S9_EEERS8_ISA_IS2_S2_ES2_S3_ISG_ESaISA_IKSG_S2_EEERS8_IS2_PSt6vectorIS2_S5_ES4_SaISA_ISB_SP_EEES7_S7_S7_@Base 2.4.1
 _ZN4CVC313ExprTransform23T_generator_Map_DeleterERSt3mapINS_4ExprEPSt3setIS2_St4lessIS2_ESaIS2_EES5_SaISt4pairIKS2_S8_EEE@Base 2.4.1
 _ZN4CVC313ExprTransform5newPPERKNS_4ExprERi@Base 2.4.1
 _ZN4CVC313ExprTransform7GetPEqsERKNS_4ExprERSt3mapISt4pairIS1_S1_ES1_St4lessIS6_ESaIS5_IKS6_S1_EEERSt3setIS1_S7_IS1_ESaIS1_EESI_RS4_IS1_PSH_SF_SaIS5_IS2_SJ_EEESI_@Base 2.4.1
 _ZN4CVC313ExprTransform8Get_ITEsERSt3mapINS_4ExprEiSt4lessIS2_ESaISt4pairIKS2_iEEERSt3setIS2_S4_SaIS2_EERS1_IS2_PSt6vectorIS2_SC_ES4_SaIS5_IS6_SH_EEERSG_SL_RS1_IS5_IS2_S2_ES2_S3_ISN_ESaIS5_IKSN_S2_EEERS1_IS2_S2_S4_SaIS5_IS6_S2_EEE@Base 2.4.1
 _ZN4CVC313ExprTransform8dobryantERKNS_4ExprE@Base 2.4.1
 _ZN4CVC313ExprTransform8newPPrecERKNS_4ExprERi@Base 2.4.1
 _ZN4CVC313ExprTransformC1EPNS_10TheoryCoreE@Base 2.4.1
 _ZN4CVC313ExprTransformC2EPNS_10TheoryCoreE@Base 2.4.1
 _ZN4CVC313TheoryRecords10assertFactERKNS_7TheoremE@Base 2.4.1
 _ZN4CVC313TheoryRecords10computeTCCERKNS_4ExprE@Base 2.4.1
 _ZN4CVC313TheoryRecords10recordExprERKSt6vectorINS_4ExprESaIS2_EES6_@Base 2.4.1
 _ZN4CVC313TheoryRecords10recordExprERKSt6vectorISsSaISsEERKS1_INS_4ExprESaIS6_EE@Base 2.4.1
 _ZN4CVC313TheoryRecords10recordTypeERKSt6vectorINS_4ExprESaIS2_EES6_@Base 2.4.1
 _ZN4CVC313TheoryRecords10recordTypeERKSt6vectorISsSaISsEERKS1_INS_4ExprESaIS6_EE@Base 2.4.1
 _ZN4CVC313TheoryRecords10recordTypeERKSt6vectorISsSaISsEERKS1_INS_4TypeESaIS6_EE@Base 2.4.1
 _ZN4CVC313TheoryRecords10rewriteAuxERKNS_4ExprE@Base 2.4.1
 _ZN4CVC313TheoryRecords10rewriteAuxERKNS_7TheoremE@Base 2.4.1
 _ZN4CVC313TheoryRecords11computeTypeERKNS_4ExprE@Base 2.4.1
 _ZN4CVC313TheoryRecords11parseExprOpERKNS_4ExprE@Base 2.4.1
 _ZN4CVC313TheoryRecords11tupleSelectERKNS_4ExprEi@Base 2.4.1
 _ZN4CVC313TheoryRecords11tupleUpdateERKNS_4ExprEiS3_@Base 2.4.1
 _ZN4CVC313TheoryRecords12computeModelERKNS_4ExprERSt6vectorIS1_SaIS1_EE@Base 2.4.1
 _ZN4CVC313TheoryRecords12recordSelectERKNS_4ExprERKSs@Base 2.4.1
 _ZN4CVC313TheoryRecords12recordUpdateERKNS_4ExprERKSsS3_@Base 2.4.1
 _ZN4CVC313TheoryRecords13getFieldIndexERKNS_4ExprERKSs@Base 2.4.1
 _ZN4CVC313TheoryRecords14finiteTypeInfoERNS_4ExprERNS_8UnsignedEbb@Base 2.4.1
 _ZN4CVC313TheoryRecords15computeBaseTypeERKNS_4TypeE@Base 2.4.1
 _ZN4CVC313TheoryRecords15computeTypePredERKNS_4TypeERKNS_4ExprE@Base 2.4.1
 _ZN4CVC313TheoryRecords16computeModelTermERKNS_4ExprERSt6vectorIS1_SaIS1_EE@Base 2.4.1
 _ZN4CVC313TheoryRecords16createProofRulesEv@Base 2.4.1
 _ZN4CVC313TheoryRecords5printERNS_10ExprStreamERKNS_4ExprE@Base 2.4.1
 _ZN4CVC313TheoryRecords5setupERKNS_4ExprE@Base 2.4.1
 _ZN4CVC313TheoryRecords6updateERKNS_7TheoremERKNS_4ExprE@Base 2.4.1
 _ZN4CVC313TheoryRecords7rewriteERKNS_4ExprE@Base 2.4.1
 _ZN4CVC313TheoryRecords8checkSatEb@Base 2.4.1
 _ZN4CVC313TheoryRecords8getFieldERKNS_4ExprE@Base 2.4.1
 _ZN4CVC313TheoryRecords8getFieldERKNS_4ExprEi@Base 2.4.1
 _ZN4CVC313TheoryRecords8getIndexERKNS_4ExprE@Base 2.4.1
 _ZN4CVC313TheoryRecords9checkTypeERKNS_4ExprE@Base 2.4.1
 _ZN4CVC313TheoryRecords9getFieldsERKNS_4ExprE@Base 2.4.1
 _ZN4CVC313TheoryRecords9tupleExprERKSt6vectorINS_4ExprESaIS2_EE@Base 2.4.1
 _ZN4CVC313TheoryRecords9tupleTypeERKSt6vectorINS_4ExprESaIS2_EE@Base 2.4.1
 _ZN4CVC313TheoryRecords9tupleTypeERKSt6vectorINS_4TypeESaIS2_EE@Base 2.4.1
 _ZN4CVC313TheoryRecordsC1EPNS_10TheoryCoreE@Base 2.4.1
 _ZN4CVC313TheoryRecordsC2EPNS_10TheoryCoreE@Base 2.4.1
 _ZN4CVC313TheoryRecordsD0Ev@Base 2.4.1
 _ZN4CVC313TheoryRecordsD1Ev@Base 2.4.1
 _ZN4CVC313TheoryRecordsD2Ev@Base 2.4.1
 _ZN4CVC313VariableValue12setAssumpThmERKNS_7TheoremEi@Base 2.4.1
 _ZN4CVC313VariableValue8setValueERKNS_7TheoremEi@Base 2.4.1
 _ZN4CVC313VariableValue8setValueEiRKNS_6ClauseEi@Base 2.4.1
 _ZN4CVC313VariableValueD1Ev@Base 2.4.1
 _ZN4CVC313VariableValueD2Ev@Base 2.4.1
 _ZN4CVC313isConstructorERKNS_4ExprE@Base 2.4.1
 _ZN4CVC314ArithExceptionD0Ev@Base 2.4.1
 _ZN4CVC314ArithExceptionD1Ev@Base 2.4.1
 _ZN4CVC314ArithExceptionD2Ev@Base 2.4.1
 _ZN4CVC314ContextManager13createContextERKSs@Base 2.4.1
 _ZN4CVC314ContextManager13switchContextEPNS_7ContextE@Base 2.4.1
 _ZN4CVC314ContextManager17getCurrentContextEv@Base 2.4.1
 _ZN4CVC314ContextManager9getMemoryEi@Base 2.4.1
 _ZN4CVC314ContextManagerC1Ev@Base 2.4.1
 _ZN4CVC314ContextManagerC2Ev@Base 2.4.1
 _ZN4CVC314ContextManagerD1Ev@Base 2.4.1
 _ZN4CVC314ContextManagerD2Ev@Base 2.4.1
 _ZN4CVC314DecisionEngine11popDecisionEv@Base 2.4.1
 _ZN4CVC314DecisionEngine12lastSplitterEv@Base 2.4.1
 _ZN4CVC314DecisionEngine12pushDecisionENS_4ExprEb@Base 2.4.1
 _ZN4CVC314DecisionEngine15findSplitterRecERKNS_4ExprE@Base 2.4.1
 _ZN4CVC314DecisionEngine5popToEi@Base 2.4.1
 _ZN4CVC314DecisionEngineC1EPNS_10TheoryCoreEPNS_14SearchImplBaseE@Base 2.4.1
 _ZN4CVC314DecisionEngineC2EPNS_10TheoryCoreEPNS_14SearchImplBaseE@Base 2.4.1
 _ZN4CVC314DecisionEngineD0Ev@Base 2.4.1
 _ZN4CVC314DecisionEngineD1Ev@Base 2.4.1
 _ZN4CVC314DecisionEngineD2Ev@Base 2.4.1
 _ZN4CVC314RWTheoremValue5getMMEv@Base 2.4.1
 _ZN4CVC314RWTheoremValueD0Ev@Base 2.4.1
 _ZN4CVC314RWTheoremValueD1Ev@Base 2.4.1
 _ZN4CVC314RWTheoremValueD2Ev@Base 2.4.1
 _ZN4CVC314ResetExceptionD0Ev@Base 2.4.1
 _ZN4CVC314ResetExceptionD1Ev@Base 2.4.1
 _ZN4CVC314ResetExceptionD2Ev@Base 2.4.1
 _ZN4CVC314SearchImplBase10addCNFFactERKNS_7TheoremEb@Base 2.4.1
 _ZN4CVC314SearchImplBase10checkValidERKNS_4ExprERNS_7TheoremE@Base 2.4.1
 _ZN4CVC314SearchImplBase10enqueueCNFERKNS_7TheoremE@Base 2.4.1
 _ZN4CVC314SearchImplBase10replaceITEERKNS_4ExprE@Base 2.4.1
 _ZN4CVC314SearchImplBase11addSplitterERKNS_4ExprEi@Base 2.4.1
 _ZN4CVC314SearchImplBase12isAssumptionERKNS_4ExprE@Base 2.4.1
 _ZN4CVC314SearchImplBase12isPropClauseERKNS_4ExprE@Base 2.4.1
 _ZN4CVC314SearchImplBase12registerAtomERKNS_4ExprE@Base 2.4.1
 _ZN4CVC314SearchImplBase13addToCNFCacheERKNS_7TheoremE@Base 2.4.1
 _ZN4CVC314SearchImplBase13applyCNFRulesERKNS_7TheoremE@Base 2.4.1
 _ZN4CVC314SearchImplBase13enqueueCNFrecERKNS_7TheoremE@Base 2.4.1
 _ZN4CVC314SearchImplBase13processResultERKNS_7TheoremERKNS_4ExprE@Base 2.4.1
 _ZN4CVC314SearchImplBase14findInCNFCacheERKNS_4ExprE@Base 2.4.1
 _ZN4CVC314SearchImplBase14getAssumptionsERSt6vectorINS_4ExprESaIS2_EE@Base 2.4.1
 _ZN4CVC314SearchImplBase14isGoodSplitterERKNS_4ExprE@Base 2.4.1
 _ZN4CVC314SearchImplBase15returnFromCheckEv@Base 2.4.1
 _ZN4CVC314SearchImplBase16newIntAssumptionERKNS_4ExprE@Base 2.4.1
 _ZN4CVC314SearchImplBase16newIntAssumptionERKNS_7TheoremE@Base 2.4.1
 _ZN4CVC314SearchImplBase17getCounterExampleERSt6vectorINS_4ExprESaIS2_EEb@Base 2.4.1
 _ZN4CVC314SearchImplBase17getImpliedLiteralEv@Base 2.4.1
 _ZN4CVC314SearchImplBase17newUserAssumptionERKNS_4ExprE@Base 2.4.1
 _ZN4CVC314SearchImplBase18getAssumptionsUsedEv@Base 2.4.1
 _ZN4CVC314SearchImplBase18getUserAssumptionsERSt6vectorINS_4ExprESaIS2_EE@Base 2.4.1
 _ZN4CVC314SearchImplBase22getInternalAssumptionsERSt6vectorINS_4ExprESaIS2_EE@Base 2.4.1
 _ZN4CVC314SearchImplBase3popEv@Base 2.4.1
 _ZN4CVC314SearchImplBase4pushEv@Base 2.4.1
 _ZN4CVC314SearchImplBase7addFactERKNS_7TheoremE@Base 2.4.1
 _ZN4CVC314SearchImplBase7lastThmEv@Base 2.4.1
 _ZN4CVC314SearchImplBase7restartERKNS_4ExprERNS_7TheoremE@Base 2.4.1
 _ZN4CVC314SearchImplBase8SplitterC1ERKNS_7LiteralE@Base 2.4.1
 _ZN4CVC314SearchImplBase8SplitterC1ERKS1_@Base 2.4.1
 _ZN4CVC314SearchImplBase8SplitterC2ERKNS_7LiteralE@Base 2.4.1
 _ZN4CVC314SearchImplBase8SplitterC2ERKS1_@Base 2.4.1
 _ZN4CVC314SearchImplBase8SplitterD1Ev@Base 2.4.1
 _ZN4CVC314SearchImplBase8SplitterD2Ev@Base 2.4.1
 _ZN4CVC314SearchImplBase8SplitteraSERKS1_@Base 2.4.1
 _ZN4CVC314SearchImplBase8getProofEv@Base 2.4.1
 _ZN4CVC314SearchImplBase8getValueERKNS_4ExprE@Base 2.4.1
 _ZN4CVC314SearchImplBase8isClauseERKNS_4ExprE@Base 2.4.1
 _ZN4CVC314SearchImplBase8simplifyERKNS_7TheoremE@Base 2.4.1
 _ZN4CVC314SearchImplBaseC1EPNS_10TheoryCoreE@Base 2.4.1
 _ZN4CVC314SearchImplBaseC2EPNS_10TheoryCoreE@Base 2.4.1
 _ZN4CVC314SearchImplBaseD0Ev@Base 2.4.1
 _ZN4CVC314SearchImplBaseD1Ev@Base 2.4.1
 _ZN4CVC314SearchImplBaseD2Ev@Base 2.4.1
 _ZN4CVC314SoundExceptionD0Ev@Base 2.4.1
 _ZN4CVC314SoundExceptionD1Ev@Base 2.4.1
 _ZN4CVC314SoundExceptionD2Ev@Base 2.4.1
 _ZN4CVC314TheoremManager16createProofRulesEv@Base 2.4.1
 _ZN4CVC314TheoremManager5clearEv@Base 2.4.1
 _ZN4CVC314TheoremManagerC1EPNS_14ContextManagerEPNS_11ExprManagerERKNS_7CLFlagsE@Base 2.4.1
 _ZN4CVC314TheoremManagerC2EPNS_14ContextManagerEPNS_11ExprManagerERKNS_7CLFlagsE@Base 2.4.1
 _ZN4CVC314TheoremManagerD1Ev@Base 2.4.1
 _ZN4CVC314TheoremManagerD2Ev@Base 2.4.1
 _ZN4CVC314TheoryArithNew10assertFactERKNS_7TheoremE@Base 2.4.1
 _ZN4CVC314TheoryArithNew10computeTCCERKNS_4ExprE@Base 2.4.1
 _ZN4CVC314TheoryArithNew10findBoundsERKNS_4ExprERNS_8RationalES5_@Base 2.4.1
 _ZN4CVC314TheoryArithNew10solvedFormERKSt6vectorINS_7TheoremESaIS2_EE@Base 2.4.1
 _ZN4CVC314TheoryArithNew11EpsRational12PlusInfinityE@Base 2.4.1
 _ZN4CVC314TheoryArithNew11EpsRational13MinusInfinityE@Base 2.4.1
 _ZN4CVC314TheoryArithNew11EpsRational4ZeroE@Base 2.4.1
 _ZN4CVC314TheoryArithNew11EpsRationalC1ENS1_12RationalTypeE@Base 2.4.1
 _ZN4CVC314TheoryArithNew11EpsRationalC1ENS_8RationalES2_@Base 2.4.1
 _ZN4CVC314TheoryArithNew11EpsRationalC1ERKS1_@Base 2.4.1
 _ZN4CVC314TheoryArithNew11EpsRationalC1Ev@Base 2.4.1
 _ZN4CVC314TheoryArithNew11EpsRationalC2ENS1_12RationalTypeE@Base 2.4.1
 _ZN4CVC314TheoryArithNew11EpsRationalC2ENS_8RationalES2_@Base 2.4.1
 _ZN4CVC314TheoryArithNew11EpsRationalC2ERKS1_@Base 2.4.1
 _ZN4CVC314TheoryArithNew11EpsRationalC2Ev@Base 2.4.1
 _ZN4CVC314TheoryArithNew11EpsRationalD1Ev@Base 2.4.1
 _ZN4CVC314TheoryArithNew11EpsRationalD2Ev@Base 2.4.1
 _ZN4CVC314TheoryArithNew11addToBufferERKNS_7TheoremE@Base 2.4.1
 _ZN4CVC314TheoryArithNew11assertEqualERKNS_4ExprERKNS0_11EpsRationalERKNS_7TheoremE@Base 2.4.1
 _ZN4CVC314TheoryArithNew11assertLowerERKNS_4ExprERKNS0_11EpsRationalERKNS_7TheoremE@Base 2.4.1
 _ZN4CVC314TheoryArithNew11assertUpperERKNS_4ExprERKNS0_11EpsRationalERKNS_7TheoremE@Base 2.4.1
 _ZN4CVC314TheoryArithNew11collectVarsERKNS_4ExprERSt6vectorIS1_SaIS1_EERSt3setIS1_St4lessIS1_ES5_E@Base 2.4.1
 _ZN4CVC314TheoryArithNew11computeTypeERKNS_4ExprE@Base 2.4.1
 _ZN4CVC314TheoryArithNew11lessThanVarERKNS_4ExprES3_@Base 2.4.1
 _ZN4CVC314TheoryArithNew11parseExprOpERKNS_4ExprE@Base 2.4.1
 _ZN4CVC314TheoryArithNew11updateStatsERKNS_4ExprE@Base 2.4.1
 _ZN4CVC314TheoryArithNew11updateStatsERKNS_8RationalERKNS_4ExprE@Base 2.4.1
 _ZN4CVC314TheoryArithNew11updateValueERKNS_4ExprES3_@Base 2.4.1
 _ZN4CVC314TheoryArithNew12computeModelERKNS_4ExprERSt6vectorIS1_SaIS1_EE@Base 2.4.1
 _ZN4CVC314TheoryArithNew12isIntegerThmERKNS_4ExprE@Base 2.4.1
 _ZN4CVC314TheoryArithNew12processIntEqERKNS_7TheoremE@Base 2.4.1
 _ZN4CVC314TheoryArithNew12registerAtomERKNS_4ExprE@Base 2.4.1
 _ZN4CVC314TheoryArithNew13ExprBoundInfoD1Ev@Base 2.4.1
 _ZN4CVC314TheoryArithNew13ExprBoundInfoD2Ev@Base 2.4.1
 _ZN4CVC314TheoryArithNew13VarOrderGraph13selectLargestERKSt6vectorINS_4ExprESaIS3_EERS5_@Base 2.4.1
 _ZN4CVC314TheoryArithNew13VarOrderGraph14selectSmallestERSt6vectorINS_4ExprESaIS3_EES6_@Base 2.4.1
 _ZN4CVC314TheoryArithNew13VarOrderGraph3dfsERKNS_4ExprES4_@Base 2.4.1
 _ZN4CVC314TheoryArithNew13VarOrderGraph8lessThanERKNS_4ExprES4_@Base 2.4.1
 _ZN4CVC314TheoryArithNew13VarOrderGraphD1Ev@Base 2.4.1
 _ZN4CVC314TheoryArithNew13VarOrderGraphD2Ev@Base 2.4.1
 _ZN4CVC314TheoryArithNew13addSharedTermERKNS_4ExprE@Base 2.4.1
 _ZN4CVC314TheoryArithNew13canonSimplifyERKNS_4ExprE@Base 2.4.1
 _ZN4CVC314TheoryArithNew13kidsCanonicalERKNS_4ExprE@Base 2.4.1
 _ZN4CVC314TheoryArithNew13processRealEqERKNS_7TheoremE@Base 2.4.1
 _ZN4CVC314TheoryArithNew14boundsAsStringEv@Base 2.4.1
 _ZN4CVC314TheoryArithNew14canonPredEquivERKNS_7TheoremE@Base 2.4.1
 _ZN4CVC314TheoryArithNew14finiteTypeInfoERNS_4ExprERNS_8UnsignedEbb@Base 2.4.1
 _ZN4CVC314TheoryArithNew14pivotAndUpdateERKNS_4ExprES3_RKNS0_11EpsRationalE@Base 2.4.1
 _ZN4CVC314TheoryArithNew15assignVariablesERSt6vectorINS_4ExprESaIS2_EE@Base 2.4.1
 _ZN4CVC314TheoryArithNew15checkSatIntegerEv@Base 2.4.1
 _ZN4CVC314TheoryArithNew15checkSatSimplexEv@Base 2.4.1
 _ZN4CVC314TheoryArithNew15computeBaseTypeERKNS_4TypeE@Base 2.4.1
 _ZN4CVC314TheoryArithNew15computeTypePredERKNS_4TypeERKNS_4ExprE@Base 2.4.1
 _ZN4CVC314TheoryArithNew15deriveGomoryCutERKNS_4ExprE@Base 2.4.1
 _ZN4CVC314TheoryArithNew15findCoefficientERKNS_4ExprES3_@Base 2.4.1
 _ZN4CVC314TheoryArithNew15isIntegerDeriveERKNS_4ExprERKNS_7TheoremE@Base 2.4.1
 _ZN4CVC314TheoryArithNew15propagateTheoryERKNS_4ExprERKNS0_11EpsRationalES6_@Base 2.4.1
 _ZN4CVC314TheoryArithNew16computeModelTermERKNS_4ExprERSt6vectorIS1_SaIS1_EE@Base 2.4.1
 _ZN4CVC314TheoryArithNew16createProofRulesEv@Base 2.4.1
 _ZN4CVC314TheoryArithNew16getTableauxEntryERKNS_4ExprES3_@Base 2.4.1
 _ZN4CVC314TheoryArithNew16separateMonomialERKNS_4ExprERS1_S4_@Base 2.4.1
 _ZN4CVC314TheoryArithNew16substAndCanonizeERKNS_4ExprERNS_7ExprMapINS_7TheoremEEE@Base 2.4.1
 _ZN4CVC314TheoryArithNew16substAndCanonizeERKNS_7TheoremERNS_7ExprMapIS1_EE@Base 2.4.1
 _ZN4CVC314TheoryArithNew17computeModelBasicERKSt6vectorINS_4ExprESaIS2_EE@Base 2.4.1
 _ZN4CVC314TheoryArithNew17findRationalBoundERKNS_4ExprES3_S3_RNS_8RationalE@Base 2.4.1
 _ZN4CVC314TheoryArithNew17pickIntEqMonomialERKNS_4ExprE@Base 2.4.1
 _ZN4CVC314TheoryArithNew18processSimpleIntEqERKNS_7TheoremE@Base 2.4.1
 _ZN4CVC314TheoryArithNew18updateDependenciesERKNS_4ExprES3_S3_S3_@Base 2.4.1
 _ZN4CVC314TheoryArithNew19computeNormalFactorERKNS_4ExprENS0_17NormalizationTypeE@Base 2.4.1
 _ZN4CVC314TheoryArithNew19getVariableIntroThmERKNS_4ExprE@Base 2.4.1
 _ZN4CVC314TheoryArithNew20refineCounterExampleEv@Base 2.4.1
 _ZN4CVC314TheoryArithNew20updateFreshVariablesEv@Base 2.4.1
 _ZN4CVC314TheoryArithNew21canonConjunctionEquivERKNS_7TheoremE@Base 2.4.1
 _ZN4CVC314TheoryArithNew21processFiniteIntervalERKNS_7TheoremES3_@Base 2.4.1
 _ZN4CVC314TheoryArithNew21updateDependenciesAddERKNS_4ExprES3_@Base 2.4.1
 _ZN4CVC314TheoryArithNew22checkAssertEqInvariantERKNS_7TheoremE@Base 2.4.1
 _ZN4CVC314TheoryArithNew22processFiniteIntervalsERKNS_4ExprE@Base 2.4.1
 _ZN4CVC314TheoryArithNew24getLowerBoundExplanationERKN4Hash10hash_tableINS_4ExprESt4pairIKS3_NS_7TheoremEENS1_4hashIS3_EESt8equal_toIS3_ENS1_10_Select1stIS7_EEE8iteratorE@Base 2.4.1
 _ZN4CVC314TheoryArithNew24getUpperBoundExplanationERKN4Hash10hash_tableINS_4ExprESt4pairIKS3_NS_7TheoremEENS1_4hashIS3_EESt8equal_toIS3_ENS1_10_Select1stIS7_EEE8iteratorE@Base 2.4.1
 _ZN4CVC314TheoryArithNew24rafineIntegerConstraintsERKNS_7TheoremE@Base 2.4.1
 _ZN4CVC314TheoryArithNew24substAndCanonizeTableauxERKNS_7TheoremE@Base 2.4.1
 _ZN4CVC314TheoryArithNew24updateDependenciesRemoveERKNS_4ExprES3_@Base 2.4.1
 _ZN4CVC314TheoryArithNew27substAndCanonizeModTableauxERKNS_4ExprE@Base 2.4.1
 _ZN4CVC314TheoryArithNew27substAndCanonizeModTableauxERKNS_7TheoremE@Base 2.4.1
 _ZN4CVC314TheoryArithNew5canonERKNS_4ExprE@Base 2.4.1
 _ZN4CVC314TheoryArithNew5pivotERKNS_4ExprES3_@Base 2.4.1
 _ZN4CVC314TheoryArithNew5printERNS_10ExprStreamERKNS_4ExprE@Base 2.4.1
 _ZN4CVC314TheoryArithNew5setupERKNS_4ExprE@Base 2.4.1
 _ZN4CVC314TheoryArithNew5solveERKNS_7TheoremE@Base 2.4.1
 _ZN4CVC314TheoryArithNew6updateERKNS_4ExprERKNS0_11EpsRationalE@Base 2.4.1
 _ZN4CVC314TheoryArithNew6updateERKNS_7TheoremERKNS_4ExprE@Base 2.4.1
 _ZN4CVC314TheoryArithNew7doSolveERKNS_7TheoremE@Base 2.4.1
 _ZN4CVC314TheoryArithNew7getBetaERKNS_4ExprE@Base 2.4.1
 _ZN4CVC314TheoryArithNew7rewriteERKNS_4ExprE@Base 2.4.1
 _ZN4CVC314TheoryArithNew8checkSatEb@Base 2.4.1
 _ZN4CVC314TheoryArithNew8setupRecERKNS_4ExprE@Base 2.4.1
 _ZN4CVC314TheoryArithNew9BoundInfoD1Ev@Base 2.4.1
 _ZN4CVC314TheoryArithNew9BoundInfoD2Ev@Base 2.4.1
 _ZN4CVC314TheoryArithNew9canonPredERKNS_7TheoremE@Base 2.4.1
 _ZN4CVC314TheoryArithNew9checkTypeERKNS_4ExprE@Base 2.4.1
 _ZN4CVC314TheoryArithNew9isIntegerERKNS_4ExprE@Base 2.4.1
 _ZN4CVC314TheoryArithNew9normalizeERKNS_4ExprENS0_17NormalizationTypeE@Base 2.4.1
 _ZN4CVC314TheoryArithNew9normalizeERKNS_7TheoremENS0_17NormalizationTypeE@Base 2.4.1
 _ZN4CVC314TheoryArithNew9pivotRuleERKNS_7TheoremERKNS_4ExprE@Base 2.4.1
 _ZN4CVC314TheoryArithNewC1EPNS_10TheoryCoreE@Base 2.4.1
 _ZN4CVC314TheoryArithNewC2EPNS_10TheoryCoreE@Base 2.4.1
 _ZN4CVC314TheoryArithNewD0Ev@Base 2.4.1
 _ZN4CVC314TheoryArithNewD1Ev@Base 2.4.1
 _ZN4CVC314TheoryArithNewD2Ev@Base 2.4.1
 _ZN4CVC314TheoryArithOld10assertFactERKNS_7TheoremE@Base 2.4.1
 _ZN4CVC314TheoryArithOld10computeTCCERKNS_4ExprE@Base 2.4.1
 _ZN4CVC314TheoryArithOld10findBoundsERKNS_4ExprERNS_8RationalES5_@Base 2.4.1
 _ZN4CVC314TheoryArithOld10getFactorsERKNS_4ExprERSt3setIS1_St4lessIS1_ESaIS1_EE@Base 2.4.1
 _ZN4CVC314TheoryArithOld10solvedFormERKSt6vectorINS_7TheoremESaIS2_EE@Base 2.4.1
 _ZN4CVC314TheoryArithOld10termDegreeERKNS_4ExprE@Base 2.4.1
 _ZN4CVC314TheoryArithOld11addToBufferERKNS_7TheoremEb@Base 2.4.1
 _ZN4CVC314TheoryArithOld11collectVarsERKNS_4ExprERSt6vectorIS1_SaIS1_EERSt3setIS1_St4lessIS1_ES5_E@Base 2.4.1
 _ZN4CVC314TheoryArithOld11computeTypeERKNS_4ExprE@Base 2.4.1
 _ZN4CVC314TheoryArithOld11lessThanVarERKNS_4ExprES3_@Base 2.4.1
 _ZN4CVC314TheoryArithOld11parseExprOpERKNS_4ExprE@Base 2.4.1
 _ZN4CVC314TheoryArithOld11updateStatsERKNS_4ExprE@Base 2.4.1
 _ZN4CVC314TheoryArithOld11updateStatsERKNS_8RationalERKNS_4ExprE@Base 2.4.1
 _ZN4CVC314TheoryArithOld12computeModelERKNS_4ExprERSt6vectorIS1_SaIS1_EE@Base 2.4.1
 _ZN4CVC314TheoryArithOld12isIntegerThmERKNS_4ExprE@Base 2.4.1
 _ZN4CVC314TheoryArithOld12pickMonomialERKNS_4ExprE@Base 2.4.1
 _ZN4CVC314TheoryArithOld12processIntEqERKNS_7TheoremE@Base 2.4.1
 _ZN4CVC314TheoryArithOld12registerAtomERKNS_4ExprE@Base 2.4.1
 _ZN4CVC314TheoryArithOld12tryPropagateERKNS_4ExprES3_RKNS0_20DifferenceLogicGraph8EdgeInfoEi@Base 2.4.1
 _ZN4CVC314TheoryArithOld13VarOrderGraph13selectLargestERKSt6vectorINS_4ExprESaIS3_EERS5_@Base 2.4.1
 _ZN4CVC314TheoryArithOld13VarOrderGraph14selectSmallestERSt6vectorINS_4ExprESaIS3_EES6_@Base 2.4.1
 _ZN4CVC314TheoryArithOld13VarOrderGraph22getVerticesTopologicalERSt6vectorINS_4ExprESaIS3_EE@Base 2.4.1
 _ZN4CVC314TheoryArithOld13VarOrderGraph3dfsERKNS_4ExprERSt6vectorIS2_SaIS2_EE@Base 2.4.1
 _ZN4CVC314TheoryArithOld13VarOrderGraph3dfsERKNS_4ExprES4_@Base 2.4.1
 _ZN4CVC314TheoryArithOld13VarOrderGraph7addEdgeERKNS_4ExprES4_@Base 2.4.1
 _ZN4CVC314TheoryArithOld13VarOrderGraph8lessThanERKNS_4ExprES4_@Base 2.4.1
 _ZN4CVC314TheoryArithOld13VarOrderGraphD1Ev@Base 2.4.1
 _ZN4CVC314TheoryArithOld13VarOrderGraphD2Ev@Base 2.4.1
 _ZN4CVC314TheoryArithOld13addSharedTermERKNS_4ExprE@Base 2.4.1
 _ZN4CVC314TheoryArithOld13canonSimplifyERKNS_4ExprE@Base 2.4.1
 _ZN4CVC314TheoryArithOld13freeConstIneqERKNS_4ExprEb@Base 2.4.1
 _ZN4CVC314TheoryArithOld13getLowerBoundERKNS_4ExprENS0_15BoundsQueryTypeE@Base 2.4.1
 _ZN4CVC314TheoryArithOld13getUpperBoundERKNS_4ExprENS0_15BoundsQueryTypeE@Base 2.4.1
 _ZN4CVC314TheoryArithOld13isConstrainedERKNS_4ExprEbNS0_15BoundsQueryTypeE@Base 2.4.1
 _ZN4CVC314TheoryArithOld13isNonlinearEqERKNS_4ExprE@Base 2.4.1
 _ZN4CVC314TheoryArithOld13kidsCanonicalERKNS_4ExprE@Base 2.4.1
 _ZN4CVC314TheoryArithOld13processBufferEv@Base 2.4.1
 _ZN4CVC314TheoryArithOld13processRealEqERKNS_7TheoremE@Base 2.4.1
 _ZN4CVC314TheoryArithOld14canonPredEquivERKNS_7TheoremE@Base 2.4.1
 _ZN4CVC314TheoryArithOld14finiteTypeInfoERNS_4ExprERNS_8UnsignedEbb@Base 2.4.1
 _ZN4CVC314TheoryArithOld15assignVariablesERSt6vectorINS_4ExprESaIS2_EE@Base 2.4.1
 _ZN4CVC314TheoryArithOld15computeBaseTypeERKNS_4TypeE@Base 2.4.1
 _ZN4CVC314TheoryArithOld15computeTypePredERKNS_4TypeERKNS_4ExprE@Base 2.4.1
 _ZN4CVC314TheoryArithOld15isIntegerDeriveERKNS_4ExprERKNS_7TheoremE@Base 2.4.1
 _ZN4CVC314TheoryArithOld15isPowerEqualityERKNS_4ExprERNS_8RationalERS1_@Base 2.4.1
 _ZN4CVC314TheoryArithOld15isUnconstrainedERKNS_4ExprE@Base 2.4.1
 _ZN4CVC314TheoryArithOld15isolateVariableERKNS_7TheoremERb@Base 2.4.1
 _ZN4CVC314TheoryArithOld16computeModelTermERKNS_4ExprERSt6vectorIS1_SaIS1_EE@Base 2.4.1
 _ZN4CVC314TheoryArithOld16inequalityToFindERKNS_7TheoremEb@Base 2.4.1
 _ZN4CVC314TheoryArithOld16isPowersEqualityERKNS_4ExprERS1_S4_@Base 2.4.1
 _ZN4CVC314TheoryArithOld16separateMonomialERKNS_4ExprERS1_S4_@Base 2.4.1
 _ZN4CVC314TheoryArithOld16substAndCanonizeERKNS_4ExprERNS_7ExprMapINS_7TheoremEEE@Base 2.4.1
 _ZN4CVC314TheoryArithOld16substAndCanonizeERKNS_7TheoremERNS_7ExprMapIS1_EE@Base 2.4.1
 _ZN4CVC314TheoryArithOld17canPickEqMonomialERKNS_4ExprE@Base 2.4.1
 _ZN4CVC314TheoryArithOld17computeModelBasicERKSt6vectorINS_4ExprESaIS2_EE@Base 2.4.1
 _ZN4CVC314TheoryArithOld17computeTermBoundsEv@Base 2.4.1
 _ZN4CVC314TheoryArithOld17findRationalBoundERKNS_4ExprES3_S3_RNS_8RationalE@Base 2.4.1
 _ZN4CVC314TheoryArithOld17pickIntEqMonomialERKNS_4ExprERS1_Rb@Base 2.4.1
 _ZN4CVC314TheoryArithOld17updateConstrainedERKNS_4ExprE@Base 2.4.1
 _ZN4CVC314TheoryArithOld18isConstrainedAboveERKNS_4ExprENS0_15BoundsQueryTypeE@Base 2.4.1
 _ZN4CVC314TheoryArithOld18isConstrainedBelowERKNS_4ExprENS0_15BoundsQueryTypeE@Base 2.4.1
 _ZN4CVC314TheoryArithOld18isNonlinearSumTermERKNS_4ExprE@Base 2.4.1
 _ZN4CVC314TheoryArithOld18processSimpleIntEqERKNS_7TheoremE@Base 2.4.1
 _ZN4CVC314TheoryArithOld19addPairToArithOrderERKNS_4ExprES3_@Base 2.4.1
 _ZN4CVC314TheoryArithOld19computeNormalFactorERKNS_4ExprEb@Base 2.4.1
 _ZN4CVC314TheoryArithOld19createProofRulesOldEv@Base 2.4.1
 _ZN4CVC314TheoryArithOld19projectInequalitiesERKNS_7TheoremEb@Base 2.4.1
 _ZN4CVC314TheoryArithOld19updateSubsumptionDBERKNS_4ExprEbRb@Base 2.4.1
 _ZN4CVC314TheoryArithOld20DifferenceLogicGraph10existsEdgeERKNS_4ExprES4_@Base 2.4.1
 _ZN4CVC314TheoryArithOld20DifferenceLogicGraph10writeGraphERSo@Base 2.4.1
 _ZN4CVC314TheoryArithOld20DifferenceLogicGraph11EpsRational12PlusInfinityE@Base 2.4.1
 _ZN4CVC314TheoryArithOld20DifferenceLogicGraph11EpsRational13MinusInfinityE@Base 2.4.1
 _ZN4CVC314TheoryArithOld20DifferenceLogicGraph11EpsRational4ZeroE@Base 2.4.1
 _ZN4CVC314TheoryArithOld20DifferenceLogicGraph11EpsRationalC1ENS2_12RationalTypeE@Base 2.4.1
 _ZN4CVC314TheoryArithOld20DifferenceLogicGraph11EpsRationalC1ERKS2_@Base 2.4.1
 _ZN4CVC314TheoryArithOld20DifferenceLogicGraph11EpsRationalC1Ev@Base 2.4.1
 _ZN4CVC314TheoryArithOld20DifferenceLogicGraph11EpsRationalC2ENS2_12RationalTypeE@Base 2.4.1
 _ZN4CVC314TheoryArithOld20DifferenceLogicGraph11EpsRationalC2ERKS2_@Base 2.4.1
 _ZN4CVC314TheoryArithOld20DifferenceLogicGraph11EpsRationalC2Ev@Base 2.4.1
 _ZN4CVC314TheoryArithOld20DifferenceLogicGraph11EpsRationalD1Ev@Base 2.4.1
 _ZN4CVC314TheoryArithOld20DifferenceLogicGraph11EpsRationalD2Ev@Base 2.4.1
 _ZN4CVC314TheoryArithOld20DifferenceLogicGraph11EpsRationalaSERKS2_@Base 2.4.1
 _ZN4CVC314TheoryArithOld20DifferenceLogicGraph11hasIncomingERKNS_4ExprE@Base 2.4.1
 _ZN4CVC314TheoryArithOld20DifferenceLogicGraph11hasOutgoingERKNS_4ExprE@Base 2.4.1
 _ZN4CVC314TheoryArithOld20DifferenceLogicGraph12computeModelEv@Base 2.4.1
 _ZN4CVC314TheoryArithOld20DifferenceLogicGraph12getValuationERKNS_4ExprE@Base 2.4.1
 _ZN4CVC314TheoryArithOld20DifferenceLogicGraph12getVariablesERSt6vectorINS_4ExprESaIS3_EE@Base 2.4.1
 _ZN4CVC314TheoryArithOld20DifferenceLogicGraph13getEdgeWeightERKNS_4ExprES4_@Base 2.4.1
 _ZN4CVC314TheoryArithOld20DifferenceLogicGraph15analyseConflictERKNS_4ExprEi@Base 2.4.1
 _ZN4CVC314TheoryArithOld20DifferenceLogicGraph15getEdgeTheoremsERKNS_4ExprES4_RKNS1_8EdgeInfoERSt6vectorINS_7TheoremESaIS9_EE@Base 2.4.1
 _ZN4CVC314TheoryArithOld20DifferenceLogicGraph15getUnsatTheoremEv@Base 2.4.1
 _ZN4CVC314TheoryArithOld20DifferenceLogicGraph16expandSharedTermERKNS_4ExprE@Base 2.4.1
 _ZN4CVC314TheoryArithOld20DifferenceLogicGraph7addEdgeERKNS_4ExprES4_RKNS_8RationalERKNS_7TheoremE@Base 2.4.1
 _ZN4CVC314TheoryArithOld20DifferenceLogicGraph7getEdgeERKNS_4ExprES4_@Base 2.4.1
 _ZN4CVC314TheoryArithOld20DifferenceLogicGraph7inCycleERKNS_4ExprE@Base 2.4.1
 _ZN4CVC314TheoryArithOld20DifferenceLogicGraph7isUnsatEv@Base 2.4.1
 _ZN4CVC314TheoryArithOld20DifferenceLogicGraph8EdgeInfoD1Ev@Base 2.4.1
 _ZN4CVC314TheoryArithOld20DifferenceLogicGraph8EdgeInfoD2Ev@Base 2.4.1
 _ZN4CVC314TheoryArithOld20DifferenceLogicGraph9tryUpdateERKNS_4ExprES4_S4_@Base 2.4.1
 _ZN4CVC314TheoryArithOld20DifferenceLogicGraphC1EPS0_PNS_10TheoryCoreEPNS_15ArithProofRulesEPNS_7ContextE@Base 2.4.1
 _ZN4CVC314TheoryArithOld20DifferenceLogicGraphC2EPS0_PNS_10TheoryCoreEPNS_15ArithProofRulesEPNS_7ContextE@Base 2.4.1
 _ZN4CVC314TheoryArithOld20DifferenceLogicGraphD1Ev@Base 2.4.1
 _ZN4CVC314TheoryArithOld20DifferenceLogicGraphD2Ev@Base 2.4.1
 _ZN4CVC314TheoryArithOld20checkIntegerEqualityERKNS_7TheoremE@Base 2.4.1
 _ZN4CVC314TheoryArithOld20refineCounterExampleEv@Base 2.4.1
 _ZN4CVC314TheoryArithOld21canonConjunctionEquivERKNS_7TheoremE@Base 2.4.1
 _ZN4CVC314TheoryArithOld21currentMaxCoefficientENS_4ExprE@Base 2.4.1
 _ZN4CVC314TheoryArithOld21normalizeProjectIneqsERKNS_7TheoremES3_@Base 2.4.1
 _ZN4CVC314TheoryArithOld21processFiniteIntervalERKNS_7TheoremES3_@Base 2.4.1
 _ZN4CVC314TheoryArithOld22checkAssertEqInvariantERKNS_7TheoremE@Base 2.4.1
 _ZN4CVC314TheoryArithOld22processFiniteIntervalsERKNS_4ExprE@Base 2.4.1
 _ZN4CVC314TheoryArithOld24fixCurrentMaxCoefficientENS_4ExprENS_8RationalE@Base 2.4.1
 _ZN4CVC314TheoryArithOld25rafineInequalityToIntegerERKNS_7TheoremE@Base 2.4.1
 _ZN4CVC314TheoryArithOld26addMultiplicativeSignSplitERKNS_7TheoremE@Base 2.4.1
 _ZN4CVC314TheoryArithOld26extractTermsFromInequalityERKNS_4ExprERNS_8RationalERS1_S5_S6_@Base 2.4.1
 _ZN4CVC314TheoryArithOld27selectSmallestByCoefficientERKSt6vectorINS_4ExprESaIS2_EERS4_@Base 2.4.1
 _ZN4CVC314TheoryArithOld5canonERKNS_4ExprE@Base 2.4.1
 _ZN4CVC314TheoryArithOld5printERNS_10ExprStreamERKNS_4ExprE@Base 2.4.1
 _ZN4CVC314TheoryArithOld5setupERKNS_4ExprE@Base 2.4.1
 _ZN4CVC314TheoryArithOld5solveERKNS_7TheoremE@Base 2.4.1
 _ZN4CVC314TheoryArithOld6updateERKNS_7TheoremERKNS_4ExprE@Base 2.4.1
 _ZN4CVC314TheoryArithOld7doSolveERKNS_7TheoremE@Base 2.4.1
 _ZN4CVC314TheoryArithOld7isStaleERKNS0_4IneqE@Base 2.4.1
 _ZN4CVC314TheoryArithOld7isStaleERKNS_4ExprE@Base 2.4.1
 _ZN4CVC314TheoryArithOld7rewriteERKNS_4ExprE@Base 2.4.1
 _ZN4CVC314TheoryArithOld8checkSatEb@Base 2.4.1
 _ZN4CVC314TheoryArithOld8setupRecERKNS_4ExprE@Base 2.4.1
 _ZN4CVC314TheoryArithOld9canonPredERKNS_7TheoremE@Base 2.4.1
 _ZN4CVC314TheoryArithOld9checkTypeERKNS_4ExprE@Base 2.4.1
 _ZN4CVC314TheoryArithOld9isBoundedERKNS_4ExprENS0_15BoundsQueryTypeE@Base 2.4.1
 _ZN4CVC314TheoryArithOld9isIntegerERKNS_4ExprE@Base 2.4.1
 _ZN4CVC314TheoryArithOld9normalizeERKNS_4ExprE@Base 2.4.1
 _ZN4CVC314TheoryArithOld9normalizeERKNS_7TheoremE@Base 2.4.1
 _ZN4CVC314TheoryArithOldC1EPNS_10TheoryCoreE@Base 2.4.1
 _ZN4CVC314TheoryArithOldC2EPNS_10TheoryCoreE@Base 2.4.1
 _ZN4CVC314TheoryArithOldD0Ev@Base 2.4.1
 _ZN4CVC314TheoryArithOldD1Ev@Base 2.4.1
 _ZN4CVC314TheoryArithOldD2Ev@Base 2.4.1
 _ZN4CVC314TheoryDatatype10assertFactERKNS_7TheoremE@Base 2.4.1
 _ZN4CVC314TheoryDatatype10computeTCCERKNS_4ExprE@Base 2.4.1
 _ZN4CVC314TheoryDatatype10getConsPosERKNS_4ExprE@Base 2.4.1
 _ZN4CVC314TheoryDatatype11canCollapseERKNS_4ExprE@Base 2.4.1
 _ZN4CVC314TheoryDatatype11computeTypeERKNS_4ExprE@Base 2.4.1
 _ZN4CVC314TheoryDatatype11getConstantERKNS_4TypeE@Base 2.4.1
 _ZN4CVC314TheoryDatatype11instantiateERKNS_4ExprERKNS_8UnsignedE@Base 2.4.1
 _ZN4CVC314TheoryDatatype11mergeLabelsERKNS_7TheoremERKNS_4ExprES6_@Base 2.4.1
 _ZN4CVC314TheoryDatatype11mergeLabelsERKNS_7TheoremERKNS_4ExprEjb@Base 2.4.1
 _ZN4CVC314TheoryDatatype11parseExprOpERKNS_4ExprE@Base 2.4.1
 _ZN4CVC314TheoryDatatype13addSharedTermERKNS_4ExprE@Base 2.4.1
 _ZN4CVC314TheoryDatatype14finiteTypeInfoERNS_4ExprERNS_8UnsignedEbb@Base 2.4.1
 _ZN4CVC314TheoryDatatype15datatypeSelExprERKSsRKNS_4ExprE@Base 2.4.1
 _ZN4CVC314TheoryDatatype15getSelectorInfoERKNS_4ExprE@Base 2.4.1
 _ZN4CVC314TheoryDatatype16computeModelTermERKNS_4ExprERSt6vectorIS1_SaIS1_EE@Base 2.4.1
 _ZN4CVC314TheoryDatatype16createProofRulesEv@Base 2.4.1
 _ZN4CVC314TheoryDatatype16datatypeConsExprERKSsRKSt6vectorINS_4ExprESaIS4_EE@Base 2.4.1
 _ZN4CVC314TheoryDatatype16datatypeTestExprERKSsRKNS_4ExprE@Base 2.4.1
 _ZN4CVC314TheoryDatatype16getConsForTesterERKNS_4ExprE@Base 2.4.1
 _ZN4CVC314TheoryDatatype16initializeLabelsERKNS_4ExprERKNS_4TypeE@Base 2.4.1
 _ZN4CVC314TheoryDatatype21getReachablePredicateERKNS_4TypeE@Base 2.4.1
 _ZN4CVC314TheoryDatatype5printERNS_10ExprStreamERKNS_4ExprE@Base 2.4.1
 _ZN4CVC314TheoryDatatype5setupERKNS_4ExprE@Base 2.4.1
 _ZN4CVC314TheoryDatatype5solveERKNS_7TheoremE@Base 2.4.1
 _ZN4CVC314TheoryDatatype6updateERKNS_7TheoremERKNS_4ExprE@Base 2.4.1
 _ZN4CVC314TheoryDatatype7rewriteERKNS_4ExprE@Base 2.4.1
 _ZN4CVC314TheoryDatatype8checkSatEb@Base 2.4.1
 _ZN4CVC314TheoryDatatype8dataTypeERKSsRKSt6vectorISsSaISsEERKS3_IS5_SaIS5_EERKS3_IS3_INS_4ExprESaISC_EESaISE_EE@Base 2.4.1
 _ZN4CVC314TheoryDatatype8dataTypeERKSt6vectorISsSaISsEERKS1_IS3_SaIS3_EERKS1_IS7_SaIS7_EERKS1_IS1_IS1_INS_4ExprESaISE_EESaISG_EESaISI_EE@Base 2.4.1
 _ZN4CVC314TheoryDatatype9checkTypeERKNS_4ExprE@Base 2.4.1
 _ZN4CVC314TheoryDatatypeC1EPNS_10TheoryCoreE@Base 2.4.1
 _ZN4CVC314TheoryDatatypeC2EPNS_10TheoryCoreE@Base 2.4.1
 _ZN4CVC314TheoryDatatypeD0Ev@Base 2.4.1
 _ZN4CVC314TheoryDatatypeD1Ev@Base 2.4.1
 _ZN4CVC314TheoryDatatypeD2Ev@Base 2.4.1
 _ZN4CVC314TheorySimulate10assertFactERKNS_7TheoremE@Base 2.4.1
 _ZN4CVC314TheorySimulate10computeTCCERKNS_4ExprE@Base 2.4.1
 _ZN4CVC314TheorySimulate11computeTypeERKNS_4ExprE@Base 2.4.1
 _ZN4CVC314TheorySimulate11parseExprOpERKNS_4ExprE@Base 2.4.1
 _ZN4CVC314TheorySimulate16createProofRulesEv@Base 2.4.1
 _ZN4CVC314TheorySimulate5printERNS_10ExprStreamERKNS_4ExprE@Base 2.4.1
 _ZN4CVC314TheorySimulate7rewriteERKNS_4ExprE@Base 2.4.1
 _ZN4CVC314TheorySimulate8checkSatEb@Base 2.4.1
 _ZN4CVC314TheorySimulateC1EPNS_10TheoryCoreE@Base 2.4.1
 _ZN4CVC314TheorySimulateC2EPNS_10TheoryCoreE@Base 2.4.1
 _ZN4CVC314TheorySimulateD0Ev@Base 2.4.1
 _ZN4CVC314TheorySimulateD1Ev@Base 2.4.1
 _ZN4CVC314TheorySimulateD2Ev@Base 2.4.1
 _ZN4CVC314isIntegerConstERKNS_4ExprE@Base 2.4.1
 _ZN4CVC315ArithProofRules18rewriteLeavesConstERKNS_4ExprE@Base 2.4.1
 _ZN4CVC315ContextObjChain7restoreEv@Base 2.4.1
 _ZN4CVC315ContextObjChainC1EPNS_10ContextObjES2_PS0_@Base 2.4.1
 _ZN4CVC315ContextObjChainC2EPNS_10ContextObjES2_PS0_@Base 2.4.1
 _ZN4CVC315ContextObjChaindlEPvb@Base 2.4.1
 _ZN4CVC315ContextObjChainnwEmb@Base 2.4.1
 _ZN4CVC315ParserExceptionC1ERKSs@Base 2.4.1
 _ZN4CVC315ParserExceptionC2ERKSs@Base 2.4.1
 _ZN4CVC315ParserExceptionD0Ev@Base 2.4.1
 _ZN4CVC315ParserExceptionD1Ev@Base 2.4.1
 _ZN4CVC315ParserExceptionD2Ev@Base 2.4.1
 _ZN4CVC315RegTheoremValue5getMMEv@Base 2.4.1
 _ZN4CVC315RegTheoremValueD0Ev@Base 2.4.1
 _ZN4CVC315RegTheoremValueD1Ev@Base 2.4.1
 _ZN4CVC315RegTheoremValueD2Ev@Base 2.4.1
 _ZN4CVC315SmtlibExceptionD0Ev@Base 2.4.1
 _ZN4CVC315SmtlibExceptionD1Ev@Base 2.4.1
 _ZN4CVC315SmtlibExceptionD2Ev@Base 2.4.1
 _ZN4CVC315TheoremProducer10soundErrorERKSsiS2_S2_@Base 2.4.1
 _ZN4CVC315TheoremProducer5newPfERKNS_5ProofERKNS_4ExprES3_@Base 2.4.1
 _ZN4CVC315TheoremProducer5newPfERKNS_5ProofES3_@Base 2.4.1
 _ZN4CVC315TheoremProducer5newPfERKSs@Base 2.4.1
 _ZN4CVC315TheoremProducer5newPfERKSsNS_4Expr8iteratorERKS4_@Base 2.4.1
 _ZN4CVC315TheoremProducer5newPfERKSsNS_4Expr8iteratorERKS4_RKSt6vectorINS_5ProofESaIS8_EE@Base 2.4.1
 _ZN4CVC315TheoremProducer5newPfERKSsRKNS_4ExprE@Base 2.4.1
 _ZN4CVC315TheoremProducer5newPfERKSsRKNS_4ExprENS3_8iteratorERKS6_@Base 2.4.1
 _ZN4CVC315TheoremProducer5newPfERKSsRKNS_4ExprERKNS_5ProofE@Base 2.4.1
 _ZN4CVC315TheoremProducer5newPfERKSsRKNS_4ExprERKSt6vectorINS_5ProofESaIS7_EE@Base 2.4.1
 _ZN4CVC315TheoremProducer5newPfERKSsRKNS_4ExprERKSt6vectorIS3_SaIS3_EE@Base 2.4.1
 _ZN4CVC315TheoremProducer5newPfERKSsRKNS_4ExprES5_@Base 2.4.1
 _ZN4CVC315TheoremProducer5newPfERKSsRKNS_4ExprES5_RKNS_5ProofE@Base 2.4.1
 _ZN4CVC315TheoremProducer5newPfERKSsRKNS_4ExprES5_RKSt6vectorINS_5ProofESaIS7_EE@Base 2.4.1
 _ZN4CVC315TheoremProducer5newPfERKSsRKNS_4ExprES5_S5_@Base 2.4.1
 _ZN4CVC315TheoremProducer5newPfERKSsRKNS_5ProofE@Base 2.4.1
 _ZN4CVC315TheoremProducer5newPfERKSsRKSt6vectorINS_4ExprESaIS4_EE@Base 2.4.1
 _ZN4CVC315TheoremProducer5newPfERKSsRKSt6vectorINS_4ExprESaIS4_EERKNS_5ProofE@Base 2.4.1
 _ZN4CVC315TheoremProducer5newPfERKSsRKSt6vectorINS_4ExprESaIS4_EERKS3_INS_5ProofESaIS9_EE@Base 2.4.1
 _ZN4CVC315TheoremProducer5newPfERKSsRKSt6vectorINS_5ProofESaIS4_EE@Base 2.4.1
 _ZN4CVC315TheoremProducer5newPfERKSt6vectorINS_5ProofESaIS2_EERKS1_INS_4ExprESaIS7_EERKS2_@Base 2.4.1
 _ZN4CVC315TheoremProducer5newPfERKSt6vectorINS_5ProofESaIS2_EERKS2_@Base 2.4.1
 _ZN4CVC315TheoremProducer8newLabelERKNS_4ExprE@Base 2.4.1
 _ZN4CVC315TheoremProducerC1EPNS_14TheoremManagerE@Base 2.4.1
 _ZN4CVC315TheoremProducerC2EPNS_14TheoremManagerE@Base 2.4.1
 _ZN4CVC315TheoremProducerD0Ev@Base 2.4.1
 _ZN4CVC315TheoremProducerD1Ev@Base 2.4.1
 _ZN4CVC315TheoremProducerD2Ev@Base 2.4.1
 _ZN4CVC315TheoryBitvector10assertFactERKNS_7TheoremE@Base 2.4.1
 _ZN4CVC315TheoryBitvector10computeTCCERKNS_4ExprE@Base 2.4.1
 _ZN4CVC315TheoryBitvector10getBVIndexERKNS_4ExprE@Base 2.4.1
 _ZN4CVC315TheoryBitvector10getSXIndexERKNS_4ExprE@Base 2.4.1
 _ZN4CVC315TheoryBitvector10simplifyOpERKNS_4ExprE@Base 2.4.1
 _ZN4CVC315TheoryBitvector11bitBlastEqnERKNS_4ExprE@Base 2.4.1
 _ZN4CVC315TheoryBitvector11canSolveForERKNS_4ExprES3_@Base 2.4.1
 _ZN4CVC315TheoryBitvector11computeTypeERKNS_4ExprE@Base 2.4.1
 _ZN4CVC315TheoryBitvector11countTermInERKNS_4ExprES3_@Base 2.4.1
 _ZN4CVC315TheoryBitvector11newBVLEExprERKNS_4ExprES3_@Base 2.4.1
 _ZN4CVC315TheoryBitvector11newBVLTExprERKNS_4ExprES3_@Base 2.4.1
 _ZN4CVC315TheoryBitvector11newBVOrExprERKNS_4ExprES3_@Base 2.4.1
 _ZN4CVC315TheoryBitvector11newBVOrExprERKSt6vectorINS_4ExprESaIS2_EE@Base 2.4.1
 _ZN4CVC315TheoryBitvector11parseExprOpERKNS_4ExprE@Base 2.4.1
 _ZN4CVC315TheoryBitvector12bitBlastTermERKNS_4ExprEi@Base 2.4.1
 _ZN4CVC315TheoryBitvector12check_linearERKNS_4ExprE@Base 2.4.1
 _ZN4CVC315TheoryBitvector12computeModelERKNS_4ExprERSt6vectorIS1_SaIS1_EE@Base 2.4.1
 _ZN4CVC315TheoryBitvector12extract_varsERKNS_4ExprERSt6vectorIS1_SaIS1_EE@Base 2.4.1
 _ZN4CVC315TheoryBitvector12getExtractHiERKNS_4ExprE@Base 2.4.1
 _ZN4CVC315TheoryBitvector12isLinearTermERKNS_4ExprE@Base 2.4.1
 _ZN4CVC315TheoryBitvector12newBVAndExprERKNS_4ExprES3_@Base 2.4.1
 _ZN4CVC315TheoryBitvector12newBVAndExprERKSt6vectorINS_4ExprESaIS2_EE@Base 2.4.1
 _ZN4CVC315TheoryBitvector12newBVNegExprERKNS_4ExprE@Base 2.4.1
 _ZN4CVC315TheoryBitvector12newBVNorExprERKNS_4ExprES3_@Base 2.4.1
 _ZN4CVC315TheoryBitvector12newBVSLEExprERKNS_4ExprES3_@Base 2.4.1
 _ZN4CVC315TheoryBitvector12newBVSLTExprERKNS_4ExprES3_@Base 2.4.1
 _ZN4CVC315TheoryBitvector12newBVSubExprERKNS_4ExprES3_@Base 2.4.1
 _ZN4CVC315TheoryBitvector12newBVXorExprERKNS_4ExprES3_@Base 2.4.1
 _ZN4CVC315TheoryBitvector12newBVXorExprERKSt6vectorINS_4ExprESaIS2_EE@Base 2.4.1
 _ZN4CVC315TheoryBitvector12pushNegationERKNS_4ExprE@Base 2.4.1
 _ZN4CVC315TheoryBitvector13addSharedTermERKNS_4ExprE@Base 2.4.1
 _ZN4CVC315TheoryBitvector13bitBlastIneqnERKNS_4ExprE@Base 2.4.1
 _ZN4CVC315TheoryBitvector13getExtractLowERKNS_4ExprE@Base 2.4.1
 _ZN4CVC315TheoryBitvector13newBVCompExprERKNS_4ExprES3_@Base 2.4.1
 _ZN4CVC315TheoryBitvector13newBVMultExprEiRKNS_4ExprES3_@Base 2.4.1
 _ZN4CVC315TheoryBitvector13newBVMultExprEiRKSt6vectorINS_4ExprESaIS2_EE@Base 2.4.1
 _ZN4CVC315TheoryBitvector13newBVNandExprERKNS_4ExprES3_@Base 2.4.1
 _ZN4CVC315TheoryBitvector13newBVPlusExprEiRKNS_4ExprES3_@Base 2.4.1
 _ZN4CVC315TheoryBitvector13newBVPlusExprEiRKSt6vectorINS_4ExprESaIS2_EE@Base 2.4.1
 _ZN4CVC315TheoryBitvector13newBVSDivExprERKNS_4ExprES3_@Base 2.4.1
 _ZN4CVC315TheoryBitvector13newBVSModExprERKNS_4ExprES3_@Base 2.4.1
 _ZN4CVC315TheoryBitvector13newBVSRemExprERKNS_4ExprES3_@Base 2.4.1
 _ZN4CVC315TheoryBitvector13newBVUDivExprERKNS_4ExprES3_@Base 2.4.1
 _ZN4CVC315TheoryBitvector13newBVURemExprERKNS_4ExprES3_@Base 2.4.1
 _ZN4CVC315TheoryBitvector13newBVXnorExprERKNS_4ExprES3_@Base 2.4.1
 _ZN4CVC315TheoryBitvector13newBVXnorExprERKSt6vectorINS_4ExprESaIS2_EE@Base 2.4.1
 _ZN4CVC315TheoryBitvector13newConcatExprERKNS_4ExprES3_@Base 2.4.1
 _ZN4CVC315TheoryBitvector13newConcatExprERKNS_4ExprES3_S3_@Base 2.4.1
 _ZN4CVC315TheoryBitvector13newConcatExprERKSt6vectorINS_4ExprESaIS2_EE@Base 2.4.1
 _ZN4CVC315TheoryBitvector13rewriteAtomicERKNS_4ExprE@Base 2.4.1
 _ZN4CVC315TheoryBitvector14assertTypePredERKNS_4ExprERKNS_7TheoremE@Base 2.4.1
 _ZN4CVC315TheoryBitvector14bitBlastDisEqnERKNS_7TheoremE@Base 2.4.1
 _ZN4CVC315TheoryBitvector14computeBVConstERKNS_4ExprE@Base 2.4.1
 _ZN4CVC315TheoryBitvector14finiteTypeInfoERNS_4ExprERNS_8UnsignedEbb@Base 2.4.1
 _ZN4CVC315TheoryBitvector14getBVConstSizeERKNS_4ExprE@Base 2.4.1
 _ZN4CVC315TheoryBitvector14getBVMultParamERKNS_4ExprE@Base 2.4.1
 _ZN4CVC315TheoryBitvector14getBVPlusParamERKNS_4ExprE@Base 2.4.1
 _ZN4CVC315TheoryBitvector14multiply_coeffENS_8RationalERKNS_4ExprE@Base 2.4.1
 _ZN4CVC315TheoryBitvector14newBVConstExprERKNS_8RationalEi@Base 2.4.1
 _ZN4CVC315TheoryBitvector14newBVConstExprERKSsi@Base 2.4.1
 _ZN4CVC315TheoryBitvector14newBVConstExprERKSt6vectorIbSaIbEE@Base 2.4.1
 _ZN4CVC315TheoryBitvector14newBVIndexExprEiRKNS_4ExprEi@Base 2.4.1
 _ZN4CVC315TheoryBitvector14newBVOneStringEi@Base 2.4.1
 _ZN4CVC315TheoryBitvector14rewriteBooleanERKNS_4ExprE@Base 2.4.1
 _ZN4CVC315TheoryBitvector14updateSubtermsERKNS_4ExprE@Base 2.4.1
 _ZN4CVC315TheoryBitvector15computeTypePredERKNS_4TypeERKNS_4ExprE@Base 2.4.1
 _ZN4CVC315TheoryBitvector15generalBitBlastERKNS_7TheoremE@Base 2.4.1
 _ZN4CVC315TheoryBitvector15getBVConstValueERKNS_4ExprEi@Base 2.4.1
 _ZN4CVC315TheoryBitvector15getTypePredExprERKNS_4ExprE@Base 2.4.1
 _ZN4CVC315TheoryBitvector15getTypePredTypeERKNS_4ExprE@Base 2.4.1
 _ZN4CVC315TheoryBitvector15newBVUminusExprERKNS_4ExprE@Base 2.4.1
 _ZN4CVC315TheoryBitvector15newBVZeroStringEi@Base 2.4.1
 _ZN4CVC315TheoryBitvector15pushNegationRecERKNS_4ExprE@Base 2.4.1
 _ZN4CVC315TheoryBitvector16computeModelTermERKNS_4ExprERSt6vectorIS1_SaIS1_EE@Base 2.4.1
 _ZN4CVC315TheoryBitvector16createProofRulesEv@Base 2.4.1
 _ZN4CVC315TheoryBitvector16newBVExtractExprERKNS_4ExprEii@Base 2.4.1
 _ZN4CVC315TheoryBitvector16newBVMultPadExprEiRKNS_4ExprES3_@Base 2.4.1
 _ZN4CVC315TheoryBitvector16newBVMultPadExprEiRKSt6vectorINS_4ExprESaIS2_EE@Base 2.4.1
 _ZN4CVC315TheoryBitvector16newBVPlusPadExprEiRKSt6vectorINS_4ExprESaIS2_EE@Base 2.4.1
 _ZN4CVC315TheoryBitvector16newBitvectorTypeEi@Base 2.4.1
 _ZN4CVC315TheoryBitvector17computeNegBVConstERKNS_4ExprE@Base 2.4.1
 _ZN4CVC315TheoryBitvector17printSmtLibSharedERNS_10ExprStreamERKNS_4ExprE@Base 2.4.1
 _ZN4CVC315TheoryBitvector17simplifyPendingEqERKNS_7TheoremEi@Base 2.4.1
 _ZN4CVC315TheoryBitvector18newBoolExtractExprERKNS_4ExprEi@Base 2.4.1
 _ZN4CVC315TheoryBitvector19getBoolExtractIndexERKNS_4ExprE@Base 2.4.1
 _ZN4CVC315TheoryBitvector20newBitvectorTypeExprEi@Base 2.4.1
 _ZN4CVC315TheoryBitvector20newBitvectorTypePredERKNS_4TypeERKNS_4ExprE@Base 2.4.1
 _ZN4CVC315TheoryBitvector21getBitvectorTypeParamERKNS_4ExprE@Base 2.4.1
 _ZN4CVC315TheoryBitvector21newFixedLeftShiftExprERKNS_4ExprEi@Base 2.4.1
 _ZN4CVC315TheoryBitvector21signed_newBVConstExprENS_8RationalEi@Base 2.4.1
 _ZN4CVC315TheoryBitvector22getFixedLeftShiftParamERKNS_4ExprE@Base 2.4.1
 _ZN4CVC315TheoryBitvector22multiplicative_inverseENS_8RationalEi@Base 2.4.1
 _ZN4CVC315TheoryBitvector22newFixedRightShiftExprERKNS_4ExprEi@Base 2.4.1
 _ZN4CVC315TheoryBitvector23getFixedRightShiftParamERKNS_4ExprE@Base 2.4.1
 _ZN4CVC315TheoryBitvector31newFixedConstWidthLeftShiftExprERKNS_4ExprEi@Base 2.4.1
 _ZN4CVC315TheoryBitvector3padEiRKNS_4ExprE@Base 2.4.1
 _ZN4CVC315TheoryBitvector5printERNS_10ExprStreamERKNS_4ExprE@Base 2.4.1
 _ZN4CVC315TheoryBitvector5setupERKNS_4ExprE@Base 2.4.1
 _ZN4CVC315TheoryBitvector5solveERKNS_7TheoremE@Base 2.4.1
 _ZN4CVC315TheoryBitvector6BVSizeERKNS_4ExprE@Base 2.4.1
 _ZN4CVC315TheoryBitvector6updateERKNS_7TheoremERKNS_4ExprE@Base 2.4.1
 _ZN4CVC315TheoryBitvector7rewriteERKNS_4ExprE@Base 2.4.1
 _ZN4CVC315TheoryBitvector8checkSatEb@Base 2.4.1
 _ZN4CVC315TheoryBitvector8isTermInERKNS_4ExprES3_@Base 2.4.1
 _ZN4CVC315TheoryBitvector9Odd_coeffERKNS_4ExprE@Base 2.4.1
 _ZN4CVC315TheoryBitvector9checkTypeERKNS_4ExprE@Base 2.4.1
 _ZN4CVC315TheoryBitvector9comparebvERKNS_4ExprES3_@Base 2.4.1
 _ZN4CVC315TheoryBitvector9newSXExprERKNS_4ExprEi@Base 2.4.1
 _ZN4CVC315TheoryBitvector9rewriteBVERKNS_4ExprERNS_7ExprMapINS_7TheoremEEEi@Base 2.4.1
 _ZN4CVC315TheoryBitvector9rewriteBVERKNS_4ExprEi@Base 2.4.1
 _ZN4CVC315TheoryBitvector9rewriteBVERKNS_7TheoremERNS_7ExprMapIS1_EEi@Base 2.4.1
 _ZN4CVC315TheoryBitvectorC1EPNS_10TheoryCoreE@Base 2.4.1
 _ZN4CVC315TheoryBitvectorC2EPNS_10TheoryCoreE@Base 2.4.1
 _ZN4CVC315TheoryBitvectorD0Ev@Base 2.4.1
 _ZN4CVC315TheoryBitvectorD1Ev@Base 2.4.1
 _ZN4CVC315TheoryBitvectorD2Ev@Base 2.4.1
 _ZN4CVC315ValidityChecker11createFlagsEv@Base 2.4.1
 _ZN4CVC315ValidityChecker6createERKNS_7CLFlagsE@Base 2.4.1
 _ZN4CVC315ValidityChecker6createEv@Base 2.4.1
 _ZN4CVC315VariableManager16newVariableValueERKNS_4ExprE@Base 2.4.1
 _ZN4CVC315VariableManager2gcEPNS_13VariableValueE@Base 2.4.1
 _ZN4CVC315VariableManager8resumeGCEv@Base 2.4.1
 _ZN4CVC315VariableManagerC1EPNS_14ContextManagerEPNS_17SearchEngineRulesERKSs@Base 2.4.1
 _ZN4CVC315VariableManagerC2EPNS_14ContextManagerEPNS_17SearchEngineRulesERKSs@Base 2.4.1
 _ZN4CVC315VariableManagerD1Ev@Base 2.4.1
 _ZN4CVC315VariableManagerD2Ev@Base 2.4.1
 _ZN4CVC316ContextNotifyObj6notifyEv@Base 2.4.1
 _ZN4CVC316ContextNotifyObj9getMemoryEi@Base 2.4.1
 _ZN4CVC316ContextNotifyObj9notifyPreEv@Base 2.4.1
 _ZN4CVC316ContextNotifyObjD0Ev@Base 2.4.1
 _ZN4CVC316ContextNotifyObjD1Ev@Base 2.4.1
 _ZN4CVC316ContextNotifyObjD2Ev@Base 2.4.1
 _ZN4CVC316SearchEngineFast10clearFactsEv@Base 2.4.1
 _ZN4CVC316SearchEngineFast10recordFactERKNS_7TheoremE@Base 2.4.1
 _ZN4CVC316SearchEngineFast11addSplitterERKNS_4ExprEi@Base 2.4.1
 _ZN4CVC316SearchEngineFast11analyzeUIPsERKNS_7TheoremEi@Base 2.4.1
 _ZN4CVC316SearchEngineFast11commitFactsEv@Base 2.4.1
 _ZN4CVC316SearchEngineFast11enqueueFactERKNS_7TheoremE@Base 2.4.1
 _ZN4CVC316SearchEngineFast11fixConflictEv@Base 2.4.1
 _ZN4CVC316SearchEngineFast12addNewClauseERNS_6ClauseE@Base 2.4.1
 _ZN4CVC316SearchEngineFast12findSplitterEv@Base 2.4.1
 _ZN4CVC316SearchEngineFast12isAssumptionERKNS_4ExprE@Base 2.4.1
 _ZN4CVC316SearchEngineFast13clearLiteralsEv@Base 2.4.1
 _ZN4CVC316SearchEngineFast13traceConflictERKNS_7TheoremE@Base 2.4.1
 _ZN4CVC316SearchEngineFast14addLiteralFactERKNS_7TheoremE@Base 2.4.1
 _ZN4CVC316SearchEngineFast14checkValidMainERKNS_4ExprE@Base 2.4.1
 _ZN4CVC316SearchEngineFast15restartInternalERKNS_4ExprE@Base 2.4.1
 _ZN4CVC316SearchEngineFast15setInconsistentERKNS_7TheoremE@Base 2.4.1
 _ZN4CVC316SearchEngineFast15unitPropagationERKNS_6ClauseEj@Base 2.4.1
 _ZN4CVC316SearchEngineFast15updateLitCountsERKNS_6ClauseE@Base 2.4.1
 _ZN4CVC316SearchEngineFast15updateLitScoresEb@Base 2.4.1
 _ZN4CVC316SearchEngineFast16newIntAssumptionERKNS_4ExprE@Base 2.4.1
 _ZN4CVC316SearchEngineFast17addNonLiteralFactERKNS_7TheoremE@Base 2.4.1
 _ZN4CVC316SearchEngineFast17getCounterExampleERSt6vectorINS_4ExprESaIS2_EE@Base 2.4.1
 _ZN4CVC316SearchEngineFast18checkValidInternalERKNS_4ExprE@Base 2.4.1
 _ZN4CVC316SearchEngineFast21ConflictClauseManager15setRestorePointEv@Base 2.4.1
 _ZN4CVC316SearchEngineFast21ConflictClauseManager6notifyEv@Base 2.4.1
 _ZN4CVC316SearchEngineFast21ConflictClauseManagerD0Ev@Base 2.4.1
 _ZN4CVC316SearchEngineFast21ConflictClauseManagerD1Ev@Base 2.4.1
 _ZN4CVC316SearchEngineFast21ConflictClauseManagerD2Ev@Base 2.4.1
 _ZN4CVC316SearchEngineFast2wpERKNS_7LiteralE@Base 2.4.1
 _ZN4CVC316SearchEngineFast3bcpEv@Base 2.4.1
 _ZN4CVC316SearchEngineFast5splitEv@Base 2.4.1
 _ZN4CVC316SearchEngineFast7getNameEv@Base 2.4.1
 _ZN4CVC316SearchEngineFast8checkSATEv@Base 2.4.1
 _ZN4CVC316SearchEngineFast9propagateERKNS_6ClauseEiRb@Base 2.4.1
 _ZN4CVC316SearchEngineFastC1EPNS_10TheoryCoreE@Base 2.4.1
 _ZN4CVC316SearchEngineFastC2EPNS_10TheoryCoreE@Base 2.4.1
 _ZN4CVC316SearchEngineFastD0Ev@Base 2.4.1
 _ZN4CVC316SearchEngineFastD1Ev@Base 2.4.1
 _ZN4CVC316SearchEngineFastD2Ev@Base 2.4.1
 _ZN4CVC316SearchSatDecider12makeDecisionEv@Base 2.4.1
 _ZN4CVC316SearchSatDeciderD0Ev@Base 2.4.1
 _ZN4CVC316SearchSatDeciderD1Ev@Base 2.4.1
 _ZN4CVC316SearchSatDeciderD2Ev@Base 2.4.1
 _ZN4CVC316TypeComputerCore11computeTypeERKNS_4ExprE@Base 2.4.1
 _ZN4CVC316TypeComputerCore14finiteTypeInfoERNS_4ExprERNS_8UnsignedEbb@Base 2.4.1
 _ZN4CVC316TypeComputerCore9checkTypeERKNS_4ExprE@Base 2.4.1
 _ZN4CVC316TypeComputerCoreD0Ev@Base 2.4.1
 _ZN4CVC316TypeComputerCoreD1Ev@Base 2.4.1
 _ZN4CVC316TypeComputerCoreD2Ev@Base 2.4.1
 _ZN4CVC317DecisionEngineDFS12findSplitterERKNS_4ExprE@Base 2.4.1
 _ZN4CVC317DecisionEngineDFS13goalSatisfiedEv@Base 2.4.1
 _ZN4CVC317DecisionEngineDFS8isBetterERKNS_4ExprES3_@Base 2.4.1
 _ZN4CVC317DecisionEngineDFSC1EPNS_10TheoryCoreEPNS_14SearchImplBaseE@Base 2.4.1
 _ZN4CVC317DecisionEngineDFSC2EPNS_10TheoryCoreEPNS_14SearchImplBaseE@Base 2.4.1
 _ZN4CVC317DecisionEngineDFSD0Ev@Base 2.4.1
 _ZN4CVC317DecisionEngineDFSD1Ev@Base 2.4.1
 _ZN4CVC317DecisionEngineDFSD2Ev@Base 2.4.1
 _ZN4CVC317PrettyPrinterCore5printERNS_10ExprStreamERKNS_4ExprE@Base 2.4.1
 _ZN4CVC317PrettyPrinterCoreD0Ev@Base 2.4.1
 _ZN4CVC317PrettyPrinterCoreD1Ev@Base 2.4.1
 _ZN4CVC317PrettyPrinterCoreD2Ev@Base 2.4.1
 _ZN4CVC317UFTheoremProducer11applyLambdaERKNS_4ExprE@Base 2.4.1
 _ZN4CVC317UFTheoremProducer12relToClosureERKNS_7TheoremE@Base 2.4.1
 _ZN4CVC317UFTheoremProducer12rewriteOpDefERKNS_4ExprE@Base 2.4.1
 _ZN4CVC317UFTheoremProducer8relTransERKNS_7TheoremES3_@Base 2.4.1
 _ZN4CVC317UFTheoremProducerD0Ev@Base 2.4.1
 _ZN4CVC317UFTheoremProducerD1Ev@Base 2.4.1
 _ZN4CVC317UFTheoremProducerD2Ev@Base 2.4.1
 _ZN4CVC318SearchSatTheoryAPI13getNewClausesERN3SAT11CNF_FormulaE@Base 2.4.1
 _ZN4CVC318SearchSatTheoryAPI14getExplanationEN3SAT3LitERNS1_11CNF_FormulaE@Base 2.4.1
 _ZN4CVC318SearchSatTheoryAPI14getImplicationEv@Base 2.4.1
 _ZN4CVC318SearchSatTheoryAPI14outOfResourcesEv@Base 2.4.1
 _ZN4CVC318SearchSatTheoryAPI15checkConsistentERN3SAT11CNF_FormulaEb@Base 2.4.1
 _ZN4CVC318SearchSatTheoryAPI3popEv@Base 2.4.1
 _ZN4CVC318SearchSatTheoryAPI4pushEv@Base 2.4.1
 _ZN4CVC318SearchSatTheoryAPI9assertLitEN3SAT3LitE@Base 2.4.1
 _ZN4CVC318SearchSatTheoryAPID0Ev@Base 2.4.1
 _ZN4CVC318SearchSatTheoryAPID1Ev@Base 2.4.1
 _ZN4CVC318SearchSatTheoryAPID2Ev@Base 2.4.1
 _ZN4CVC318TheoryDatatypeLazy11instantiateERKNS_4ExprERKNS_8UnsignedE@Base 2.4.1
 _ZN4CVC318TheoryDatatypeLazy11mergeLabelsERKNS_7TheoremERKNS_4ExprES6_@Base 2.4.1
 _ZN4CVC318TheoryDatatypeLazy11mergeLabelsERKNS_7TheoremERKNS_4ExprEjb@Base 2.4.1
 _ZN4CVC318TheoryDatatypeLazy16initializeLabelsERKNS_4ExprERKNS_4TypeE@Base 2.4.1
 _ZN4CVC318TheoryDatatypeLazy5setupERKNS_4ExprE@Base 2.4.1
 _ZN4CVC318TheoryDatatypeLazy6updateERKNS_7TheoremERKNS_4ExprE@Base 2.4.1
 _ZN4CVC318TheoryDatatypeLazy8checkSatEb@Base 2.4.1
 _ZN4CVC318TheoryDatatypeLazyC1EPNS_10TheoryCoreE@Base 2.4.1
 _ZN4CVC318TheoryDatatypeLazyC2EPNS_10TheoryCoreE@Base 2.4.1
 _ZN4CVC318TheoryDatatypeLazyD0Ev@Base 2.4.1
 _ZN4CVC318TheoryDatatypeLazyD1Ev@Base 2.4.1
 _ZN4CVC318TheoryDatatypeLazyD2Ev@Base 2.4.1
 _ZN4CVC318TypecheckExceptionD0Ev@Base 2.4.1
 _ZN4CVC318TypecheckExceptionD1Ev@Base 2.4.1
 _ZN4CVC318TypecheckExceptionD2Ev@Base 2.4.1
 _ZN4CVC319CNF_TheoremProducer10CNFAddUnitERKNS_7TheoremE@Base 2.4.1
 _ZN4CVC319CNF_TheoremProducer10CNFConvertERKNS_4ExprERKNS_7TheoremE@Base 2.4.1
 _ZN4CVC319CNF_TheoremProducer10ifLiftRuleERKNS_4ExprEi@Base 2.4.1
 _ZN4CVC319CNF_TheoremProducer12CNFtranslateERKNS_4ExprES3_SsiRKSt6vectorINS_7TheoremESaIS5_EE@Base 2.4.1
 _ZN4CVC319CNF_TheoremProducer14learnedClausesERKNS_7TheoremERSt6vectorIS1_SaIS1_EEb@Base 2.4.1
 _ZN4CVC319CNF_TheoremProducer15CNFITEtranslateERKNS_4ExprERKSt6vectorIS1_SaIS1_EERKS4_INS_7TheoremESaIS9_EEi@Base 2.4.1
 _ZN4CVC319CNF_TheoremProducer15getSmartClausesERKNS_7TheoremERSt6vectorIS1_SaIS1_EE@Base 2.4.1
 _ZN4CVC319CNF_TheoremProducerD0Ev@Base 2.4.1
 _ZN4CVC319CNF_TheoremProducerD1Ev@Base 2.4.1
 _ZN4CVC319CNF_TheoremProducerD2Ev@Base 2.4.1
 _ZN4CVC319CoreSatAPI_implBase11addSplitterERKNS_4ExprEi@Base 2.4.1
 _ZN4CVC319CoreSatAPI_implBase13addAssumptionERKNS_4ExprE@Base 2.4.1
 _ZN4CVC319CoreSatAPI_implBase5checkERKNS_4ExprE@Base 2.4.1
 _ZN4CVC319CoreSatAPI_implBase8addLemmaERKNS_7TheoremEib@Base 2.4.1
 _ZN4CVC319CoreSatAPI_implBaseD0Ev@Base 2.4.1
 _ZN4CVC319CoreSatAPI_implBaseD1Ev@Base 2.4.1
 _ZN4CVC319CoreSatAPI_implBaseD2Ev@Base 2.4.1
 _ZN4CVC319CoreTheoremProducer12dummyTheoremERKNS_4ExprE@Base 2.4.1
 _ZN4CVC319CoreTheoremProducer12iffOrDistribERKNS_4ExprE@Base 2.4.1
 _ZN4CVC319CoreTheoremProducer12rewriteNotOrERKNS_4ExprE@Base 2.4.1
 _ZN4CVC319CoreTheoremProducer13iffAndDistribERKNS_4ExprE@Base 2.4.1
 _ZN4CVC319CoreTheoremProducer13rewriteNotAndERKNS_4ExprE@Base 2.4.1
 _ZN4CVC319CoreTheoremProducer13rewriteNotIffERKNS_4ExprE@Base 2.4.1
 _ZN4CVC319CoreTheoremProducer13rewriteNotIteERKNS_4ExprE@Base 2.4.1
 _ZN4CVC319CoreTheoremProducer14rewriteImpliesERKNS_4ExprE@Base 2.4.1
 _ZN4CVC319CoreTheoremProducer14rewriteIteBoolERKNS_4ExprES3_S3_@Base 2.4.1
 _ZN4CVC319CoreTheoremProducer14rewriteIteCondERKNS_4ExprE@Base 2.4.1
 _ZN4CVC319CoreTheoremProducer14rewriteIteElseERKNS_4ExprERKNS_7TheoremE@Base 2.4.1
 _ZN4CVC319CoreTheoremProducer14rewriteIteThenERKNS_4ExprERKNS_7TheoremE@Base 2.4.1
 _ZN4CVC319CoreTheoremProducer14rewriteIteToOrERKNS_4ExprE@Base 2.4.1
 _ZN4CVC319CoreTheoremProducer14rewriteLetDeclERKNS_4ExprE@Base 2.4.1
 _ZN4CVC319CoreTheoremProducer15ifLiftUnaryRuleERKNS_4ExprE@Base 2.4.1
 _ZN4CVC319CoreTheoremProducer15rewriteDistinctERKNS_4ExprE@Base 2.4.1
 _ZN4CVC319CoreTheoremProducer15rewriteIteToAndERKNS_4ExprE@Base 2.4.1
 _ZN4CVC319CoreTheoremProducer15rewriteIteToIffERKNS_4ExprE@Base 2.4.1
 _ZN4CVC319CoreTheoremProducer15rewriteIteToImpERKNS_4ExprE@Base 2.4.1
 _ZN4CVC319CoreTheoremProducer15rewriteIteToNotERKNS_4ExprE@Base 2.4.1
 _ZN4CVC319CoreTheoremProducer17rewriteOrSubtermsERKNS_4ExprEi@Base 2.4.1
 _ZN4CVC319CoreTheoremProducer18rewriteAndSubtermsERKNS_4ExprEi@Base 2.4.1
 _ZN4CVC319CoreTheoremProducer20orDistributivityRuleERKNS_4ExprE@Base 2.4.1
 _ZN4CVC319CoreTheoremProducer21andDistributivityRuleERKNS_4ExprE@Base 2.4.1
 _ZN4CVC319CoreTheoremProducer7OrToIteERKNS_4ExprE@Base 2.4.1
 _ZN4CVC319CoreTheoremProducer8AndToIteERKNS_4ExprE@Base 2.4.1
 _ZN4CVC319CoreTheoremProducer8IffToIteERKNS_4ExprE@Base 2.4.1
 _ZN4CVC319CoreTheoremProducer8ImpToIteERKNS_4ExprE@Base 2.4.1
 _ZN4CVC319CoreTheoremProducer8NotToIteERKNS_4ExprE@Base 2.4.1
 _ZN4CVC319CoreTheoremProducer8typePredERKNS_4ExprE@Base 2.4.1
 _ZN4CVC319CoreTheoremProducerD0Ev@Base 2.4.1
 _ZN4CVC319CoreTheoremProducerD1Ev@Base 2.4.1
 _ZN4CVC319CoreTheoremProducerD2Ev@Base 2.4.1
 _ZN4CVC319MemoryManagerChunks10deleteDataEPv@Base 2.4.1
 _ZN4CVC319MemoryManagerChunks7newDataEm@Base 2.4.1
 _ZN4CVC319MemoryManagerChunksD0Ev@Base 2.4.1
 _ZN4CVC319MemoryManagerChunksD1Ev@Base 2.4.1
 _ZN4CVC319MemoryManagerChunksD2Ev@Base 2.4.1
 _ZN4CVC319MemoryManagerMalloc10deleteDataEPv@Base 2.4.1
 _ZN4CVC319MemoryManagerMalloc7newDataEm@Base 2.4.1
 _ZN4CVC319MemoryManagerMallocD0Ev@Base 2.4.1
 _ZN4CVC319MemoryManagerMallocD1Ev@Base 2.4.1
 _ZN4CVC319MemoryManagerMallocD2Ev@Base 2.4.1
 _ZN4CVC319SearchSatCoreSatAPI11addSplitterERKNS_4ExprEi@Base 2.4.1
 _ZN4CVC319SearchSatCoreSatAPI13addAssumptionERKNS_4ExprE@Base 2.4.1
 _ZN4CVC319SearchSatCoreSatAPI5checkERKNS_4ExprE@Base 2.4.1
 _ZN4CVC319SearchSatCoreSatAPI8addLemmaERKNS_7TheoremEib@Base 2.4.1
 _ZN4CVC319SearchSatCoreSatAPID0Ev@Base 2.4.1
 _ZN4CVC319SearchSatCoreSatAPID1Ev@Base 2.4.1
 _ZN4CVC319SearchSatCoreSatAPID2Ev@Base 2.4.1
 _ZN4CVC320ArithTheoremProducer10isIntConstERKNS_4ExprE@Base 2.4.1
 _ZN4CVC320ArithTheoremProducer10multEqZeroERKNS_4ExprE@Base 2.4.1
 _ZN4CVC320ArithTheoremProducer10powerOfOneERKNS_4ExprE@Base 2.4.1
 _ZN4CVC320ArithTheoremProducer10realShadowERKNS_7TheoremES3_@Base 2.4.1
 _ZN4CVC320ArithTheoremProducer10substituteERKNS_4ExprERNS_7ExprMapIS1_EE@Base 2.4.1
 _ZN4CVC320ArithTheoremProducer11canonDivideERKNS_4ExprE@Base 2.4.1
 _ZN4CVC320ArithTheoremProducer11canonInvertERKNS_4ExprE@Base 2.4.1
 _ZN4CVC320ArithTheoremProducer11diseqToIneqERKNS_7TheoremE@Base 2.4.1
 _ZN4CVC320ArithTheoremProducer11greaterthanERKNS_4ExprES3_@Base 2.4.1
 _ZN4CVC320ArithTheoremProducer11minusToPlusERKNS_4ExprES3_@Base 2.4.1
 _ZN4CVC320ArithTheoremProducer12canonMultOneERKNS_4ExprE@Base 2.4.1
 _ZN4CVC320ArithTheoremProducer12dummyTheoremERKNS_4ExprE@Base 2.4.1
 _ZN4CVC320ArithTheoremProducer12equalLeaves1ERKNS_7TheoremE@Base 2.4.1
 _ZN4CVC320ArithTheoremProducer12equalLeaves2ERKNS_7TheoremE@Base 2.4.1
 _ZN4CVC320ArithTheoremProducer12equalLeaves3ERKNS_7TheoremE@Base 2.4.1
 _ZN4CVC320ArithTheoremProducer12equalLeaves4ERKNS_7TheoremE@Base 2.4.1
 _ZN4CVC320ArithTheoremProducer12integerSplitERKNS_4ExprERKNS_8RationalE@Base 2.4.1
 _ZN4CVC320ArithTheoremProducer12lessThanToLEERKNS_7TheoremES3_S3_b@Base 2.4.1
 _ZN4CVC320ArithTheoremProducer12monomialModMERKNS_4ExprERKNS_8RationalES6_@Base 2.4.1
 _ZN4CVC320ArithTheoremProducer12monomialMulFERKNS_4ExprERKNS_8RationalES6_@Base 2.4.1
 _ZN4CVC320ArithTheoremProducer12realShadowEqERKNS_7TheoremES3_@Base 2.4.1
 _ZN4CVC320ArithTheoremProducer12uMinusToMultERKNS_4ExprE@Base 2.4.1
 _ZN4CVC320ArithTheoremProducer13IsIntegerElimERKNS_7TheoremE@Base 2.4.1
 _ZN4CVC320ArithTheoremProducer13canonMultZeroERKNS_4ExprE@Base 2.4.1
 _ZN4CVC320ArithTheoremProducer13canonPowConstERKNS_4ExprE@Base 2.4.1
 _ZN4CVC320ArithTheoremProducer13cycleConflictERKSt6vectorINS_7TheoremESaIS2_EE@Base 2.4.1
 _ZN4CVC320ArithTheoremProducer13eqElimIntRuleERKNS_7TheoremES3_RKSt6vectorIS1_SaIS1_EE@Base 2.4.1
 _ZN4CVC320ArithTheoremProducer13plusPredicateERKNS_4ExprES3_S3_i@Base 2.4.1
 _ZN4CVC320ArithTheoremProducer13simpleIneqIntERKNS_4ExprERKNS_7TheoremE@Base 2.4.1
 _ZN4CVC320ArithTheoremProducer14canonDivideVarERKNS_4ExprES3_@Base 2.4.1
 _ZN4CVC320ArithTheoremProducer14canonInvertPowERKNS_4ExprE@Base 2.4.1
 _ZN4CVC320ArithTheoremProducer14clashingBoundsERKNS_7TheoremES3_@Base 2.4.1
 _ZN4CVC320ArithTheoremProducer14constPredicateERKNS_4ExprE@Base 2.4.1
 _ZN4CVC320ArithTheoremProducer14elimPowerConstERKNS_4ExprERKNS_8RationalE@Base 2.4.1
 _ZN4CVC320ArithTheoremProducer14finiteIntervalERKNS_7TheoremES3_S3_S3_@Base 2.4.1
 _ZN4CVC320ArithTheoremProducer14flipInequalityERKNS_4ExprE@Base 2.4.1
 _ZN4CVC320ArithTheoremProducer14intVarEqnConstERKNS_4ExprERKNS_7TheoremE@Base 2.4.1
 _ZN4CVC320ArithTheoremProducer14leftMinusRightERKNS_4ExprE@Base 2.4.1
 _ZN4CVC320ArithTheoremProducer14oneEliminationERKNS_4ExprE@Base 2.4.1
 _ZN4CVC320ArithTheoremProducer14rightMinusLeftERKNS_4ExprE@Base 2.4.1
 _ZN4CVC320ArithTheoremProducer14trustedRewriteERKNS_4ExprES3_@Base 2.4.1
 _ZN4CVC320ArithTheoremProducer15addInequalitiesERKNS_7TheoremES3_@Base 2.4.1
 _ZN4CVC320ArithTheoremProducer15addInequalitiesERKSt6vectorINS_7TheoremESaIS2_EE@Base 2.4.1
 _ZN4CVC320ArithTheoremProducer15canonDivideMultERKNS_4ExprES3_@Base 2.4.1
 _ZN4CVC320ArithTheoremProducer15canonDividePlusERKNS_4ExprES3_@Base 2.4.1
 _ZN4CVC320ArithTheoremProducer15canonFlattenSumERKNS_4ExprE@Base 2.4.1
 _ZN4CVC320ArithTheoremProducer15canonInvertLeafERKNS_4ExprE@Base 2.4.1
 _ZN4CVC320ArithTheoremProducer15canonInvertMultERKNS_4ExprE@Base 2.4.1
 _ZN4CVC320ArithTheoremProducer15canonMultPowPowERKNS_4ExprES3_@Base 2.4.1
 _ZN4CVC320ArithTheoremProducer15grayShadowConstERKNS_7TheoremE@Base 2.4.1
 _ZN4CVC320ArithTheoremProducer15implyEqualitiesERKSt6vectorINS_7TheoremESaIS2_EE@Base 2.4.1
 _ZN4CVC320ArithTheoremProducer15intEqIrrationalERKNS_4ExprERKNS_7TheoremE@Base 2.4.1
 _ZN4CVC320ArithTheoremProducer15splitGrayShadowERKNS_7TheoremE@Base 2.4.1
 _ZN4CVC320ArithTheoremProducer16canonDivideConstERKNS_4ExprES3_@Base 2.4.1
 _ZN4CVC320ArithTheoremProducer16canonInvertConstERKNS_4ExprE@Base 2.4.1
 _ZN4CVC320ArithTheoremProducer16canonMultPowLeafERKNS_4ExprES3_@Base 2.4.1
 _ZN4CVC320ArithTheoremProducer16expandDarkShadowERKNS_7TheoremE@Base 2.4.1
 _ZN4CVC320ArithTheoremProducer16expandGrayShadowERKNS_7TheoremE@Base 2.4.1
 _ZN4CVC320ArithTheoremProducer17canonMultConstSumERKNS_4ExprES3_@Base 2.4.1
 _ZN4CVC320ArithTheoremProducer17canonMultLeafLeafERKNS_4ExprES3_@Base 2.4.1
 _ZN4CVC320ArithTheoremProducer17canonMultPlusPlusERKNS_4ExprES3_@Base 2.4.1
 _ZN4CVC320ArithTheoremProducer17darkGrayShadow2abERKNS_7TheoremES3_S3_S3_S3_@Base 2.4.1
 _ZN4CVC320ArithTheoremProducer17darkGrayShadow2baERKNS_7TheoremES3_S3_S3_S3_@Base 2.4.1
 _ZN4CVC320ArithTheoremProducer17divideEqnNonConstERKNS_4ExprES3_S3_@Base 2.4.1
 _ZN4CVC320ArithTheoremProducer17expandGrayShadow0ERKNS_7TheoremE@Base 2.4.1
 _ZN4CVC320ArithTheoremProducer17negatedInequalityERKNS_4ExprE@Base 2.4.1
 _ZN4CVC320ArithTheoremProducer18canonMultConstMultERKNS_4ExprES3_@Base 2.4.1
 _ZN4CVC320ArithTheoremProducer18canonMultConstPlusERKNS_4ExprES3_@Base 2.4.1
 _ZN4CVC320ArithTheoremProducer18canonMultConstTermERKNS_4ExprES3_S3_@Base 2.4.1
 _ZN4CVC320ArithTheoremProducer18canonMultTermConstERKNS_4ExprES3_@Base 2.4.1
 _ZN4CVC320ArithTheoremProducer18constRHSGrayShadowERKNS_8RationalES3_S3_@Base 2.4.1
 _ZN4CVC320ArithTheoremProducer18simplifiedMultExprERSt6vectorINS_4ExprESaIS2_EE@Base 2.4.1
 _ZN4CVC320ArithTheoremProducer19canonComboLikeTermsERKNS_4ExprE@Base 2.4.1
 _ZN4CVC320ArithTheoremProducer19canonMultConstConstERKNS_4ExprES3_@Base 2.4.1
 _ZN4CVC320ArithTheoremProducer19canonMultMtermMtermERKNS_4ExprE@Base 2.4.1
 _ZN4CVC320ArithTheoremProducer19canonMultTerm1Term2ERKNS_4ExprES3_@Base 2.4.1
 _ZN4CVC320ArithTheoremProducer19canonUMinusToDivideERKNS_4ExprE@Base 2.4.1
 _ZN4CVC320ArithTheoremProducer19evenPowerEqNegConstERKNS_4ExprE@Base 2.4.1
 _ZN4CVC320ArithTheoremProducer19lessThanToLERewriteERKNS_4ExprERKNS_7TheoremES6_b@Base 2.4.1
 _ZN4CVC320ArithTheoremProducer19rafineStrictIntegerERKNS_7TheoremERKNS_4ExprE@Base 2.4.1
 _ZN4CVC320ArithTheoremProducer1fERKNS_8RationalES3_@Base 2.4.1
 _ZN4CVC320ArithTheoremProducer20compactNonLinearTermERKNS_4ExprE@Base 2.4.1
 _ZN4CVC320ArithTheoremProducer20moveSumConstantRightERKNS_4ExprE@Base 2.4.1
 _ZN4CVC320ArithTheoremProducer20splitGrayShadowSmallERKNS_7TheoremE@Base 2.4.1
 _ZN4CVC320ArithTheoremProducer21canonCombineLikeTermsERKSt6vectorINS_4ExprESaIS2_EE@Base 2.4.1
 _ZN4CVC320ArithTheoremProducer21expandGrayShadowConstERKNS_7TheoremE@Base 2.4.1
 _ZN4CVC320ArithTheoremProducer21implyWeakerInequalityERKNS_4ExprES3_@Base 2.4.1
 _ZN4CVC320ArithTheoremProducer22canonMultLeafOrPowMultERKNS_4ExprES3_@Base 2.4.1
 _ZN4CVC320ArithTheoremProducer22implyNegatedInequalityERKNS_4ExprES3_@Base 2.4.1
 _ZN4CVC320ArithTheoremProducer22nonLinearIneqSignSplitERKNS_7TheoremE@Base 2.4.1
 _ZN4CVC320ArithTheoremProducer23expandGrayShadowRewriteERKNS_4ExprE@Base 2.4.1
 _ZN4CVC320ArithTheoremProducer24implyDiffLogicBothBoundsERKNS_4ExprERSt6vectorINS_7TheoremESaIS5_EENS_8RationalES8_S9_@Base 2.4.1
 _ZN4CVC320ArithTheoremProducer27intEqualityRationalConstantERKNS_7TheoremERKNS_4ExprE@Base 2.4.1
 _ZN4CVC320ArithTheoremProducer28canonMultLeafOrPowOrMultPlusERKNS_4ExprES3_@Base 2.4.1
 _ZN4CVC320ArithTheoremProducer30implyWeakerInequalityDiffLogicERKSt6vectorINS_7TheoremESaIS2_EERKNS_4ExprE@Base 2.4.1
 _ZN4CVC320ArithTheoremProducer31implyNegatedInequalityDiffLogicERKSt6vectorINS_7TheoremESaIS2_EERKNS_4ExprE@Base 2.4.1
 _ZN4CVC320ArithTheoremProducer5modEqERKNS_8RationalES3_@Base 2.4.1
 _ZN4CVC320ArithTheoremProducer7multEqnERKNS_4ExprES3_S3_@Base 2.4.1
 _ZN4CVC320ArithTheoremProducer7sumModMERSt6vectorINS_4ExprESaIS2_EERKS2_RKNS_8RationalESA_@Base 2.4.1
 _ZN4CVC320ArithTheoremProducer7sumMulFERSt6vectorINS_4ExprESaIS2_EERKS2_RKNS_8RationalESA_@Base 2.4.1
 _ZN4CVC320ArithTheoremProducer8create_tERKNS_4ExprE@Base 2.4.1
 _ZN4CVC320ArithTheoremProducer8eqToIneqERKNS_4ExprE@Base 2.4.1
 _ZN4CVC320ArithTheoremProducer9canonMultERKNS_4ExprE@Base 2.4.1
 _ZN4CVC320ArithTheoremProducer9canonPlusERKNS_4ExprE@Base 2.4.1
 _ZN4CVC320ArithTheoremProducer9create_t2ERKNS_4ExprES3_S3_@Base 2.4.1
 _ZN4CVC320ArithTheoremProducer9create_t3ERKNS_4ExprES3_S3_@Base 2.4.1
 _ZN4CVC320ArithTheoremProducer9elimPowerERKNS_4ExprE@Base 2.4.1
 _ZN4CVC320ArithTheoremProducer9multIneqnERKNS_4ExprES3_@Base 2.4.1
 _ZN4CVC320ArithTheoremProducer9powEqZeroERKNS_4ExprE@Base 2.4.1
 _ZN4CVC320ArithTheoremProducer9varToMultERKNS_4ExprE@Base 2.4.1
 _ZN4CVC320ArithTheoremProducerD0Ev@Base 2.4.1
 _ZN4CVC320ArithTheoremProducerD1Ev@Base 2.4.1
 _ZN4CVC320ArithTheoremProducerD2Ev@Base 2.4.1
 _ZN4CVC320ArrayTheoremProducer10arrayNotEqERKNS_7TheoremE@Base 2.4.1
 _ZN4CVC320ArrayTheoremProducer11liftReadIteERKNS_4ExprE@Base 2.4.1
 _ZN4CVC320ArrayTheoremProducer16readArrayLiteralERKNS_4ExprE@Base 2.4.1
 _ZN4CVC320ArrayTheoremProducer16rewriteReadWriteERKNS_4ExprE@Base 2.4.1
 _ZN4CVC320ArrayTheoremProducer16rewriteSameStoreERKNS_4ExprEi@Base 2.4.1
 _ZN4CVC320ArrayTheoremProducer16splitOnConstantsERKNS_4ExprERKSt6vectorIS1_SaIS1_EE@Base 2.4.1
 _ZN4CVC320ArrayTheoremProducer17rewriteReadWrite2ERKNS_4ExprE@Base 2.4.1
 _ZN4CVC320ArrayTheoremProducer17rewriteWriteWriteERKNS_4ExprE@Base 2.4.1
 _ZN4CVC320ArrayTheoremProducer18interchangeIndicesERKNS_4ExprE@Base 2.4.1
 _ZN4CVC320ArrayTheoremProducer19propagateIndexDiseqERKNS_7TheoremE@Base 2.4.1
 _ZN4CVC320ArrayTheoremProducer22rewriteRedundantWrite1ERKNS_7TheoremERKNS_4ExprE@Base 2.4.1
 _ZN4CVC320ArrayTheoremProducer22rewriteRedundantWrite2ERKNS_4ExprE@Base 2.4.1
 _ZN4CVC320ArrayTheoremProducerC1EPNS_11TheoryArrayE@Base 2.4.1
 _ZN4CVC320ArrayTheoremProducerC2EPNS_11TheoryArrayE@Base 2.4.1
 _ZN4CVC320ArrayTheoremProducerD0Ev@Base 2.4.1
 _ZN4CVC320ArrayTheoremProducerD1Ev@Base 2.4.1
 _ZN4CVC320ArrayTheoremProducerD2Ev@Base 2.4.1
 _ZN4CVC320ContextMemoryManager10deleteDataEPv@Base 2.4.1
 _ZN4CVC320ContextMemoryManager11s_freePagesE@Base 2.4.1
 _ZN4CVC320ContextMemoryManager7newDataEm@Base 2.4.1
 _ZN4CVC320ContextMemoryManagerD0Ev@Base 2.4.1
 _ZN4CVC320ContextMemoryManagerD1Ev@Base 2.4.1
 _ZN4CVC320ContextMemoryManagerD2Ev@Base 2.4.1
 _ZN4CVC320ExprManagerNotifyObj6notifyEv@Base 2.4.1
 _ZN4CVC320ExprManagerNotifyObj9getMemoryEi@Base 2.4.1
 _ZN4CVC320ExprManagerNotifyObj9notifyPreEv@Base 2.4.1
 _ZN4CVC320ExprManagerNotifyObjD0Ev@Base 2.4.1
 _ZN4CVC320ExprManagerNotifyObjD1Ev@Base 2.4.1
 _ZN4CVC320ExprManagerNotifyObjD2Ev@Base 2.4.1
 _ZN4CVC320QuantTheoremProducer10pullVarOutERKNS_7TheoremE@Base 2.4.1
 _ZN4CVC320QuantTheoremProducer11addNewConstERKNS_4ExprE@Base 2.4.1
 _ZN4CVC320QuantTheoremProducer12boundVarElimERKNS_7TheoremE@Base 2.4.1
 _ZN4CVC320QuantTheoremProducer13adjustVarUnivERKNS_7TheoremERKSt6vectorINS_4ExprESaIS5_EE@Base 2.4.1
 _ZN4CVC320QuantTheoremProducer13universalInstERKNS_7TheoremERKSt6vectorINS_4ExprESaIS5_EE@Base 2.4.1
 _ZN4CVC320QuantTheoremProducer13universalInstERKNS_7TheoremERKSt6vectorINS_4ExprESaIS5_EEi@Base 2.4.1
 _ZN4CVC320QuantTheoremProducer13universalInstERKNS_7TheoremERKSt6vectorINS_4ExprESaIS5_EEiS5_@Base 2.4.1
 _ZN4CVC320QuantTheoremProducer14normalizeQuantERKNS_4ExprE@Base 2.4.1
 _ZN4CVC320QuantTheoremProducer16recFindBoundVarsERKNS_4ExprERNS_7ExprMapIbEES6_@Base 2.4.1
 _ZN4CVC320QuantTheoremProducer16rewriteNotExistsERKNS_4ExprE@Base 2.4.1
 _ZN4CVC320QuantTheoremProducer16rewriteNotForallERKNS_4ExprE@Base 2.4.1
 _ZN4CVC320QuantTheoremProducer20partialUniversalInstERKNS_7TheoremERKSt6vectorINS_4ExprESaIS5_EEi@Base 2.4.1
 _ZN4CVC320QuantTheoremProducer7packVarERKNS_7TheoremE@Base 2.4.1
 _ZN4CVC320QuantTheoremProducer8newRWThmERKNS_4ExprES3_@Base 2.4.1
 _ZN4CVC320QuantTheoremProducerD0Ev@Base 2.4.1
 _ZN4CVC320QuantTheoremProducerD1Ev@Base 2.4.1
 _ZN4CVC320QuantTheoremProducerD2Ev@Base 2.4.1
 _ZN4CVC320SearchSatCNFCallback12registerAtomERKNS_4ExprERKNS_7TheoremE@Base 2.4.1
 _ZN4CVC320SearchSatCNFCallbackD0Ev@Base 2.4.1
 _ZN4CVC320SearchSatCNFCallbackD1Ev@Base 2.4.1
 _ZN4CVC320SearchSatCNFCallbackD2Ev@Base 2.4.1
 _ZN4CVC321ArithTheoremProducer310isIntConstERKNS_4ExprE@Base 2.4.1
 _ZN4CVC321ArithTheoremProducer310multEqZeroERKNS_4ExprE@Base 2.4.1
 _ZN4CVC321ArithTheoremProducer310powerOfOneERKNS_4ExprE@Base 2.4.1
 _ZN4CVC321ArithTheoremProducer310realShadowERKNS_7TheoremES3_@Base 2.4.1
 _ZN4CVC321ArithTheoremProducer310substituteERKNS_4ExprERNS_7ExprMapIS1_EE@Base 2.4.1
 _ZN4CVC321ArithTheoremProducer311canonDivideERKNS_4ExprE@Base 2.4.1
 _ZN4CVC321ArithTheoremProducer311canonInvertERKNS_4ExprE@Base 2.4.1
 _ZN4CVC321ArithTheoremProducer311diseqToIneqERKNS_7TheoremE@Base 2.4.1
 _ZN4CVC321ArithTheoremProducer311greaterthanERKNS_4ExprES3_@Base 2.4.1
 _ZN4CVC321ArithTheoremProducer311minusToPlusERKNS_4ExprES3_@Base 2.4.1
 _ZN4CVC321ArithTheoremProducer312canonMultOneERKNS_4ExprE@Base 2.4.1
 _ZN4CVC321ArithTheoremProducer312dummyTheoremERKNS_4ExprE@Base 2.4.1
 _ZN4CVC321ArithTheoremProducer312equalLeaves1ERKNS_7TheoremE@Base 2.4.1
 _ZN4CVC321ArithTheoremProducer312equalLeaves2ERKNS_7TheoremE@Base 2.4.1
 _ZN4CVC321ArithTheoremProducer312equalLeaves3ERKNS_7TheoremE@Base 2.4.1
 _ZN4CVC321ArithTheoremProducer312equalLeaves4ERKNS_7TheoremE@Base 2.4.1
 _ZN4CVC321ArithTheoremProducer312integerSplitERKNS_4ExprERKNS_8RationalE@Base 2.4.1
 _ZN4CVC321ArithTheoremProducer312lessThanToLEERKNS_7TheoremES3_S3_b@Base 2.4.1
 _ZN4CVC321ArithTheoremProducer312monomialModMERKNS_4ExprERKNS_8RationalES6_@Base 2.4.1
 _ZN4CVC321ArithTheoremProducer312monomialMulFERKNS_4ExprERKNS_8RationalES6_@Base 2.4.1
 _ZN4CVC321ArithTheoremProducer312realShadowEqERKNS_7TheoremES3_@Base 2.4.1
 _ZN4CVC321ArithTheoremProducer312uMinusToMultERKNS_4ExprE@Base 2.4.1
 _ZN4CVC321ArithTheoremProducer313IsIntegerElimERKNS_7TheoremE@Base 2.4.1
 _ZN4CVC321ArithTheoremProducer313canonMultZeroERKNS_4ExprE@Base 2.4.1
 _ZN4CVC321ArithTheoremProducer313canonPowConstERKNS_4ExprE@Base 2.4.1
 _ZN4CVC321ArithTheoremProducer313cycleConflictERKSt6vectorINS_7TheoremESaIS2_EE@Base 2.4.1
 _ZN4CVC321ArithTheoremProducer313eqElimIntRuleERKNS_7TheoremES3_RKSt6vectorIS1_SaIS1_EE@Base 2.4.1
 _ZN4CVC321ArithTheoremProducer313plusPredicateERKNS_4ExprES3_S3_i@Base 2.4.1
 _ZN4CVC321ArithTheoremProducer313simpleIneqIntERKNS_4ExprERKNS_7TheoremE@Base 2.4.1
 _ZN4CVC321ArithTheoremProducer314canonDivideVarERKNS_4ExprES3_@Base 2.4.1
 _ZN4CVC321ArithTheoremProducer314canonInvertPowERKNS_4ExprE@Base 2.4.1
 _ZN4CVC321ArithTheoremProducer314clashingBoundsERKNS_7TheoremES3_@Base 2.4.1
 _ZN4CVC321ArithTheoremProducer314constPredicateERKNS_4ExprE@Base 2.4.1
 _ZN4CVC321ArithTheoremProducer314elimPowerConstERKNS_4ExprERKNS_8RationalE@Base 2.4.1
 _ZN4CVC321ArithTheoremProducer314finiteIntervalERKNS_7TheoremES3_S3_S3_@Base 2.4.1
 _ZN4CVC321ArithTheoremProducer314flipInequalityERKNS_4ExprE@Base 2.4.1
 _ZN4CVC321ArithTheoremProducer314intVarEqnConstERKNS_4ExprERKNS_7TheoremE@Base 2.4.1
 _ZN4CVC321ArithTheoremProducer314leftMinusRightERKNS_4ExprE@Base 2.4.1
 _ZN4CVC321ArithTheoremProducer314oneEliminationERKNS_4ExprE@Base 2.4.1
 _ZN4CVC321ArithTheoremProducer314rightMinusLeftERKNS_4ExprE@Base 2.4.1
 _ZN4CVC321ArithTheoremProducer314trustedRewriteERKNS_4ExprES3_@Base 2.4.1
 _ZN4CVC321ArithTheoremProducer315addInequalitiesERKNS_7TheoremES3_@Base 2.4.1
 _ZN4CVC321ArithTheoremProducer315addInequalitiesERKSt6vectorINS_7TheoremESaIS2_EE@Base 2.4.1
 _ZN4CVC321ArithTheoremProducer315canonDivideMultERKNS_4ExprES3_@Base 2.4.1
 _ZN4CVC321ArithTheoremProducer315canonDividePlusERKNS_4ExprES3_@Base 2.4.1
 _ZN4CVC321ArithTheoremProducer315canonFlattenSumERKNS_4ExprE@Base 2.4.1
 _ZN4CVC321ArithTheoremProducer315canonInvertLeafERKNS_4ExprE@Base 2.4.1
 _ZN4CVC321ArithTheoremProducer315canonInvertMultERKNS_4ExprE@Base 2.4.1
 _ZN4CVC321ArithTheoremProducer315canonMultPowPowERKNS_4ExprES3_@Base 2.4.1
 _ZN4CVC321ArithTheoremProducer315grayShadowConstERKNS_7TheoremE@Base 2.4.1
 _ZN4CVC321ArithTheoremProducer315implyEqualitiesERKSt6vectorINS_7TheoremESaIS2_EE@Base 2.4.1
 _ZN4CVC321ArithTheoremProducer315intEqIrrationalERKNS_4ExprERKNS_7TheoremE@Base 2.4.1
 _ZN4CVC321ArithTheoremProducer315splitGrayShadowERKNS_7TheoremE@Base 2.4.1
 _ZN4CVC321ArithTheoremProducer316canonDivideConstERKNS_4ExprES3_@Base 2.4.1
 _ZN4CVC321ArithTheoremProducer316canonInvertConstERKNS_4ExprE@Base 2.4.1
 _ZN4CVC321ArithTheoremProducer316canonMultPowLeafERKNS_4ExprES3_@Base 2.4.1
 _ZN4CVC321ArithTheoremProducer316expandDarkShadowERKNS_7TheoremE@Base 2.4.1
 _ZN4CVC321ArithTheoremProducer316expandGrayShadowERKNS_7TheoremE@Base 2.4.1
 _ZN4CVC321ArithTheoremProducer317canonMultConstSumERKNS_4ExprES3_@Base 2.4.1
 _ZN4CVC321ArithTheoremProducer317canonMultLeafLeafERKNS_4ExprES3_@Base 2.4.1
 _ZN4CVC321ArithTheoremProducer317canonMultPlusPlusERKNS_4ExprES3_@Base 2.4.1
 _ZN4CVC321ArithTheoremProducer317darkGrayShadow2abERKNS_7TheoremES3_S3_S3_S3_@Base 2.4.1
 _ZN4CVC321ArithTheoremProducer317darkGrayShadow2baERKNS_7TheoremES3_S3_S3_S3_@Base 2.4.1
 _ZN4CVC321ArithTheoremProducer317divideEqnNonConstERKNS_4ExprES3_S3_@Base 2.4.1
 _ZN4CVC321ArithTheoremProducer317expandGrayShadow0ERKNS_7TheoremE@Base 2.4.1
 _ZN4CVC321ArithTheoremProducer317negatedInequalityERKNS_4ExprE@Base 2.4.1
 _ZN4CVC321ArithTheoremProducer318canonMultConstMultERKNS_4ExprES3_@Base 2.4.1
 _ZN4CVC321ArithTheoremProducer318canonMultConstPlusERKNS_4ExprES3_@Base 2.4.1
 _ZN4CVC321ArithTheoremProducer318canonMultConstTermERKNS_4ExprES3_S3_@Base 2.4.1
 _ZN4CVC321ArithTheoremProducer318canonMultTermConstERKNS_4ExprES3_@Base 2.4.1
 _ZN4CVC321ArithTheoremProducer318constRHSGrayShadowERKNS_8RationalES3_S3_@Base 2.4.1
 _ZN4CVC321ArithTheoremProducer318simplifiedMultExprERSt6vectorINS_4ExprESaIS2_EE@Base 2.4.1
 _ZN4CVC321ArithTheoremProducer319canonComboLikeTermsERKNS_4ExprE@Base 2.4.1
 _ZN4CVC321ArithTheoremProducer319canonMultConstConstERKNS_4ExprES3_@Base 2.4.1
 _ZN4CVC321ArithTheoremProducer319canonMultMtermMtermERKNS_4ExprE@Base 2.4.1
 _ZN4CVC321ArithTheoremProducer319canonMultTerm1Term2ERKNS_4ExprES3_@Base 2.4.1
 _ZN4CVC321ArithTheoremProducer319canonUMinusToDivideERKNS_4ExprE@Base 2.4.1
 _ZN4CVC321ArithTheoremProducer319evenPowerEqNegConstERKNS_4ExprE@Base 2.4.1
 _ZN4CVC321ArithTheoremProducer319lessThanToLERewriteERKNS_4ExprERKNS_7TheoremES6_b@Base 2.4.1
 _ZN4CVC321ArithTheoremProducer319rafineStrictIntegerERKNS_7TheoremERKNS_4ExprE@Base 2.4.1
 _ZN4CVC321ArithTheoremProducer31fERKNS_8RationalES3_@Base 2.4.1
 _ZN4CVC321ArithTheoremProducer320compactNonLinearTermERKNS_4ExprE@Base 2.4.1
 _ZN4CVC321ArithTheoremProducer320moveSumConstantRightERKNS_4ExprE@Base 2.4.1
 _ZN4CVC321ArithTheoremProducer320splitGrayShadowSmallERKNS_7TheoremE@Base 2.4.1
 _ZN4CVC321ArithTheoremProducer321canonCombineLikeTermsERKSt6vectorINS_4ExprESaIS2_EE@Base 2.4.1
 _ZN4CVC321ArithTheoremProducer321expandGrayShadowConstERKNS_7TheoremE@Base 2.4.1
 _ZN4CVC321ArithTheoremProducer321implyWeakerInequalityERKNS_4ExprES3_@Base 2.4.1
 _ZN4CVC321ArithTheoremProducer322canonMultLeafOrPowMultERKNS_4ExprES3_@Base 2.4.1
 _ZN4CVC321ArithTheoremProducer322implyNegatedInequalityERKNS_4ExprES3_@Base 2.4.1
 _ZN4CVC321ArithTheoremProducer322nonLinearIneqSignSplitERKNS_7TheoremE@Base 2.4.1
 _ZN4CVC321ArithTheoremProducer323expandGrayShadowRewriteERKNS_4ExprE@Base 2.4.1
 _ZN4CVC321ArithTheoremProducer324implyDiffLogicBothBoundsERKNS_4ExprERSt6vectorINS_7TheoremESaIS5_EENS_8RationalES8_S9_@Base 2.4.1
 _ZN4CVC321ArithTheoremProducer327intEqualityRationalConstantERKNS_7TheoremERKNS_4ExprE@Base 2.4.1
 _ZN4CVC321ArithTheoremProducer328canonMultLeafOrPowOrMultPlusERKNS_4ExprES3_@Base 2.4.1
 _ZN4CVC321ArithTheoremProducer330implyWeakerInequalityDiffLogicERKSt6vectorINS_7TheoremESaIS2_EERKNS_4ExprE@Base 2.4.1
 _ZN4CVC321ArithTheoremProducer331implyNegatedInequalityDiffLogicERKSt6vectorINS_7TheoremESaIS2_EERKNS_4ExprE@Base 2.4.1
 _ZN4CVC321ArithTheoremProducer35modEqERKNS_8RationalES3_@Base 2.4.1
 _ZN4CVC321ArithTheoremProducer37multEqnERKNS_4ExprES3_S3_@Base 2.4.1
 _ZN4CVC321ArithTheoremProducer37sumModMERSt6vectorINS_4ExprESaIS2_EERKS2_RKNS_8RationalESA_@Base 2.4.1
 _ZN4CVC321ArithTheoremProducer37sumMulFERSt6vectorINS_4ExprESaIS2_EERKS2_RKNS_8RationalESA_@Base 2.4.1
 _ZN4CVC321ArithTheoremProducer38create_tERKNS_4ExprE@Base 2.4.1
 _ZN4CVC321ArithTheoremProducer38eqToIneqERKNS_4ExprE@Base 2.4.1
 _ZN4CVC321ArithTheoremProducer39canonMultERKNS_4ExprE@Base 2.4.1
 _ZN4CVC321ArithTheoremProducer39canonPlusERKNS_4ExprE@Base 2.4.1
 _ZN4CVC321ArithTheoremProducer39create_t2ERKNS_4ExprES3_S3_@Base 2.4.1
 _ZN4CVC321ArithTheoremProducer39create_t3ERKNS_4ExprES3_S3_@Base 2.4.1
 _ZN4CVC321ArithTheoremProducer39elimPowerERKNS_4ExprE@Base 2.4.1
 _ZN4CVC321ArithTheoremProducer39multIneqnERKNS_4ExprES3_@Base 2.4.1
 _ZN4CVC321ArithTheoremProducer39powEqZeroERKNS_4ExprE@Base 2.4.1
 _ZN4CVC321ArithTheoremProducer39varToMultERKNS_4ExprE@Base 2.4.1
 _ZN4CVC321ArithTheoremProducer3D0Ev@Base 2.4.1
 _ZN4CVC321ArithTheoremProducer3D1Ev@Base 2.4.1
 _ZN4CVC321ArithTheoremProducer3D2Ev@Base 2.4.1
 _ZN4CVC321CommonTheoremProducer10assumpRuleERKNS_4ExprEi@Base 2.4.1
 _ZN4CVC321CommonTheoremProducer10implIntro3ERKNS_8Theorem3ERKSt6vectorINS_4ExprESaIS5_EERKS4_INS_7TheoremESaISA_EE@Base 2.4.1
 _ZN4CVC321CommonTheoremProducer10liftOneITEERKNS_4ExprE@Base 2.4.1
 _ZN4CVC321CommonTheoremProducer10notNotElimERKNS_7TheoremE@Base 2.4.1
 _ZN4CVC321CommonTheoremProducer10rewriteAndERKNS_4ExprE@Base 2.4.1
 _ZN4CVC321CommonTheoremProducer10rewriteAndERKNS_7TheoremE@Base 2.4.1
 _ZN4CVC321CommonTheoremProducer10rewriteIffERKNS_4ExprE@Base 2.4.1
 _ZN4CVC321CommonTheoremProducer11iffNotFalseERKNS_7TheoremE@Base 2.4.1
 _ZN4CVC321CommonTheoremProducer11iffTrueElimERKNS_7TheoremE@Base 2.4.1
 _ZN4CVC321CommonTheoremProducer11trueTheoremEv@Base 2.4.1
 _ZN4CVC321CommonTheoremProducer12iffFalseElimERKNS_7TheoremE@Base 2.4.1
 _ZN4CVC321CommonTheoremProducer12symmetryRuleERKNS_7TheoremE@Base 2.4.1
 _ZN4CVC321CommonTheoremProducer12varIntroRuleERKNS_4ExprE@Base 2.4.1
 _ZN4CVC321CommonTheoremProducer13rewriteNotNotERKNS_4ExprE@Base 2.4.1
 _ZN4CVC321CommonTheoremProducer14excludedMiddleERKNS_4ExprE@Base 2.4.1
 _ZN4CVC321CommonTheoremProducer14rewriteIteSameERKNS_4ExprE@Base 2.4.1
 _ZN4CVC321CommonTheoremProducer14rewriteIteTrueERKNS_4ExprE@Base 2.4.1
 _ZN4CVC321CommonTheoremProducer14rewriteNotTrueERKNS_4ExprE@Base 2.4.1
 _ZN4CVC321CommonTheoremProducer14varIntroSkolemERKNS_4ExprE@Base 2.4.1
 _ZN4CVC321CommonTheoremProducer15getSkolemAxiomsEv@Base 2.4.1
 _ZN4CVC321CommonTheoremProducer15reflexivityRuleERKNS_4ExprE@Base 2.4.1
 _ZN4CVC321CommonTheoremProducer15rewriteIteFalseERKNS_4ExprE@Base 2.4.1
 _ZN4CVC321CommonTheoremProducer15rewriteNotFalseERKNS_4ExprE@Base 2.4.1
 _ZN4CVC321CommonTheoremProducer16rewriteNotExistsERKNS_4ExprE@Base 2.4.1
 _ZN4CVC321CommonTheoremProducer16rewriteNotForallERKNS_4ExprE@Base 2.4.1
 _ZN4CVC321CommonTheoremProducer16skolemizeRewriteERKNS_4ExprE@Base 2.4.1
 _ZN4CVC321CommonTheoremProducer16transitivityRuleERKNS_7TheoremES3_@Base 2.4.1
 _ZN4CVC321CommonTheoremProducer17clearSkolemAxiomsEv@Base 2.4.1
 _ZN4CVC321CommonTheoremProducer17contradictionRuleERKNS_7TheoremES3_@Base 2.4.1
 _ZN4CVC321CommonTheoremProducer17iffContrapositiveERKNS_7TheoremE@Base 2.4.1
 _ZN4CVC321CommonTheoremProducer18implContrapositiveERKNS_7TheoremE@Base 2.4.1
 _ZN4CVC321CommonTheoremProducer18rewriteReflexivityERKNS_4ExprE@Base 2.4.1
 _ZN4CVC321CommonTheoremProducer18substitutivityRuleERKNS_2OpERKSt6vectorINS_7TheoremESaIS5_EE@Base 2.4.1
 _ZN4CVC321CommonTheoremProducer18substitutivityRuleERKNS_4ExprERKNS_7TheoremE@Base 2.4.1
 _ZN4CVC321CommonTheoremProducer18substitutivityRuleERKNS_4ExprERKNS_7TheoremES6_@Base 2.4.1
 _ZN4CVC321CommonTheoremProducer18substitutivityRuleERKNS_4ExprERKSt6vectorIjSaIjEERKS4_INS_7TheoremESaIS9_EE@Base 2.4.1
 _ZN4CVC321CommonTheoremProducer18substitutivityRuleERKNS_4ExprEiRKNS_7TheoremE@Base 2.4.1
 _ZN4CVC321CommonTheoremProducer19skolemizeRewriteVarERKNS_4ExprE@Base 2.4.1
 _ZN4CVC321CommonTheoremProducer20rewriteUsingSymmetryERKNS_4ExprE@Base 2.4.1
 _ZN4CVC321CommonTheoremProducer5iffMPERKNS_7TheoremES3_@Base 2.4.1
 _ZN4CVC321CommonTheoremProducer6implMPERKNS_7TheoremES3_@Base 2.4.1
 _ZN4CVC321CommonTheoremProducer7andElimERKNS_7TheoremEi@Base 2.4.1
 _ZN4CVC321CommonTheoremProducer7findITEERKNS_4ExprERS1_S4_S4_@Base 2.4.1
 _ZN4CVC321CommonTheoremProducer7iffTrueERKNS_7TheoremE@Base 2.4.1
 _ZN4CVC321CommonTheoremProducer8andIntroERKNS_7TheoremES3_@Base 2.4.1
 _ZN4CVC321CommonTheoremProducer8andIntroERKSt6vectorINS_7TheoremESaIS2_EE@Base 2.4.1
 _ZN4CVC321CommonTheoremProducer8notToIffERKNS_7TheoremE@Base 2.4.1
 _ZN4CVC321CommonTheoremProducer8queryTCCERKNS_7TheoremES3_@Base 2.4.1
 _ZN4CVC321CommonTheoremProducer8xorToIffERKNS_4ExprE@Base 2.4.1
 _ZN4CVC321CommonTheoremProducer9ackermannERKNS_4ExprES3_@Base 2.4.1
 _ZN4CVC321CommonTheoremProducer9implIntroERKNS_7TheoremERKSt6vectorINS_4ExprESaIS5_EE@Base 2.4.1
 _ZN4CVC321CommonTheoremProducer9rewriteOrERKNS_4ExprE@Base 2.4.1
 _ZN4CVC321CommonTheoremProducer9rewriteOrERKNS_7TheoremE@Base 2.4.1
 _ZN4CVC321CommonTheoremProducer9skolemizeERKNS_4ExprE@Base 2.4.1
 _ZN4CVC321CommonTheoremProducer9skolemizeERKNS_7TheoremE@Base 2.4.1
 _ZN4CVC321CommonTheoremProducerC1EPNS_14TheoremManagerE@Base 2.4.1
 _ZN4CVC321CommonTheoremProducerC2EPNS_14TheoremManagerE@Base 2.4.1
 _ZN4CVC321CommonTheoremProducerD0Ev@Base 2.4.1
 _ZN4CVC321CommonTheoremProducerD1Ev@Base 2.4.1
 _ZN4CVC321CommonTheoremProducerD2Ev@Base 2.4.1
 _ZN4CVC322RecordsTheoremProducer11expandTupleERKNS_4ExprE@Base 2.4.1
 _ZN4CVC322RecordsTheoremProducer12expandRecordERKNS_4ExprE@Base 2.4.1
 _ZN4CVC322RecordsTheoremProducer16rewriteLitSelectERKNS_4ExprE@Base 2.4.1
 _ZN4CVC322RecordsTheoremProducer16rewriteLitUpdateERKNS_4ExprE@Base 2.4.1
 _ZN4CVC322RecordsTheoremProducer19rewriteUpdateSelectERKNS_4ExprE@Base 2.4.1
 _ZN4CVC322RecordsTheoremProducer8expandEqERKNS_7TheoremE@Base 2.4.1
 _ZN4CVC322RecordsTheoremProducer9expandNeqERKNS_7TheoremE@Base 2.4.1
 _ZN4CVC322RecordsTheoremProducerD0Ev@Base 2.4.1
 _ZN4CVC322RecordsTheoremProducerD1Ev@Base 2.4.1
 _ZN4CVC322RecordsTheoremProducerD2Ev@Base 2.4.1
 _ZN4CVC323ArithTheoremProducerOld10isIntConstERKNS_4ExprE@Base 2.4.1
 _ZN4CVC323ArithTheoremProducerOld10multEqZeroERKNS_4ExprE@Base 2.4.1
 _ZN4CVC323ArithTheoremProducerOld10powerOfOneERKNS_4ExprE@Base 2.4.1
 _ZN4CVC323ArithTheoremProducerOld10realShadowERKNS_7TheoremES3_@Base 2.4.1
 _ZN4CVC323ArithTheoremProducerOld10substituteERKNS_4ExprERNS_7ExprMapIS1_EE@Base 2.4.1
 _ZN4CVC323ArithTheoremProducerOld11canonDivideERKNS_4ExprE@Base 2.4.1
 _ZN4CVC323ArithTheoremProducerOld11canonInvertERKNS_4ExprE@Base 2.4.1
 _ZN4CVC323ArithTheoremProducerOld11diseqToIneqERKNS_7TheoremE@Base 2.4.1
 _ZN4CVC323ArithTheoremProducerOld11greaterthanERKNS_4ExprES3_@Base 2.4.1
 _ZN4CVC323ArithTheoremProducerOld11minusToPlusERKNS_4ExprES3_@Base 2.4.1
 _ZN4CVC323ArithTheoremProducerOld12canonMultOneERKNS_4ExprE@Base 2.4.1
 _ZN4CVC323ArithTheoremProducerOld12dummyTheoremERKNS_4ExprE@Base 2.4.1
 _ZN4CVC323ArithTheoremProducerOld12equalLeaves1ERKNS_7TheoremE@Base 2.4.1
 _ZN4CVC323ArithTheoremProducerOld12equalLeaves2ERKNS_7TheoremE@Base 2.4.1
 _ZN4CVC323ArithTheoremProducerOld12equalLeaves3ERKNS_7TheoremE@Base 2.4.1
 _ZN4CVC323ArithTheoremProducerOld12equalLeaves4ERKNS_7TheoremE@Base 2.4.1
 _ZN4CVC323ArithTheoremProducerOld12integerSplitERKNS_4ExprERKNS_8RationalE@Base 2.4.1
 _ZN4CVC323ArithTheoremProducerOld12lessThanToLEERKNS_7TheoremES3_S3_b@Base 2.4.1
 _ZN4CVC323ArithTheoremProducerOld12monomialModMERKNS_4ExprERKNS_8RationalES6_@Base 2.4.1
 _ZN4CVC323ArithTheoremProducerOld12monomialMulFERKNS_4ExprERKNS_8RationalES6_@Base 2.4.1
 _ZN4CVC323ArithTheoremProducerOld12realShadowEqERKNS_7TheoremES3_@Base 2.4.1
 _ZN4CVC323ArithTheoremProducerOld12uMinusToMultERKNS_4ExprE@Base 2.4.1
 _ZN4CVC323ArithTheoremProducerOld13IsIntegerElimERKNS_7TheoremE@Base 2.4.1
 _ZN4CVC323ArithTheoremProducerOld13canonMultZeroERKNS_4ExprE@Base 2.4.1
 _ZN4CVC323ArithTheoremProducerOld13canonPowConstERKNS_4ExprE@Base 2.4.1
 _ZN4CVC323ArithTheoremProducerOld13cycleConflictERKSt6vectorINS_7TheoremESaIS2_EE@Base 2.4.1
 _ZN4CVC323ArithTheoremProducerOld13eqElimIntRuleERKNS_7TheoremES3_RKSt6vectorIS1_SaIS1_EE@Base 2.4.1
 _ZN4CVC323ArithTheoremProducerOld13plusPredicateERKNS_4ExprES3_S3_i@Base 2.4.1
 _ZN4CVC323ArithTheoremProducerOld13simpleIneqIntERKNS_4ExprERKNS_7TheoremE@Base 2.4.1
 _ZN4CVC323ArithTheoremProducerOld14canonDivideVarERKNS_4ExprES3_@Base 2.4.1
 _ZN4CVC323ArithTheoremProducerOld14canonInvertPowERKNS_4ExprE@Base 2.4.1
 _ZN4CVC323ArithTheoremProducerOld14clashingBoundsERKNS_7TheoremES3_@Base 2.4.1
 _ZN4CVC323ArithTheoremProducerOld14constPredicateERKNS_4ExprE@Base 2.4.1
 _ZN4CVC323ArithTheoremProducerOld14elimPowerConstERKNS_4ExprERKNS_8RationalE@Base 2.4.1
 _ZN4CVC323ArithTheoremProducerOld14finiteIntervalERKNS_7TheoremES3_S3_S3_@Base 2.4.1
 _ZN4CVC323ArithTheoremProducerOld14flipInequalityERKNS_4ExprE@Base 2.4.1
 _ZN4CVC323ArithTheoremProducerOld14intVarEqnConstERKNS_4ExprERKNS_7TheoremE@Base 2.4.1
 _ZN4CVC323ArithTheoremProducerOld14leftMinusRightERKNS_4ExprE@Base 2.4.1
 _ZN4CVC323ArithTheoremProducerOld14oneEliminationERKNS_4ExprE@Base 2.4.1
 _ZN4CVC323ArithTheoremProducerOld14rightMinusLeftERKNS_4ExprE@Base 2.4.1
 _ZN4CVC323ArithTheoremProducerOld14trustedRewriteERKNS_4ExprES3_@Base 2.4.1
 _ZN4CVC323ArithTheoremProducerOld15addInequalitiesERKNS_7TheoremES3_@Base 2.4.1
 _ZN4CVC323ArithTheoremProducerOld15addInequalitiesERKSt6vectorINS_7TheoremESaIS2_EE@Base 2.4.1
 _ZN4CVC323ArithTheoremProducerOld15canonDivideMultERKNS_4ExprES3_@Base 2.4.1
 _ZN4CVC323ArithTheoremProducerOld15canonDividePlusERKNS_4ExprES3_@Base 2.4.1
 _ZN4CVC323ArithTheoremProducerOld15canonFlattenSumERKNS_4ExprE@Base 2.4.1
 _ZN4CVC323ArithTheoremProducerOld15canonInvertLeafERKNS_4ExprE@Base 2.4.1
 _ZN4CVC323ArithTheoremProducerOld15canonInvertMultERKNS_4ExprE@Base 2.4.1
 _ZN4CVC323ArithTheoremProducerOld15canonMultPowPowERKNS_4ExprES3_@Base 2.4.1
 _ZN4CVC323ArithTheoremProducerOld15grayShadowConstERKNS_7TheoremE@Base 2.4.1
 _ZN4CVC323ArithTheoremProducerOld15implyEqualitiesERKSt6vectorINS_7TheoremESaIS2_EE@Base 2.4.1
 _ZN4CVC323ArithTheoremProducerOld15intEqIrrationalERKNS_4ExprERKNS_7TheoremE@Base 2.4.1
 _ZN4CVC323ArithTheoremProducerOld15splitGrayShadowERKNS_7TheoremE@Base 2.4.1
 _ZN4CVC323ArithTheoremProducerOld16canonDivideConstERKNS_4ExprES3_@Base 2.4.1
 _ZN4CVC323ArithTheoremProducerOld16canonInvertConstERKNS_4ExprE@Base 2.4.1
 _ZN4CVC323ArithTheoremProducerOld16canonMultPowLeafERKNS_4ExprES3_@Base 2.4.1
 _ZN4CVC323ArithTheoremProducerOld16expandDarkShadowERKNS_7TheoremE@Base 2.4.1
 _ZN4CVC323ArithTheoremProducerOld16expandGrayShadowERKNS_7TheoremE@Base 2.4.1
 _ZN4CVC323ArithTheoremProducerOld17canonMultConstSumERKNS_4ExprES3_@Base 2.4.1
 _ZN4CVC323ArithTheoremProducerOld17canonMultLeafLeafERKNS_4ExprES3_@Base 2.4.1
 _ZN4CVC323ArithTheoremProducerOld17canonMultPlusPlusERKNS_4ExprES3_@Base 2.4.1
 _ZN4CVC323ArithTheoremProducerOld17darkGrayShadow2abERKNS_7TheoremES3_S3_S3_S3_@Base 2.4.1
 _ZN4CVC323ArithTheoremProducerOld17darkGrayShadow2baERKNS_7TheoremES3_S3_S3_S3_@Base 2.4.1
 _ZN4CVC323ArithTheoremProducerOld17divideEqnNonConstERKNS_4ExprES3_S3_@Base 2.4.1
 _ZN4CVC323ArithTheoremProducerOld17expandGrayShadow0ERKNS_7TheoremE@Base 2.4.1
 _ZN4CVC323ArithTheoremProducerOld17negatedInequalityERKNS_4ExprE@Base 2.4.1
 _ZN4CVC323ArithTheoremProducerOld18canonMultConstMultERKNS_4ExprES3_@Base 2.4.1
 _ZN4CVC323ArithTheoremProducerOld18canonMultConstPlusERKNS_4ExprES3_@Base 2.4.1
 _ZN4CVC323ArithTheoremProducerOld18canonMultConstTermERKNS_4ExprES3_S3_@Base 2.4.1
 _ZN4CVC323ArithTheoremProducerOld18canonMultTermConstERKNS_4ExprES3_@Base 2.4.1
 _ZN4CVC323ArithTheoremProducerOld18constRHSGrayShadowERKNS_8RationalES3_S3_@Base 2.4.1
 _ZN4CVC323ArithTheoremProducerOld18rewriteLeavesConstERKNS_4ExprE@Base 2.4.1
 _ZN4CVC323ArithTheoremProducerOld18simplifiedMultExprERSt6vectorINS_4ExprESaIS2_EE@Base 2.4.1
 _ZN4CVC323ArithTheoremProducerOld19canonComboLikeTermsERKNS_4ExprE@Base 2.4.1
 _ZN4CVC323ArithTheoremProducerOld19canonMultConstConstERKNS_4ExprES3_@Base 2.4.1
 _ZN4CVC323ArithTheoremProducerOld19canonMultMtermMtermERKNS_4ExprE@Base 2.4.1
 _ZN4CVC323ArithTheoremProducerOld19canonMultTerm1Term2ERKNS_4ExprES3_@Base 2.4.1
 _ZN4CVC323ArithTheoremProducerOld19canonUMinusToDivideERKNS_4ExprE@Base 2.4.1
 _ZN4CVC323ArithTheoremProducerOld19evenPowerEqNegConstERKNS_4ExprE@Base 2.4.1
 _ZN4CVC323ArithTheoremProducerOld19lessThanToLERewriteERKNS_4ExprERKNS_7TheoremES6_b@Base 2.4.1
 _ZN4CVC323ArithTheoremProducerOld19rafineStrictIntegerERKNS_7TheoremERKNS_4ExprE@Base 2.4.1
 _ZN4CVC323ArithTheoremProducerOld1fERKNS_8RationalES3_@Base 2.4.1
 _ZN4CVC323ArithTheoremProducerOld20compactNonLinearTermERKNS_4ExprE@Base 2.4.1
 _ZN4CVC323ArithTheoremProducerOld20moveSumConstantRightERKNS_4ExprE@Base 2.4.1
 _ZN4CVC323ArithTheoremProducerOld20splitGrayShadowSmallERKNS_7TheoremE@Base 2.4.1
 _ZN4CVC323ArithTheoremProducerOld21canonCombineLikeTermsERKSt6vectorINS_4ExprESaIS2_EE@Base 2.4.1
 _ZN4CVC323ArithTheoremProducerOld21expandGrayShadowConstERKNS_7TheoremE@Base 2.4.1
 _ZN4CVC323ArithTheoremProducerOld21implyWeakerInequalityERKNS_4ExprES3_@Base 2.4.1
 _ZN4CVC323ArithTheoremProducerOld22canonMultLeafOrPowMultERKNS_4ExprES3_@Base 2.4.1
 _ZN4CVC323ArithTheoremProducerOld22implyNegatedInequalityERKNS_4ExprES3_@Base 2.4.1
 _ZN4CVC323ArithTheoremProducerOld22nonLinearIneqSignSplitERKNS_7TheoremE@Base 2.4.1
 _ZN4CVC323ArithTheoremProducerOld23expandGrayShadowRewriteERKNS_4ExprE@Base 2.4.1
 _ZN4CVC323ArithTheoremProducerOld24implyDiffLogicBothBoundsERKNS_4ExprERSt6vectorINS_7TheoremESaIS5_EENS_8RationalES8_S9_@Base 2.4.1
 _ZN4CVC323ArithTheoremProducerOld27intEqualityRationalConstantERKNS_7TheoremERKNS_4ExprE@Base 2.4.1
 _ZN4CVC323ArithTheoremProducerOld28canonMultLeafOrPowOrMultPlusERKNS_4ExprES3_@Base 2.4.1
 _ZN4CVC323ArithTheoremProducerOld30implyWeakerInequalityDiffLogicERKSt6vectorINS_7TheoremESaIS2_EERKNS_4ExprE@Base 2.4.1
 _ZN4CVC323ArithTheoremProducerOld31implyNegatedInequalityDiffLogicERKSt6vectorINS_7TheoremESaIS2_EERKNS_4ExprE@Base 2.4.1
 _ZN4CVC323ArithTheoremProducerOld5modEqERKNS_8RationalES3_@Base 2.4.1
 _ZN4CVC323ArithTheoremProducerOld7multEqnERKNS_4ExprES3_S3_@Base 2.4.1
 _ZN4CVC323ArithTheoremProducerOld7sumModMERSt6vectorINS_4ExprESaIS2_EERKS2_RKNS_8RationalESA_@Base 2.4.1
 _ZN4CVC323ArithTheoremProducerOld7sumMulFERSt6vectorINS_4ExprESaIS2_EERKS2_RKNS_8RationalESA_@Base 2.4.1
 _ZN4CVC323ArithTheoremProducerOld8create_tERKNS_4ExprE@Base 2.4.1
 _ZN4CVC323ArithTheoremProducerOld8eqToIneqERKNS_4ExprE@Base 2.4.1
 _ZN4CVC323ArithTheoremProducerOld9canonMultERKNS_4ExprE@Base 2.4.1
 _ZN4CVC323ArithTheoremProducerOld9canonPlusERKNS_4ExprE@Base 2.4.1
 _ZN4CVC323ArithTheoremProducerOld9create_t2ERKNS_4ExprES3_S3_@Base 2.4.1
 _ZN4CVC323ArithTheoremProducerOld9create_t3ERKNS_4ExprES3_S3_@Base 2.4.1
 _ZN4CVC323ArithTheoremProducerOld9elimPowerERKNS_4ExprE@Base 2.4.1
 _ZN4CVC323ArithTheoremProducerOld9getLeavesERKNS_4ExprERSt3setINS_8RationalESt4lessIS5_ESaIS5_EERNS_11ExprHashMapIbEE@Base 2.4.1
 _ZN4CVC323ArithTheoremProducerOld9multIneqnERKNS_4ExprES3_@Base 2.4.1
 _ZN4CVC323ArithTheoremProducerOld9powEqZeroERKNS_4ExprE@Base 2.4.1
 _ZN4CVC323ArithTheoremProducerOld9varToMultERKNS_4ExprE@Base 2.4.1
 _ZN4CVC323ArithTheoremProducerOldD0Ev@Base 2.4.1
 _ZN4CVC323ArithTheoremProducerOldD1Ev@Base 2.4.1
 _ZN4CVC323ArithTheoremProducerOldD2Ev@Base 2.4.1
 _ZN4CVC323DatatypeTheoremProducer12dummyTheoremERKNS_6CDListINS_7TheoremEEERKNS_4ExprE@Base 2.4.1
 _ZN4CVC323DatatypeTheoremProducer14rewriteSelConsERKNS_6CDListINS_7TheoremEEERKNS_4ExprE@Base 2.4.1
 _ZN4CVC323DatatypeTheoremProducer15rewriteTestConsERKNS_4ExprE@Base 2.4.1
 _ZN4CVC323DatatypeTheoremProducer7noCycleERKNS_4ExprE@Base 2.4.1
 _ZN4CVC323DatatypeTheoremProducer9decomposeERKNS_7TheoremE@Base 2.4.1
 _ZN4CVC323DatatypeTheoremProducerD0Ev@Base 2.4.1
 _ZN4CVC323DatatypeTheoremProducerD1Ev@Base 2.4.1
 _ZN4CVC323DatatypeTheoremProducerD2Ev@Base 2.4.1
 _ZN4CVC323SimulateTheoremProducer14expandSimulateERKNS_4ExprE@Base 2.4.1
 _ZN4CVC323SimulateTheoremProducerD0Ev@Base 2.4.1
 _ZN4CVC323SimulateTheoremProducerD1Ev@Base 2.4.1
 _ZN4CVC323SimulateTheoremProducerD2Ev@Base 2.4.1
 _ZN4CVC324BitvectorTheoremProducer10bvshlSplitERKNS_4ExprE@Base 2.4.1
 _ZN4CVC324BitvectorTheoremProducer10chopConcatEiNS_8RationalERSt6vectorINS_4ExprESaIS3_EE@Base 2.4.1
 _ZN4CVC324BitvectorTheoremProducer10extractAndERKNS_4ExprE@Base 2.4.1
 _ZN4CVC324BitvectorTheoremProducer10extractNegERKNS_4ExprE@Base 2.4.1
 _ZN4CVC324BitvectorTheoremProducer10flipBVMultERKNS_4ExprE@Base 2.4.1
 _ZN4CVC324BitvectorTheoremProducer10repeatRuleERKNS_4ExprE@Base 2.4.1
 _ZN4CVC324BitvectorTheoremProducer10rewriteNORERKNS_4ExprE@Base 2.4.1
 _ZN4CVC324BitvectorTheoremProducer11bvShiftZeroERKNS_4ExprE@Base 2.4.1
 _ZN4CVC324BitvectorTheoremProducer11bvUDivConstERKNS_4ExprE@Base 2.4.1
 _ZN4CVC324BitvectorTheoremProducer11bvURemConstERKNS_4ExprE@Base 2.4.1
 _ZN4CVC324BitvectorTheoremProducer11bvmultConstERKNS_4ExprE@Base 2.4.1
 _ZN4CVC324BitvectorTheoremProducer11bvplusConstERKNS_4ExprE@Base 2.4.1
 _ZN4CVC324BitvectorTheoremProducer11bvuminusVarERKNS_4ExprE@Base 2.4.1
 _ZN4CVC324BitvectorTheoremProducer11canonBVMultERKNS_4ExprE@Base 2.4.1
 _ZN4CVC324BitvectorTheoremProducer11canonBVPlusERKNS_4ExprE@Base 2.4.1
 _ZN4CVC324BitvectorTheoremProducer11concatConstERKNS_4ExprE@Base 2.4.1
 _ZN4CVC324BitvectorTheoremProducer11isolate_varERKNS_4ExprE@Base 2.4.1
 _ZN4CVC324BitvectorTheoremProducer11notBVLTRuleERKNS_4ExprE@Base 2.4.1
 _ZN4CVC324BitvectorTheoremProducer11padBVLTRuleERKNS_4ExprEi@Base 2.4.1
 _ZN4CVC324BitvectorTheoremProducer11rewriteNANDERKNS_4ExprE@Base 2.4.1
 _ZN4CVC324BitvectorTheoremProducer11rewriteXNORERKNS_4ExprE@Base 2.4.1
 _ZN4CVC324BitvectorTheoremProducer11typePredBitERKNS_4ExprE@Base 2.4.1
 _ZN4CVC324BitvectorTheoremProducer12bitwiseConstERKNS_4ExprERKSt6vectorIiSaIiEEi@Base 2.4.1
 _ZN4CVC324BitvectorTheoremProducer12bvConstIneqnERKNS_4ExprEi@Base 2.4.1
 _ZN4CVC324BitvectorTheoremProducer12computeCarryERKSt6vectorINS_7TheoremESaIS2_EES6_i@Base 2.4.1
 _ZN4CVC324BitvectorTheoremProducer12extractConstERKNS_4ExprE@Base 2.4.1
 _ZN4CVC324BitvectorTheoremProducer12extractWholeERKNS_4ExprE@Base 2.4.1
 _ZN4CVC324BitvectorTheoremProducer12generalIneqnERKNS_4ExprERKNS_7TheoremES6_i@Base 2.4.1
 _ZN4CVC324BitvectorTheoremProducer12getPlusTermsERKNS_4ExprERNS_8RationalERNS_7ExprMapIS4_EE@Base 2.4.1
 _ZN4CVC324BitvectorTheoremProducer12iteBVnegRuleERKNS_4ExprE@Base 2.4.1
 _ZN4CVC324BitvectorTheoremProducer12notBVEQ1RuleERKNS_4ExprE@Base 2.4.1
 _ZN4CVC324BitvectorTheoremProducer12padBVSLTRuleERKNS_4ExprEi@Base 2.4.1
 _ZN4CVC324BitvectorTheoremProducer12rewriteBVSubERKNS_4ExprE@Base 2.4.1
 _ZN4CVC324BitvectorTheoremProducer12sameKidCheckERKNS_4ExprERNS_7ExprMapIiEE@Base 2.4.1
 _ZN4CVC324BitvectorTheoremProducer12signBVLTRuleERKNS_4ExprERKNS_7TheoremES6_@Base 2.4.1
 _ZN4CVC324BitvectorTheoremProducer13bitExtractNotERKNS_4ExprEi@Base 2.4.1
 _ZN4CVC324BitvectorTheoremProducer13bitwiseConcatERKNS_4ExprEi@Base 2.4.1
 _ZN4CVC324BitvectorTheoremProducer13buildPlusTermEiRNS_8RationalERNS_7ExprMapIS1_EE@Base 2.4.1
 _ZN4CVC324BitvectorTheoremProducer13bvSDivRewriteERKNS_4ExprE@Base 2.4.1
 _ZN4CVC324BitvectorTheoremProducer13bvSModRewriteERKNS_4ExprE@Base 2.4.1
 _ZN4CVC324BitvectorTheoremProducer13bvSRemRewriteERKNS_4ExprE@Base 2.4.1
 _ZN4CVC324BitvectorTheoremProducer13bvUDivTheoremERKNS_4ExprE@Base 2.4.1
 _ZN4CVC324BitvectorTheoremProducer13bvURemRewriteERKNS_4ExprE@Base 2.4.1
 _ZN4CVC324BitvectorTheoremProducer13bvshlToConcatERKNS_4ExprE@Base 2.4.1
 _ZN4CVC324BitvectorTheoremProducer13canonBVUMinusERKNS_4ExprE@Base 2.4.1
 _ZN4CVC324BitvectorTheoremProducer13concatFlattenERKNS_4ExprE@Base 2.4.1
 _ZN4CVC324BitvectorTheoremProducer13extractBVMultERKNS_4ExprE@Base 2.4.1
 _ZN4CVC324BitvectorTheoremProducer13extractBVPlusERKNS_4ExprE@Base 2.4.1
 _ZN4CVC324BitvectorTheoremProducer13extractConcatERKNS_4ExprE@Base 2.4.1
 _ZN4CVC324BitvectorTheoremProducer13flattenBVPlusERKNS_4ExprE@Base 2.4.1
 _ZN4CVC324BitvectorTheoremProducer13lhsEqRhsIneqnERKNS_4ExprEi@Base 2.4.1
 _ZN4CVC324BitvectorTheoremProducer13rewriteBVCOMPERKNS_4ExprE@Base 2.4.1
 _ZN4CVC324BitvectorTheoremProducer14bitblastBVMultERKSt6vectorINS_7TheoremESaIS2_EES6_RKNS_4ExprERS4_@Base 2.4.1
 _ZN4CVC324BitvectorTheoremProducer14bitblastBVPlusERKSt6vectorINS_7TheoremESaIS2_EES6_RKNS_4ExprERS4_@Base 2.4.1
 _ZN4CVC324BitvectorTheoremProducer14bitwiseFlattenERKNS_4ExprEi@Base 2.4.1
 _ZN4CVC324BitvectorTheoremProducer14bvMultDistRuleERKNS_4ExprE@Base 2.4.1
 _ZN4CVC324BitvectorTheoremProducer14bvashrToConcatERKNS_4ExprE@Base 2.4.1
 _ZN4CVC324BitvectorTheoremProducer14bvlshrToConcatERKNS_4ExprE@Base 2.4.1
 _ZN4CVC324BitvectorTheoremProducer14bvmultBVUminusERKNS_4ExprE@Base 2.4.1
 _ZN4CVC324BitvectorTheoremProducer14bvuminusBVMultERKNS_4ExprE@Base 2.4.1
 _ZN4CVC324BitvectorTheoremProducer14bvuminusBVPlusERKNS_4ExprE@Base 2.4.1
 _ZN4CVC324BitvectorTheoremProducer14expandTypePredERKNS_7TheoremE@Base 2.4.1
 _ZN4CVC324BitvectorTheoremProducer14extractBitwiseERKNS_4ExprEiRKSs@Base 2.4.1
 _ZN4CVC324BitvectorTheoremProducer14extractExtractERKNS_4ExprE@Base 2.4.1
 _ZN4CVC324BitvectorTheoremProducer14iteExtractRuleERKNS_4ExprE@Base 2.4.1
 _ZN4CVC324BitvectorTheoremProducer14oneCoeffBVMultERKNS_4ExprE@Base 2.4.1
 _ZN4CVC324BitvectorTheoremProducer14processExtractERKNS_7TheoremERb@Base 2.4.1
 _ZN4CVC324BitvectorTheoremProducer14signExtendRuleERKNS_4ExprE@Base 2.4.1
 _ZN4CVC324BitvectorTheoremProducer14zeroExtendRuleERKNS_4ExprE@Base 2.4.1
 _ZN4CVC324BitvectorTheoremProducer15bitBlastEqnRuleERKNS_4ExprES3_@Base 2.4.1
 _ZN4CVC324BitvectorTheoremProducer15bitExtractBVSHLERKNS_4ExprEi@Base 2.4.1
 _ZN4CVC324BitvectorTheoremProducer15bvMultAssocRuleERKNS_4ExprE@Base 2.4.1
 _ZN4CVC324BitvectorTheoremProducer15bvuminusBVConstERKNS_4ExprE@Base 2.4.1
 _ZN4CVC324BitvectorTheoremProducer15constMultToPlusERKNS_4ExprE@Base 2.4.1
 _ZN4CVC324BitvectorTheoremProducer15lhsMinusRhsRuleERKNS_4ExprE@Base 2.4.1
 _ZN4CVC324BitvectorTheoremProducer15zeroCoeffBVMultERKNS_4ExprE@Base 2.4.1
 _ZN4CVC324BitvectorTheoremProducer15zeroPaddingRuleERKNS_4ExprEi@Base 2.4.1
 _ZN4CVC324BitvectorTheoremProducer16bitExtractBVASHRERKNS_4ExprEi@Base 2.4.1
 _ZN4CVC324BitvectorTheoremProducer16bitExtractBVLSHRERKNS_4ExprEi@Base 2.4.1
 _ZN4CVC324BitvectorTheoremProducer16bitExtractBVMultERKNS_4ExprEi@Base 2.4.1
 _ZN4CVC324BitvectorTheoremProducer16bitExtractBVPlusERKSt6vectorINS_7TheoremESaIS2_EES6_RKNS_4ExprEi@Base 2.4.1
 _ZN4CVC324BitvectorTheoremProducer16bitExtractSXRuleERKNS_4ExprEi@Base 2.4.1
 _ZN4CVC324BitvectorTheoremProducer16bitwiseConstElimERKNS_4ExprEii@Base 2.4.1
 _ZN4CVC324BitvectorTheoremProducer16bvuminusBVUminusERKNS_4ExprE@Base 2.4.1
 _ZN4CVC324BitvectorTheoremProducer16bvuminusToBVPlusERKNS_4ExprE@Base 2.4.1
 _ZN4CVC324BitvectorTheoremProducer16liftConcatBVMultERKNS_4ExprE@Base 2.4.1
 _ZN4CVC324BitvectorTheoremProducer16liftConcatBVPlusERKNS_4ExprE@Base 2.4.1
 _ZN4CVC324BitvectorTheoremProducer17MarkNonSolvableEqERKNS_4ExprE@Base 2.4.1
 _ZN4CVC324BitvectorTheoremProducer17bitExtractBitwiseERKNS_4ExprEii@Base 2.4.1
 _ZN4CVC324BitvectorTheoremProducer17bitExtractRewriteERKNS_4ExprE@Base 2.4.1
 _ZN4CVC324BitvectorTheoremProducer17bitvectorTrueRuleERKNS_7TheoremE@Base 2.4.1
 _ZN4CVC324BitvectorTheoremProducer17distributive_ruleERKNS_4ExprE@Base 2.4.1
 _ZN4CVC324BitvectorTheoremProducer17leftShiftToConcatERKNS_4ExprE@Base 2.4.1
 _ZN4CVC324BitvectorTheoremProducer18bitBlastDisEqnRuleERKNS_7TheoremERKNS_4ExprE@Base 2.4.1
 _ZN4CVC324BitvectorTheoremProducer18bitExtractConstantERKNS_4ExprEi@Base 2.4.1
 _ZN4CVC324BitvectorTheoremProducer18bitvectorFalseRuleERKNS_7TheoremE@Base 2.4.1
 _ZN4CVC324BitvectorTheoremProducer18concatMergeExtractERKNS_4ExprE@Base 2.4.1
 _ZN4CVC324BitvectorTheoremProducer18rightShiftToConcatERKNS_4ExprE@Base 2.4.1
 _ZN4CVC324BitvectorTheoremProducer19bitExtractToExtractERKNS_7TheoremE@Base 2.4.1
 _ZN4CVC324BitvectorTheoremProducer19solveExtractOverlapERKNS_4ExprE@Base 2.4.1
 _ZN4CVC324BitvectorTheoremProducer20bitExtractExtractionERKNS_4ExprEi@Base 2.4.1
 _ZN4CVC324BitvectorTheoremProducer20bvConstMultAssocRuleERKNS_4ExprE@Base 2.4.1
 _ZN4CVC324BitvectorTheoremProducer20bvplusZeroConcatRuleERKNS_4ExprE@Base 2.4.1
 _ZN4CVC324BitvectorTheoremProducer20collectOneTermOfPlusERKNS_8RationalERKNS_4ExprERNS_7ExprMapIS1_EERS1_@Base 2.4.1
 _ZN4CVC324BitvectorTheoremProducer20combineLikeTermsRuleERKNS_4ExprE@Base 2.4.1
 _ZN4CVC324BitvectorTheoremProducer21BVMult_order_subtermsERKNS_4ExprE@Base 2.4.1
 _ZN4CVC324BitvectorTheoremProducer21bitExtractConstBVMultERKNS_4ExprEi@Base 2.4.1
 _ZN4CVC324BitvectorTheoremProducer21sumNormalizedElementsEiRKSt6vectorINS_4ExprESaIS2_EE@Base 2.4.1
 _ZN4CVC324BitvectorTheoremProducer22bitExtractAllToConstEqERSt6vectorINS_7TheoremESaIS2_EE@Base 2.4.1
 _ZN4CVC324BitvectorTheoremProducer22collectLikeTermsOfPlusERKNS_4ExprERNS_7ExprMapINS_8RationalEEERS5_@Base 2.4.1
 _ZN4CVC324BitvectorTheoremProducer23bitExtractConcatenationERKNS_4ExprEi@Base 2.4.1
 _ZN4CVC324BitvectorTheoremProducer23bvPlusAssociativityRuleERKNS_4ExprE@Base 2.4.1
 _ZN4CVC324BitvectorTheoremProducer23computeCarryPreComputedERKNS_7TheoremES3_ii@Base 2.4.1
 _ZN4CVC324BitvectorTheoremProducer23createNewPlusCollectionERKNS_4ExprERKNS_7ExprMapINS_8RationalEEERS5_RSt6vectorIS1_SaIS1_EE@Base 2.4.1
 _ZN4CVC324BitvectorTheoremProducer24bitExtractFixedLeftShiftERKNS_4ExprEi@Base 2.4.1
 _ZN4CVC324BitvectorTheoremProducer25bitExtractFixedRightShiftERKNS_4ExprEi@Base 2.4.1
 _ZN4CVC324BitvectorTheoremProducer26solveExtractOverlapAppliesERKNS_4ExprE@Base 2.4.1
 _ZN4CVC324BitvectorTheoremProducer27bitExtractBVPlusPreComputedERKNS_7TheoremES3_RKNS_4ExprEii@Base 2.4.1
 _ZN4CVC324BitvectorTheoremProducer27constWidthLeftShiftToConcatERKNS_4ExprE@Base 2.4.1
 _ZN4CVC324BitvectorTheoremProducer3padEiRKNS_4ExprE@Base 2.4.1
 _ZN4CVC324BitvectorTheoremProducer6negNegERKNS_4ExprE@Base 2.4.1
 _ZN4CVC324BitvectorTheoremProducer7constEqERKNS_4ExprE@Base 2.4.1
 _ZN4CVC324BitvectorTheoremProducer7eqConstERKNS_4ExprE@Base 2.4.1
 _ZN4CVC324BitvectorTheoremProducer7negBVorERKNS_4ExprE@Base 2.4.1
 _ZN4CVC324BitvectorTheoremProducer7negElimERKNS_4ExprE@Base 2.4.1
 _ZN4CVC324BitvectorTheoremProducer7zeroLeqERKNS_4ExprE@Base 2.4.1
 _ZN4CVC324BitvectorTheoremProducer8eqToBitsERKNS_7TheoremE@Base 2.4.1
 _ZN4CVC324BitvectorTheoremProducer8negBVandERKNS_4ExprE@Base 2.4.1
 _ZN4CVC324BitvectorTheoremProducer8negBVxorERKNS_4ExprE@Base 2.4.1
 _ZN4CVC324BitvectorTheoremProducer8negConstERKNS_4ExprE@Base 2.4.1
 _ZN4CVC324BitvectorTheoremProducer8oneBVANDERKNS_4ExprE@Base 2.4.1
 _ZN4CVC324BitvectorTheoremProducer8rotlRuleERKNS_4ExprE@Base 2.4.1
 _ZN4CVC324BitvectorTheoremProducer8rotrRuleERKNS_4ExprE@Base 2.4.1
 _ZN4CVC324BitvectorTheoremProducer8zeroBVORERKNS_4ExprE@Base 2.4.1
 _ZN4CVC324BitvectorTheoremProducer9canonBVEQERKNS_4ExprEi@Base 2.4.1
 _ZN4CVC324BitvectorTheoremProducer9extractOrERKNS_4ExprE@Base 2.4.1
 _ZN4CVC324BitvectorTheoremProducer9negBVxnorERKNS_4ExprE@Base 2.4.1
 _ZN4CVC324BitvectorTheoremProducer9negConcatERKNS_4ExprE@Base 2.4.1
 _ZN4CVC324BitvectorTheoremProducer9okToSplitERKNS_4ExprE@Base 2.4.1
 _ZN4CVC324BitvectorTheoremProducer9padBVMultERKNS_4ExprE@Base 2.4.1
 _ZN4CVC324BitvectorTheoremProducer9padBVPlusERKNS_4ExprE@Base 2.4.1
 _ZN4CVC324BitvectorTheoremProducerC1EPNS_15TheoryBitvectorE@Base 2.4.1
 _ZN4CVC324BitvectorTheoremProducerC2EPNS_15TheoryBitvectorE@Base 2.4.1
 _ZN4CVC324BitvectorTheoremProducerD0Ev@Base 2.4.1
 _ZN4CVC324BitvectorTheoremProducerD1Ev@Base 2.4.1
 _ZN4CVC324BitvectorTheoremProducerD2Ev@Base 2.4.1
 _ZN4CVC324CompleteInstPreProcessor10instMacrosERKNS_4ExprES1_@Base 2.4.1
 _ZN4CVC324CompleteInstPreProcessor10pullVarOutERKNS_4ExprE@Base 2.4.1
 _ZN4CVC324CompleteInstPreProcessor10rewriteNotERKNS_4ExprE@Base 2.4.1
 _ZN4CVC324CompleteInstPreProcessor10simplifyEqERKNS_4ExprE@Base 2.4.1
 _ZN4CVC324CompleteInstPreProcessor10substMacroERKNS_4ExprE@Base 2.4.1
 _ZN4CVC324CompleteInstPreProcessor11isGoodQuantERKNS_4ExprE@Base 2.4.1
 _ZN4CVC324CompleteInstPreProcessor12collectHeadsERKNS_4ExprERSt3setIS1_St4lessIS1_ESaIS1_EE@Base 2.4.1
 _ZN4CVC324CompleteInstPreProcessor12collectIndexERKNS_4ExprE@Base 2.4.1
 _ZN4CVC324CompleteInstPreProcessor12hasShieldVarERKNS_4ExprE@Base 2.4.1
 _ZN4CVC324CompleteInstPreProcessor12recSkolemizeERKNS_4ExprERNS_7ExprMapINS_8PolarityEEE@Base 2.4.1
 _ZN4CVC324CompleteInstPreProcessor13recInstMacrosERKNS_4ExprE@Base 2.4.1
 _ZN4CVC324CompleteInstPreProcessor13recRewriteNotERKNS_4ExprERNS_7ExprMapINS_8PolarityEEE@Base 2.4.1
 _ZN4CVC324CompleteInstPreProcessor13simplifyQuantERKNS_4ExprE@Base 2.4.1
 _ZN4CVC324CompleteInstPreProcessor20collect_forall_indexERKNS_4ExprE@Base 2.4.1
 _ZN4CVC324CompleteInstPreProcessor20collect_shield_indexERKNS_4ExprE@Base 2.4.1
 _ZN4CVC324CompleteInstPreProcessor4instERKNS_4ExprE@Base 2.4.1
 _ZN4CVC324CompleteInstPreProcessor6isGoodERKNS_4ExprE@Base 2.4.1
 _ZN4CVC324CompleteInstPreProcessor7isMacroERKNS_4ExprE@Base 2.4.1
 _ZN4CVC324CompleteInstPreProcessor7plusOneERKNS_4ExprE@Base 2.4.1
 _ZN4CVC324CompleteInstPreProcessor8addIndexERKNS_4ExprE@Base 2.4.1
 _ZN4CVC324CompleteInstPreProcessor8isShieldERKNS_4ExprE@Base 2.4.1
 _ZN4CVC324CompleteInstPreProcessor8minusOneERKNS_4ExprE@Base 2.4.1
 _ZN4CVC324CompleteInstPreProcessor9hasMacrosERKSt6vectorINS_4ExprESaIS2_EE@Base 2.4.1
 _ZN4CVC324CompleteInstPreProcessorC1EPNS_10TheoryCoreEPNS_15QuantProofRulesE@Base 2.4.1
 _ZN4CVC324CompleteInstPreProcessorC2EPNS_10TheoryCoreEPNS_15QuantProofRulesE@Base 2.4.1
 _ZN4CVC324CompleteInstPreProcessorD1Ev@Base 2.4.1
 _ZN4CVC324CompleteInstPreProcessorD2Ev@Base 2.4.1
 _ZN4CVC324VariableManagerNotifyObj6notifyEv@Base 2.4.1
 _ZN4CVC324VariableManagerNotifyObj9notifyPreEv@Base 2.4.1
 _ZN4CVC324VariableManagerNotifyObjD0Ev@Base 2.4.1
 _ZN4CVC324VariableManagerNotifyObjD1Ev@Base 2.4.1
 _ZN4CVC324VariableManagerNotifyObjD2Ev@Base 2.4.1
 _ZN4CVC327SearchEngineTheoremProducer10andCNFRuleERKNS_7TheoremE@Base 2.4.1
 _ZN4CVC327SearchEngineTheoremProducer10confAndrAFERKNS_7TheoremES3_S3_S3_@Base 2.4.1
 _ZN4CVC327SearchEngineTheoremProducer10confAndrATERKNS_7TheoremES3_bS3_@Base 2.4.1
 _ZN4CVC327SearchEngineTheoremProducer10iffCNFRuleERKNS_7TheoremE@Base 2.4.1
 _ZN4CVC327SearchEngineTheoremProducer10impCNFRuleERKNS_7TheoremE@Base 2.4.1
 _ZN4CVC327SearchEngineTheoremProducer10iteCNFRuleERKNS_7TheoremE@Base 2.4.1
 _ZN4CVC327SearchEngineTheoremProducer10propAndrAFERKNS_7TheoremEbS3_@Base 2.4.1
 _ZN4CVC327SearchEngineTheoremProducer10propAndrATERKNS_7TheoremES3_S3_@Base 2.4.1
 _ZN4CVC327SearchEngineTheoremProducer10propAndrLFERKNS_7TheoremES3_S3_@Base 2.4.1
 _ZN4CVC327SearchEngineTheoremProducer10propAndrRFERKNS_7TheoremES3_S3_@Base 2.4.1
 _ZN4CVC327SearchEngineTheoremProducer11propAndrLRTERKNS_7TheoremES3_PS1_S4_@Base 2.4.1
 _ZN4CVC327SearchEngineTheoremProducer11propIterIteERKNS_7TheoremEbS3_S3_@Base 2.4.1
 _ZN4CVC327SearchEngineTheoremProducer12conflictRuleERKSt6vectorINS_7TheoremESaIS2_EERKS2_@Base 2.4.1
 _ZN4CVC327SearchEngineTheoremProducer12convertToCNFERKNS_4ExprES3_@Base 2.4.1
 _ZN4CVC327SearchEngineTheoremProducer12iffToClausesERKNS_7TheoremE@Base 2.4.1
 _ZN4CVC327SearchEngineTheoremProducer12iteToClausesERKNS_7TheoremE@Base 2.4.1
 _ZN4CVC327SearchEngineTheoremProducer12propIterThenERKNS_7TheoremES3_S3_@Base 2.4.1
 _ZN4CVC327SearchEngineTheoremProducer14confIterIfThenERKNS_7TheoremEbS3_S3_S3_@Base 2.4.1
 _ZN4CVC327SearchEngineTheoremProducer14conflictClauseERKNS_7TheoremERKSt6vectorIS1_SaIS1_EES8_@Base 2.4.1
 _ZN4CVC327SearchEngineTheoremProducer14propIterIfThenERKNS_7TheoremEbS3_S3_PS1_S4_@Base 2.4.1
 _ZN4CVC327SearchEngineTheoremProducer14verifyConflictERKNS_7TheoremERSt3mapIS1_bNS_11TheoremLessESaISt4pairIS2_bEEE@Base 2.4.1
 _ZN4CVC327SearchEngineTheoremProducer16confIterThenElseERKNS_7TheoremES3_S3_S3_@Base 2.4.1
 _ZN4CVC327SearchEngineTheoremProducer16findInLocalCacheERKNS_4ExprERNS_7ExprMapIS1_EERSt6vectorIS1_SaIS1_EE@Base 2.4.1
 _ZN4CVC327SearchEngineTheoremProducer19checkSoundNoSkolemsERKNS_4ExprERNS_7ExprMapIbEERKS5_@Base 2.4.1
 _ZN4CVC327SearchEngineTheoremProducer19checkSoundNoSkolemsERKNS_7TheoremERNS_7ExprMapIbEERKS5_@Base 2.4.1
 _ZN4CVC327SearchEngineTheoremProducer20proofByContradictionERKNS_4ExprERKNS_7TheoremE@Base 2.4.1
 _ZN4CVC327SearchEngineTheoremProducer21eliminateSkolemAxiomsERKNS_7TheoremERKSt6vectorIS1_SaIS1_EE@Base 2.4.1
 _ZN4CVC327SearchEngineTheoremProducer7cutRuleERKSt6vectorINS_7TheoremESaIS2_EERKS2_@Base 2.4.1
 _ZN4CVC327SearchEngineTheoremProducer8confIffrERKNS_7TheoremES3_S3_S3_@Base 2.4.1
 _ZN4CVC327SearchEngineTheoremProducer8negIntroERKNS_4ExprERKNS_7TheoremE@Base 2.4.1
 _ZN4CVC327SearchEngineTheoremProducer8propIffrERKNS_7TheoremEiS3_S3_@Base 2.4.1
 _ZN4CVC327SearchEngineTheoremProducer8satProofERKNS_4ExprERKNS_5ProofE@Base 2.4.1
 _ZN4CVC327SearchEngineTheoremProducer8unitPropERKSt6vectorINS_7TheoremESaIS2_EERKS2_j@Base 2.4.1
 _ZN4CVC327SearchEngineTheoremProducer9caseSplitERKNS_4ExprERKNS_7TheoremES6_@Base 2.4.1
 _ZN4CVC327SearchEngineTheoremProducer9opCNFRuleERKNS_7TheoremEiRKSs@Base 2.4.1
 _ZN4CVC327SearchEngineTheoremProducer9orCNFRuleERKNS_7TheoremE@Base 2.4.1
 _ZN4CVC327SearchEngineTheoremProducerC1EPNS_14TheoremManagerE@Base 2.4.1
 _ZN4CVC327SearchEngineTheoremProducerC2EPNS_14TheoremManagerE@Base 2.4.1
 _ZN4CVC327SearchEngineTheoremProducerD0Ev@Base 2.4.1
 _ZN4CVC327SearchEngineTheoremProducerD1Ev@Base 2.4.1
 _ZN4CVC327SearchEngineTheoremProducerD2Ev@Base 2.4.1
 _ZN4CVC32OpC1EPNS_11ExprManagerERKS0_@Base 2.4.1
 _ZN4CVC32OpC1Ei@Base 2.4.1
 _ZN4CVC32OpC2EPNS_11ExprManagerERKS0_@Base 2.4.1
 _ZN4CVC32OpC2Ei@Base 2.4.1
 _ZN4CVC32OpD1Ev@Base 2.4.1
 _ZN4CVC32OpD2Ev@Base 2.4.1
 _ZN4CVC32OpaSERKS0_@Base 2.4.1
 _ZN4CVC33CDOINS_11QueryResultEE11restoreDataEPNS_10ContextObjE@Base 2.4.1
 _ZN4CVC33CDOINS_11QueryResultEE7setNullEv@Base 2.4.1
 _ZN4CVC33CDOINS_11QueryResultEE8makeCopyEPNS_20ContextMemoryManagerE@Base 2.4.1
 _ZN4CVC33CDOINS_11QueryResultEED0Ev@Base 2.4.1
 _ZN4CVC33CDOINS_11QueryResultEED1Ev@Base 2.4.1
 _ZN4CVC33CDOINS_11QueryResultEED2Ev@Base 2.4.1
 _ZN4CVC33CDOINS_4ExprEE11restoreDataEPNS_10ContextObjE@Base 2.4.1
 _ZN4CVC33CDOINS_4ExprEE7setNullEv@Base 2.4.1
 _ZN4CVC33CDOINS_4ExprEE8makeCopyEPNS_20ContextMemoryManagerE@Base 2.4.1
 _ZN4CVC33CDOINS_4ExprEED0Ev@Base 2.4.1
 _ZN4CVC33CDOINS_4ExprEED1Ev@Base 2.4.1
 _ZN4CVC33CDOINS_4ExprEED2Ev@Base 2.4.1
 _ZN4CVC33CDOINS_6ClauseEE11restoreDataEPNS_10ContextObjE@Base 2.4.1
 _ZN4CVC33CDOINS_6ClauseEE7setNullEv@Base 2.4.1
 _ZN4CVC33CDOINS_6ClauseEE8makeCopyEPNS_20ContextMemoryManagerE@Base 2.4.1
 _ZN4CVC33CDOINS_6ClauseEED0Ev@Base 2.4.1
 _ZN4CVC33CDOINS_6ClauseEED1Ev@Base 2.4.1
 _ZN4CVC33CDOINS_6ClauseEED2Ev@Base 2.4.1
 _ZN4CVC33CDOINS_7TheoremEE11restoreDataEPNS_10ContextObjE@Base 2.4.1
 _ZN4CVC33CDOINS_7TheoremEE7setNullEv@Base 2.4.1
 _ZN4CVC33CDOINS_7TheoremEE8makeCopyEPNS_20ContextMemoryManagerE@Base 2.4.1
 _ZN4CVC33CDOINS_7TheoremEED0Ev@Base 2.4.1
 _ZN4CVC33CDOINS_7TheoremEED1Ev@Base 2.4.1
 _ZN4CVC33CDOINS_7TheoremEED2Ev@Base 2.4.1
 _ZN4CVC33CDOINS_8RationalEE11restoreDataEPNS_10ContextObjE@Base 2.4.1
 _ZN4CVC33CDOINS_8RationalEE7setNullEv@Base 2.4.1
 _ZN4CVC33CDOINS_8RationalEE8makeCopyEPNS_20ContextMemoryManagerE@Base 2.4.1
 _ZN4CVC33CDOINS_8RationalEED0Ev@Base 2.4.1
 _ZN4CVC33CDOINS_8RationalEED1Ev@Base 2.4.1
 _ZN4CVC33CDOINS_8RationalEED2Ev@Base 2.4.1
 _ZN4CVC33CDOINS_8UnsignedEE11restoreDataEPNS_10ContextObjE@Base 2.4.1
 _ZN4CVC33CDOINS_8UnsignedEE7setNullEv@Base 2.4.1
 _ZN4CVC33CDOINS_8UnsignedEE8makeCopyEPNS_20ContextMemoryManagerE@Base 2.4.1
 _ZN4CVC33CDOINS_8UnsignedEED0Ev@Base 2.4.1
 _ZN4CVC33CDOINS_8UnsignedEED1Ev@Base 2.4.1
 _ZN4CVC33CDOINS_8UnsignedEED2Ev@Base 2.4.1
 _ZN4CVC33CDOISt23_Rb_tree_const_iteratorINS_9SearchSat15LitPriorityPairEEE11restoreDataEPNS_10ContextObjE@Base 2.4.1
 _ZN4CVC33CDOISt23_Rb_tree_const_iteratorINS_9SearchSat15LitPriorityPairEEE7setNullEv@Base 2.4.1
 _ZN4CVC33CDOISt23_Rb_tree_const_iteratorINS_9SearchSat15LitPriorityPairEEE8makeCopyEPNS_20ContextMemoryManagerE@Base 2.4.1
 _ZN4CVC33CDOISt23_Rb_tree_const_iteratorINS_9SearchSat15LitPriorityPairEEED0Ev@Base 2.4.1
 _ZN4CVC33CDOISt23_Rb_tree_const_iteratorINS_9SearchSat15LitPriorityPairEEED1Ev@Base 2.4.1
 _ZN4CVC33CDOISt23_Rb_tree_const_iteratorINS_9SearchSat15LitPriorityPairEEED2Ev@Base 2.4.1
 _ZN4CVC33CDOIbE11restoreDataEPNS_10ContextObjE@Base 2.4.1
 _ZN4CVC33CDOIbE7setNullEv@Base 2.4.1
 _ZN4CVC33CDOIbE8makeCopyEPNS_20ContextMemoryManagerE@Base 2.4.1
 _ZN4CVC33CDOIbED0Ev@Base 2.4.1
 _ZN4CVC33CDOIbED1Ev@Base 2.4.1
 _ZN4CVC33CDOIbED2Ev@Base 2.4.1
 _ZN4CVC33CDOIiE11restoreDataEPNS_10ContextObjE@Base 2.4.1
 _ZN4CVC33CDOIiE7setNullEv@Base 2.4.1
 _ZN4CVC33CDOIiE8makeCopyEPNS_20ContextMemoryManagerE@Base 2.4.1
 _ZN4CVC33CDOIiED0Ev@Base 2.4.1
 _ZN4CVC33CDOIiED1Ev@Base 2.4.1
 _ZN4CVC33CDOIiED2Ev@Base 2.4.1
 _ZN4CVC33CDOIjE11restoreDataEPNS_10ContextObjE@Base 2.4.1
 _ZN4CVC33CDOIjE7setNullEv@Base 2.4.1
 _ZN4CVC33CDOIjE8makeCopyEPNS_20ContextMemoryManagerE@Base 2.4.1
 _ZN4CVC33CDOIjEC1EPNS_7ContextERKji@Base 2.4.1
 _ZN4CVC33CDOIjEC2EPNS_7ContextERKji@Base 2.4.1
 _ZN4CVC33CDOIjED0Ev@Base 2.4.1
 _ZN4CVC33CDOIjED1Ev@Base 2.4.1
 _ZN4CVC33CDOIjED2Ev@Base 2.4.1
 _ZN4CVC33CDOImE11restoreDataEPNS_10ContextObjE@Base 2.4.1
 _ZN4CVC33CDOImE7setNullEv@Base 2.4.1
 _ZN4CVC33CDOImE8makeCopyEPNS_20ContextMemoryManagerE@Base 2.4.1
 _ZN4CVC33CDOImEC1EPNS_7ContextERKmi@Base 2.4.1
 _ZN4CVC33CDOImEC2EPNS_7ContextERKmi@Base 2.4.1
 _ZN4CVC33CDOImED0Ev@Base 2.4.1
 _ZN4CVC33CDOImED1Ev@Base 2.4.1
 _ZN4CVC33CDOImED2Ev@Base 2.4.1
 _ZN4CVC33VCL10bitvecTypeEi@Base 2.4.1
 _ZN4CVC33VCL10checkUnsatERKNS_4ExprE@Base 2.4.1
 _ZN4CVC33VCL10createTypeERKSs@Base 2.4.1
 _ZN4CVC33VCL10createTypeERKSsRKNS_4TypeE@Base 2.4.1
 _ZN4CVC33VCL10divideExprERKNS_4ExprES3_@Base 2.4.1
 _ZN4CVC33VCL10existsExprERKSt6vectorINS_4ExprESaIS2_EERKS2_@Base 2.4.1
 _ZN4CVC33VCL10forallExprERKSt6vectorINS_4ExprESaIS2_EERKS2_@Base 2.4.1
 _ZN4CVC33VCL10forallExprERKSt6vectorINS_4ExprESaIS2_EERKS2_RKS1_IS4_SaIS4_EE@Base 2.4.1
 _ZN4CVC33VCL10forallExprERKSt6vectorINS_4ExprESaIS2_EERKS2_S6_@Base 2.4.1
 _ZN4CVC33VCL10forallExprERKSt6vectorINS_4ExprESaIS2_EERKS2_S8_@Base 2.4.1
 _ZN4CVC33VCL10getClosureEv@Base 2.4.1
 _ZN4CVC33VCL10importExprERKNS_4ExprE@Base 2.4.1
 _ZN4CVC33VCL10importTypeERKNS_4TypeE@Base 2.4.1
 _ZN4CVC33VCL10incompleteERSt6vectorISsSaISsEE@Base 2.4.1
 _ZN4CVC33VCL10incompleteEv@Base 2.4.1
 _ZN4CVC33VCL10lambdaExprERKSt6vectorINS_4ExprESaIS2_EERKS2_@Base 2.4.1
 _ZN4CVC33VCL10lookupTypeERKSs@Base 2.4.1
 _ZN4CVC33VCL10poptoScopeEi@Base 2.4.1
 _ZN4CVC33VCL10recordExprERKSsRKNS_4ExprE@Base 2.4.1
 _ZN4CVC33VCL10recordExprERKSsRKNS_4ExprES2_S5_@Base 2.4.1
 _ZN4CVC33VCL10recordExprERKSsRKNS_4ExprES2_S5_S2_S5_@Base 2.4.1
 _ZN4CVC33VCL10recordExprERKSt6vectorISsSaISsEERKS1_INS_4ExprESaIS6_EE@Base 2.4.1
 _ZN4CVC33VCL10recordTypeERKSsRKNS_4TypeE@Base 2.4.1
 _ZN4CVC33VCL10recordTypeERKSsRKNS_4TypeES2_S5_@Base 2.4.1
 _ZN4CVC33VCL10recordTypeERKSsRKNS_4TypeES2_S5_S2_S5_@Base 2.4.1
 _ZN4CVC33VCL10recordTypeERKSt6vectorISsSaISsEERKS1_INS_4TypeESaIS6_EE@Base 2.4.1
 _ZN4CVC33VCL10scopeLevelEv@Base 2.4.1
 _ZN4CVC33VCL10setTriggerERKNS_4ExprES3_@Base 2.4.1
 _ZN4CVC33VCL10stackLevelEv@Base 2.4.1
 _ZN4CVC33VCL10stringExprERKSs@Base 2.4.1
 _ZN4CVC33VCL10uminusExprERKNS_4ExprE@Base 2.4.1
 _ZN4CVC33VCL11getBaseTypeERKNS_4ExprE@Base 2.4.1
 _ZN4CVC33VCL11getBaseTypeERKNS_4TypeE@Base 2.4.1
 _ZN4CVC33VCL11getProofTCCEv@Base 2.4.1
 _ZN4CVC33VCL11getTypePredERKNS_4TypeERKNS_4ExprE@Base 2.4.1
 _ZN4CVC33VCL11impliesExprERKNS_4ExprES3_@Base 2.4.1
 _ZN4CVC33VCL11newBVLEExprERKNS_4ExprES3_@Base 2.4.1
 _ZN4CVC33VCL11newBVLTExprERKNS_4ExprES3_@Base 2.4.1
 _ZN4CVC33VCL11newBVOrExprERKNS_4ExprES3_@Base 2.4.1
 _ZN4CVC33VCL11newBVOrExprERKSt6vectorINS_4ExprESaIS2_EE@Base 2.4.1
 _ZN4CVC33VCL11setTriggersERKNS_4ExprERKSt6vectorIS1_SaIS1_EE@Base 2.4.1
 _ZN4CVC33VCL11setTriggersERKNS_4ExprERKSt6vectorIS4_IS1_SaIS1_EESaIS6_EE@Base 2.4.1
 _ZN4CVC33VCL11simplifyThmERKNS_4ExprE@Base 2.4.1
 _ZN4CVC33VCL11subtypeTypeERKNS_4ExprES3_@Base 2.4.1
 _ZN4CVC33VCL12boundVarExprERKSsS2_RKNS_4TypeE@Base 2.4.1
 _ZN4CVC33VCL12distinctExprERKSt6vectorINS_4ExprESaIS2_EE@Base 2.4.1
 _ZN4CVC33VCL12inconsistentERSt6vectorINS_4ExprESaIS2_EE@Base 2.4.1
 _ZN4CVC33VCL12inconsistentEv@Base 2.4.1
 _ZN4CVC33VCL12newBVAndExprERKNS_4ExprES3_@Base 2.4.1
 _ZN4CVC33VCL12newBVAndExprERKSt6vectorINS_4ExprESaIS2_EE@Base 2.4.1
 _ZN4CVC33VCL12newBVNegExprERKNS_4ExprE@Base 2.4.1
 _ZN4CVC33VCL12newBVNorExprERKNS_4ExprES3_@Base 2.4.1
 _ZN4CVC33VCL12newBVSLEExprERKNS_4ExprES3_@Base 2.4.1
 _ZN4CVC33VCL12newBVSLTExprERKNS_4ExprES3_@Base 2.4.1
 _ZN4CVC33VCL12newBVSubExprERKNS_4ExprES3_@Base 2.4.1
 _ZN4CVC33VCL12newBVXorExprERKNS_4ExprES3_@Base 2.4.1
 _ZN4CVC33VCL12newBVXorExprERKSt6vectorINS_4ExprESaIS2_EE@Base 2.4.1
 _ZN4CVC33VCL12registerAtomERKNS_4ExprE@Base 2.4.1
 _ZN4CVC33VCL12setTimeLimitEj@Base 2.4.1
 _ZN4CVC33VCL12simulateExprERKNS_4ExprES3_RKSt6vectorIS1_SaIS1_EES3_@Base 2.4.1
 _ZN4CVC33VCL12subrangeTypeERKNS_4ExprES3_@Base 2.4.1
 _ZN4CVC33VCL12transClosureERKNS_2OpE@Base 2.4.1
 _ZN4CVC33VCL13UserAssertionD1Ev@Base 2.4.1
 _ZN4CVC33VCL13UserAssertionD2Ev@Base 2.4.1
 _ZN4CVC33VCL13assertFormulaERKNS_4ExprE@Base 2.4.1
 _ZN4CVC33VCL13checkContinueEv@Base 2.4.1
 _ZN4CVC33VCL13deriveClosureERKNS_8Theorem3E@Base 2.4.1
 _ZN4CVC33VCL13getAssignmentEv@Base 2.4.1
 _ZN4CVC33VCL13getProofQueryEv@Base 2.4.1
 _ZN4CVC33VCL13getStatisticsEv@Base 2.4.1
 _ZN4CVC33VCL13logAnnotationERKNS_4ExprE@Base 2.4.1
 _ZN4CVC33VCL13newBVCompExprERKNS_4ExprES3_@Base 2.4.1
 _ZN4CVC33VCL13newBVMultExprEiRKNS_4ExprES3_@Base 2.4.1
 _ZN4CVC33VCL13newBVNandExprERKNS_4ExprES3_@Base 2.4.1
 _ZN4CVC33VCL13newBVPlusExprEiRKNS_4ExprES3_@Base 2.4.1
 _ZN4CVC33VCL13newBVPlusExprEiRKSt6vectorINS_4ExprESaIS2_EE@Base 2.4.1
 _ZN4CVC33VCL13newBVSDivExprERKNS_4ExprES3_@Base 2.4.1
 _ZN4CVC33VCL13newBVSModExprERKNS_4ExprES3_@Base 2.4.1
 _ZN4CVC33VCL13newBVSRemExprERKNS_4ExprES3_@Base 2.4.1
 _ZN4CVC33VCL13newBVUDivExprERKNS_4ExprES3_@Base 2.4.1
 _ZN4CVC33VCL13newBVURemExprERKNS_4ExprES3_@Base 2.4.1
 _ZN4CVC33VCL13newBVXnorExprERKNS_4ExprES3_@Base 2.4.1
 _ZN4CVC33VCL13newBVXnorExprERKSt6vectorINS_4ExprESaIS2_EE@Base 2.4.1
 _ZN4CVC33VCL13newConcatExprERKNS_4ExprES3_@Base 2.4.1
 _ZN4CVC33VCL13newConcatExprERKSt6vectorINS_4ExprESaIS2_EE@Base 2.4.1
 _ZN4CVC33VCL13recSelectExprERKNS_4ExprERKSs@Base 2.4.1
 _ZN4CVC33VCL13recUpdateExprERKNS_4ExprERKSsS3_@Base 2.4.1
 _ZN4CVC33VCL14cmdsFromStringERKSsNS_13InputLanguageE@Base 2.4.1
 _ZN4CVC33VCL14computeBVConstERKNS_4ExprE@Base 2.4.1
 _ZN4CVC33VCL14exprFromStringERKSs@Base 2.4.1
 _ZN4CVC33VCL14getAssumptionsERKNS_11AssumptionsERSt6vectorINS_4ExprESaIS5_EE@Base 2.4.1
 _ZN4CVC33VCL14getAssumptionsERSt6vectorINS_4ExprESaIS2_EE@Base 2.4.1
 _ZN4CVC33VCL14newBVConstExprERKNS_8RationalEi@Base 2.4.1
 _ZN4CVC33VCL14newBVConstExprERKSsi@Base 2.4.1
 _ZN4CVC33VCL14newBVConstExprERKSt6vectorIbSaIbEE@Base 2.4.1
 _ZN4CVC33VCL14reprocessFlagsEv@Base 2.4.1
 _ZN4CVC33VCL15datatypeSelExprERKSsRKNS_4ExprE@Base 2.4.1
 _ZN4CVC33VCL15getProofClosureEv@Base 2.4.1
 _ZN4CVC33VCL15newBVUminusExprERKNS_4ExprE@Base 2.4.1
 _ZN4CVC33VCL15printStatisticsEv@Base 2.4.1
 _ZN4CVC33VCL15returnFromCheckEv@Base 2.4.1
 _ZN4CVC33VCL15setMultiTriggerERKNS_4ExprERKSt6vectorIS1_SaIS1_EE@Base 2.4.1
 _ZN4CVC33VCL15tupleSelectExprERKNS_4ExprEi@Base 2.4.1
 _ZN4CVC33VCL15tupleUpdateExprERKNS_4ExprEiS3_@Base 2.4.1
 _ZN4CVC33VCL16datatypeConsExprERKSsRKSt6vectorINS_4ExprESaIS4_EE@Base 2.4.1
 _ZN4CVC33VCL16datatypeTestExprERKSsRKNS_4ExprE@Base 2.4.1
 _ZN4CVC33VCL16getConcreteModelERNS_7ExprMapINS_4ExprEEE@Base 2.4.1
 _ZN4CVC33VCL16newBVExtractExprERKNS_4ExprEii@Base 2.4.1
 _ZN4CVC33VCL16setResourceLimitEj@Base 2.4.1
 _ZN4CVC33VCL17getAssumptionsRecERKNS_7TheoremERSt3setINS0_13UserAssertionESt4lessIS5_ESaIS5_EEb@Base 2.4.1
 _ZN4CVC33VCL17getAssumptionsTCCERSt6vectorINS_4ExprESaIS2_EE@Base 2.4.1
 _ZN4CVC33VCL17getCounterExampleERSt6vectorINS_4ExprESaIS2_EEb@Base 2.4.1
 _ZN4CVC33VCL17getCurrentContextEv@Base 2.4.1
 _ZN4CVC33VCL17getImpliedLiteralEv@Base 2.4.1
 _ZN4CVC33VCL18getAssumptionsUsedERSt6vectorINS_4ExprESaIS2_EE@Base 2.4.1
 _ZN4CVC33VCL18getUserAssumptionsERSt6vectorINS_4ExprESaIS2_EE@Base 2.4.1
 _ZN4CVC33VCL18tryModelGenerationEv@Base 2.4.1
 _ZN4CVC33VCL19addPairToArithOrderERKNS_4ExprES3_@Base 2.4.1
 _ZN4CVC33VCL21newFixedLeftShiftExprERKNS_4ExprEi@Base 2.4.1
 _ZN4CVC33VCL22getInternalAssumptionsERSt6vectorINS_4ExprESaIS2_EE@Base 2.4.1
 _ZN4CVC33VCL22newFixedRightShiftExprERKNS_4ExprEi@Base 2.4.1
 _ZN4CVC33VCL31newFixedConstWidthLeftShiftExprERKNS_4ExprEi@Base 2.4.1
 _ZN4CVC33VCL3popEv@Base 2.4.1
 _ZN4CVC33VCL4coreEv@Base 2.4.1
 _ZN4CVC33VCL4initEv@Base 2.4.1
 _ZN4CVC33VCL4pushEv@Base 2.4.1
 _ZN4CVC33VCL5getEMEv@Base 2.4.1
 _ZN4CVC33VCL5poptoEi@Base 2.4.1
 _ZN4CVC33VCL5queryERKNS_4ExprE@Base 2.4.1
 _ZN4CVC33VCL5resetEv@Base 2.4.1
 _ZN4CVC33VCL5valueERKNS_4ExprE@Base 2.4.1
 _ZN4CVC33VCL6eqExprERKNS_4ExprES3_@Base 2.4.1
 _ZN4CVC33VCL6geExprERKNS_4ExprES3_@Base 2.4.1
 _ZN4CVC33VCL6getTCCEv@Base 2.4.1
 _ZN4CVC33VCL6gtExprERKNS_4ExprES3_@Base 2.4.1
 _ZN4CVC33VCL6idExprERKSs@Base 2.4.1
 _ZN4CVC33VCL6leExprERKNS_4ExprES3_@Base 2.4.1
 _ZN4CVC33VCL6ltExprERKNS_4ExprES3_@Base 2.4.1
 _ZN4CVC33VCL6orExprERKNS_4ExprES3_@Base 2.4.1
 _ZN4CVC33VCL6orExprERKSt6vectorINS_4ExprESaIS2_EE@Base 2.4.1
 _ZN4CVC33VCL7andExprERKNS_4ExprES3_@Base 2.4.1
 _ZN4CVC33VCL7andExprERKSt6vectorINS_4ExprESaIS2_EE@Base 2.4.1
 _ZN4CVC33VCL7destroyEv@Base 2.4.1
 _ZN4CVC33VCL7funExprERKNS_2OpERKNS_4ExprE@Base 2.4.1
 _ZN4CVC33VCL7funExprERKNS_2OpERKNS_4ExprES6_@Base 2.4.1
 _ZN4CVC33VCL7funExprERKNS_2OpERKNS_4ExprES6_S6_@Base 2.4.1
 _ZN4CVC33VCL7funExprERKNS_2OpERKSt6vectorINS_4ExprESaIS5_EE@Base 2.4.1
 _ZN4CVC33VCL7funTypeERKNS_4TypeES3_@Base 2.4.1
 _ZN4CVC33VCL7funTypeERKSt6vectorINS_4TypeESaIS2_EERKS2_@Base 2.4.1
 _ZN4CVC33VCL7getTypeERKNS_4ExprE@Base 2.4.1
 _ZN4CVC33VCL7iffExprERKNS_4ExprES3_@Base 2.4.1
 _ZN4CVC33VCL7intTypeEv@Base 2.4.1
 _ZN4CVC33VCL7iteExprERKNS_4ExprES3_S3_@Base 2.4.1
 _ZN4CVC33VCL7notExprERKNS_4ExprE@Base 2.4.1
 _ZN4CVC33VCL7powExprERKNS_4ExprES3_@Base 2.4.1
 _ZN4CVC33VCL7ratExprERKSsS2_i@Base 2.4.1
 _ZN4CVC33VCL7ratExprERKSsi@Base 2.4.1
 _ZN4CVC33VCL7ratExprEii@Base 2.4.1
 _ZN4CVC33VCL7restartERKNS_4ExprE@Base 2.4.1
 _ZN4CVC33VCL7varExprERKSsRKNS_4TypeE@Base 2.4.1
 _ZN4CVC33VCL7varExprERKSsRKNS_4TypeERKNS_4ExprE@Base 2.4.1
 _ZN4CVC33VCL8boolTypeEv@Base 2.4.1
 _ZN4CVC33VCL8checkTCCERKNS_4ExprE@Base 2.4.1
 _ZN4CVC33VCL8createOpERKSsRKNS_4TypeE@Base 2.4.1
 _ZN4CVC33VCL8createOpERKSsRKNS_4TypeERKNS_4ExprE@Base 2.4.1
 _ZN4CVC33VCL8dataTypeERKSsRKSt6vectorISsSaISsEERKS3_IS5_SaIS5_EERKS3_IS3_INS_4ExprESaISC_EESaISE_EE@Base 2.4.1
 _ZN4CVC33VCL8dataTypeERKSsS2_RKSt6vectorISsSaISsEERKS3_INS_4ExprESaIS8_EE@Base 2.4.1
 _ZN4CVC33VCL8dataTypeERKSt6vectorISsSaISsEERKS1_IS3_SaIS3_EERKS1_IS7_SaIS7_EERKS1_IS1_IS1_INS_4ExprESaISE_EESaISG_EESaISI_EERS1_INS_4TypeESaISN_EE@Base 2.4.1
 _ZN4CVC33VCL8getProofEv@Base 2.4.1
 _ZN4CVC33VCL8getValueENS_4ExprE@Base 2.4.1
 _ZN4CVC33VCL8listExprERKNS_4ExprE@Base 2.4.1
 _ZN4CVC33VCL8listExprERKNS_4ExprES3_@Base 2.4.1
 _ZN4CVC33VCL8listExprERKNS_4ExprES3_S3_@Base 2.4.1
 _ZN4CVC33VCL8listExprERKSsRKNS_4ExprE@Base 2.4.1
 _ZN4CVC33VCL8listExprERKSsRKNS_4ExprES5_@Base 2.4.1
 _ZN4CVC33VCL8listExprERKSsRKNS_4ExprES5_S5_@Base 2.4.1
 _ZN4CVC33VCL8listExprERKSsRKSt6vectorINS_4ExprESaIS4_EE@Base 2.4.1
 _ZN4CVC33VCL8listExprERKSt6vectorINS_4ExprESaIS2_EE@Base 2.4.1
 _ZN4CVC33VCL8loadFileERKSsNS_13InputLanguageEbb@Base 2.4.1
 _ZN4CVC33VCL8loadFileERSiNS_13InputLanguageEb@Base 2.4.1
 _ZN4CVC33VCL8lookupOpERKSsPNS_4TypeE@Base 2.4.1
 _ZN4CVC33VCL8multExprERKNS_4ExprES3_@Base 2.4.1
 _ZN4CVC33VCL8newBVSHLERKNS_4ExprES3_@Base 2.4.1
 _ZN4CVC33VCL8plusExprERKNS_4ExprES3_@Base 2.4.1
 _ZN4CVC33VCL8plusExprERKSt6vectorINS_4ExprESaIS2_EE@Base 2.4.1
 _ZN4CVC33VCL8popScopeEv@Base 2.4.1
 _ZN4CVC33VCL8readExprERKNS_4ExprES3_@Base 2.4.1
 _ZN4CVC33VCL8realTypeEv@Base 2.4.1
 _ZN4CVC33VCL8simplifyERKNS_4ExprE@Base 2.4.1
 _ZN4CVC33VCL8trueExprEv@Base 2.4.1
 _ZN4CVC33VCL9arrayTypeERKNS_4TypeES3_@Base 2.4.1
 _ZN4CVC33VCL9falseExprEv@Base 2.4.1
 _ZN4CVC33VCL9getMemoryEi@Base 2.4.1
 _ZN4CVC33VCL9lookupVarERKSsPNS_4TypeE@Base 2.4.1
 _ZN4CVC33VCL9minusExprERKNS_4ExprES3_@Base 2.4.1
 _ZN4CVC33VCL9newBVASHRERKNS_4ExprES3_@Base 2.4.1
 _ZN4CVC33VCL9newBVLSHRERKNS_4ExprES3_@Base 2.4.1
 _ZN4CVC33VCL9newSXExprERKNS_4ExprEi@Base 2.4.1
 _ZN4CVC33VCL9parseExprERKNS_4ExprE@Base 2.4.1
 _ZN4CVC33VCL9parseTypeERKNS_4ExprE@Base 2.4.1
 _ZN4CVC33VCL9printExprERKNS_4ExprE@Base 2.4.1
 _ZN4CVC33VCL9printExprERKNS_4ExprERSo@Base 2.4.1
 _ZN4CVC33VCL9pushScopeEv@Base 2.4.1
 _ZN4CVC33VCL9tupleExprERKSt6vectorINS_4ExprESaIS2_EE@Base 2.4.1
 _ZN4CVC33VCL9tupleTypeERKNS_4TypeES3_@Base 2.4.1
 _ZN4CVC33VCL9tupleTypeERKNS_4TypeES3_S3_@Base 2.4.1
 _ZN4CVC33VCL9tupleTypeERKSt6vectorINS_4TypeESaIS2_EE@Base 2.4.1
 _ZN4CVC33VCL9writeExprERKNS_4ExprES3_S3_@Base 2.4.1
 _ZN4CVC33VCLC1ERKNS_7CLFlagsE@Base 2.4.1
 _ZN4CVC33VCLC2ERKNS_7CLFlagsE@Base 2.4.1
 _ZN4CVC33VCLD0Ev@Base 2.4.1
 _ZN4CVC33VCLD1Ev@Base 2.4.1
 _ZN4CVC33VCLD2Ev@Base 2.4.1
 _ZN4CVC33absERKNS_8RationalE@Base 2.4.1
 _ZN4CVC33gcdERKNS_8RationalES2_@Base 2.4.1
 _ZN4CVC33gcdERKNS_8UnsignedES2_@Base 2.4.1
 _ZN4CVC33gcdERKSt6vectorINS_8RationalESaIS1_EE@Base 2.4.1
 _ZN4CVC33gcdERKSt6vectorINS_8UnsignedESaIS1_EE@Base 2.4.1
 _ZN4CVC33lcmERKNS_8RationalES2_@Base 2.4.1
 _ZN4CVC33lcmERKNS_8UnsignedES2_@Base 2.4.1
 _ZN4CVC33lcmERKSt6vectorINS_8RationalESaIS1_EE@Base 2.4.1
 _ZN4CVC33lcmERKSt6vectorINS_8UnsignedESaIS1_EE@Base 2.4.1
 _ZN4CVC33modERKNS_8RationalES2_@Base 2.4.1
 _ZN4CVC33modERKNS_8UnsignedES2_@Base 2.4.1
 _ZN4CVC33popERNS_10ExprStreamE@Base 2.4.1
 _ZN4CVC33powENS_8RationalERKS0_@Base 2.4.1
 _ZN4CVC33powENS_8UnsignedERKS0_@Base 2.4.1
 _ZN4CVC34Expr6indentEib@Base 2.4.1
 _ZN4CVC34Expr6s_nullE@Base 2.4.1
 _ZN4CVC34Expr8iteratorC1EN9__gnu_cxx17__normal_iteratorIPKS0_St6vectorIS0_SaIS0_EEEE@Base 2.4.1
 _ZN4CVC34Expr8iteratorC2EN9__gnu_cxx17__normal_iteratorIPKS0_St6vectorIS0_SaIS0_EEEE@Base 2.4.1
 _ZN4CVC34Expr8iteratorppEv@Base 2.4.1
 _ZN4CVC34ExprC1ERKNS_2OpERKS0_@Base 2.4.1
 _ZN4CVC34ExprC1ERKNS_2OpERKS0_S5_@Base 2.4.1
 _ZN4CVC34ExprC1ERKNS_2OpERKS0_S5_S5_@Base 2.4.1
 _ZN4CVC34ExprC1ERKNS_2OpERKSt6vectorIS0_SaIS0_EEPNS_11ExprManagerE@Base 2.4.1
 _ZN4CVC34ExprC1ERKS0_@Base 2.4.1
 _ZN4CVC34ExprC1Ev@Base 2.4.1
 _ZN4CVC34ExprC2ERKNS_2OpERKS0_@Base 2.4.1
 _ZN4CVC34ExprC2ERKNS_2OpERKS0_S5_@Base 2.4.1
 _ZN4CVC34ExprC2ERKNS_2OpERKS0_S5_S5_@Base 2.4.1
 _ZN4CVC34ExprC2ERKNS_2OpERKSt6vectorIS0_SaIS0_EEPNS_11ExprManagerE@Base 2.4.1
 _ZN4CVC34ExprC2ERKS0_@Base 2.4.1
 _ZN4CVC34ExprC2Ev@Base 2.4.1
 _ZN4CVC34ExprD1Ev@Base 2.4.1
 _ZN4CVC34ExprD2Ev@Base 2.4.1
 _ZN4CVC34ExpraSERKS0_@Base 2.4.1
 _ZN4CVC34Type7anyTypeEPNS_11ExprManagerE@Base 2.4.1
 _ZN4CVC34Type7funTypeERKSt6vectorIS0_SaIS0_EERKS0_@Base 2.4.1
 _ZN4CVC34Type8typeBoolEPNS_11ExprManagerE@Base 2.4.1
 _ZN4CVC34TypeC1ENS_4ExprE@Base 2.4.1
 _ZN4CVC34TypeC1Ev@Base 2.4.1
 _ZN4CVC34TypeC2ENS_4ExprE@Base 2.4.1
 _ZN4CVC34TypeC2Ev@Base 2.4.1
 _ZN4CVC34TypeD1Ev@Base 2.4.1
 _ZN4CVC34TypeD2Ev@Base 2.4.1
 _ZN4CVC34ceilERKNS_8RationalE@Base 2.4.1
 _ZN4CVC34pushERNS_10ExprStreamE@Base 2.4.1
 _ZN4CVC35CDMapINS_4ExprENS_12TheoryArith39FreeConstEN4Hash4hashIS1_EEE11restoreDataEPNS_10ContextObjE@Base 2.4.1
 _ZN4CVC35CDMapINS_4ExprENS_12TheoryArith39FreeConstEN4Hash4hashIS1_EEE7setNullEv@Base 2.4.1
 _ZN4CVC35CDMapINS_4ExprENS_12TheoryArith39FreeConstEN4Hash4hashIS1_EEE8makeCopyEPNS_20ContextMemoryManagerE@Base 2.4.1
 _ZN4CVC35CDMapINS_4ExprENS_12TheoryArith39FreeConstEN4Hash4hashIS1_EEED0Ev@Base 2.4.1
 _ZN4CVC35CDMapINS_4ExprENS_12TheoryArith39FreeConstEN4Hash4hashIS1_EEED1Ev@Base 2.4.1
 _ZN4CVC35CDMapINS_4ExprENS_12TheoryArith39FreeConstEN4Hash4hashIS1_EEED2Ev@Base 2.4.1
 _ZN4CVC35CDMapINS_4ExprENS_12TheoryArith39FreeConstEN4Hash4hashIS1_EEEixERKS1_@Base 2.4.1
 _ZN4CVC35CDMapINS_4ExprENS_14TheoryArithNew11EpsRationalEN4Hash4hashIS1_EEE11restoreDataEPNS_10ContextObjE@Base 2.4.1
 _ZN4CVC35CDMapINS_4ExprENS_14TheoryArithNew11EpsRationalEN4Hash4hashIS1_EEE7setNullEv@Base 2.4.1
 _ZN4CVC35CDMapINS_4ExprENS_14TheoryArithNew11EpsRationalEN4Hash4hashIS1_EEE8makeCopyEPNS_20ContextMemoryManagerE@Base 2.4.1
 _ZN4CVC35CDMapINS_4ExprENS_14TheoryArithNew11EpsRationalEN4Hash4hashIS1_EEED0Ev@Base 2.4.1
 _ZN4CVC35CDMapINS_4ExprENS_14TheoryArithNew11EpsRationalEN4Hash4hashIS1_EEED1Ev@Base 2.4.1
 _ZN4CVC35CDMapINS_4ExprENS_14TheoryArithNew11EpsRationalEN4Hash4hashIS1_EEED2Ev@Base 2.4.1
 _ZN4CVC35CDMapINS_4ExprENS_14TheoryArithNew11EpsRationalEN4Hash4hashIS1_EEEixERKS1_@Base 2.4.1
 _ZN4CVC35CDMapINS_4ExprENS_14TheoryArithNew9BoundInfoEN4Hash4hashIS1_EEE10emptyTrashEv@Base 2.4.1
 _ZN4CVC35CDMapINS_4ExprENS_14TheoryArithNew9BoundInfoEN4Hash4hashIS1_EEE11restoreDataEPNS_10ContextObjE@Base 2.4.1
 _ZN4CVC35CDMapINS_4ExprENS_14TheoryArithNew9BoundInfoEN4Hash4hashIS1_EEE7setNullEv@Base 2.4.1
 _ZN4CVC35CDMapINS_4ExprENS_14TheoryArithNew9BoundInfoEN4Hash4hashIS1_EEE8makeCopyEPNS_20ContextMemoryManagerE@Base 2.4.1
 _ZN4CVC35CDMapINS_4ExprENS_14TheoryArithNew9BoundInfoEN4Hash4hashIS1_EEED0Ev@Base 2.4.1
 _ZN4CVC35CDMapINS_4ExprENS_14TheoryArithNew9BoundInfoEN4Hash4hashIS1_EEED1Ev@Base 2.4.1
 _ZN4CVC35CDMapINS_4ExprENS_14TheoryArithNew9BoundInfoEN4Hash4hashIS1_EEED2Ev@Base 2.4.1
 _ZN4CVC35CDMapINS_4ExprENS_14TheoryArithNew9BoundInfoEN4Hash4hashIS1_EEEixERKS1_@Base 2.4.1
 _ZN4CVC35CDMapINS_4ExprENS_14TheoryArithNew9FreeConstEN4Hash4hashIS1_EEE11restoreDataEPNS_10ContextObjE@Base 2.4.1
 _ZN4CVC35CDMapINS_4ExprENS_14TheoryArithNew9FreeConstEN4Hash4hashIS1_EEE7setNullEv@Base 2.4.1
 _ZN4CVC35CDMapINS_4ExprENS_14TheoryArithNew9FreeConstEN4Hash4hashIS1_EEE8makeCopyEPNS_20ContextMemoryManagerE@Base 2.4.1
 _ZN4CVC35CDMapINS_4ExprENS_14TheoryArithNew9FreeConstEN4Hash4hashIS1_EEED0Ev@Base 2.4.1
 _ZN4CVC35CDMapINS_4ExprENS_14TheoryArithNew9FreeConstEN4Hash4hashIS1_EEED1Ev@Base 2.4.1
 _ZN4CVC35CDMapINS_4ExprENS_14TheoryArithNew9FreeConstEN4Hash4hashIS1_EEED2Ev@Base 2.4.1
 _ZN4CVC35CDMapINS_4ExprENS_14TheoryArithOld20DifferenceLogicGraph11EpsRationalEN4Hash4hashIS1_EEE11restoreDataEPNS_10ContextObjE@Base 2.4.1
 _ZN4CVC35CDMapINS_4ExprENS_14TheoryArithOld20DifferenceLogicGraph11EpsRationalEN4Hash4hashIS1_EEE7setNullEv@Base 2.4.1
 _ZN4CVC35CDMapINS_4ExprENS_14TheoryArithOld20DifferenceLogicGraph11EpsRationalEN4Hash4hashIS1_EEE8makeCopyEPNS_20ContextMemoryManagerE@Base 2.4.1
 _ZN4CVC35CDMapINS_4ExprENS_14TheoryArithOld20DifferenceLogicGraph11EpsRationalEN4Hash4hashIS1_EEED0Ev@Base 2.4.1
 _ZN4CVC35CDMapINS_4ExprENS_14TheoryArithOld20DifferenceLogicGraph11EpsRationalEN4Hash4hashIS1_EEED1Ev@Base 2.4.1
 _ZN4CVC35CDMapINS_4ExprENS_14TheoryArithOld20DifferenceLogicGraph11EpsRationalEN4Hash4hashIS1_EEED2Ev@Base 2.4.1
 _ZN4CVC35CDMapINS_4ExprENS_14TheoryArithOld20DifferenceLogicGraph11EpsRationalEN4Hash4hashIS1_EEEixERKS1_@Base 2.4.1
 _ZN4CVC35CDMapINS_4ExprENS_14TheoryArithOld20DifferenceLogicGraph8EdgeInfoEN4Hash4hashIS1_EEE11restoreDataEPNS_10ContextObjE@Base 2.4.1
 _ZN4CVC35CDMapINS_4ExprENS_14TheoryArithOld20DifferenceLogicGraph8EdgeInfoEN4Hash4hashIS1_EEE7setNullEv@Base 2.4.1
 _ZN4CVC35CDMapINS_4ExprENS_14TheoryArithOld20DifferenceLogicGraph8EdgeInfoEN4Hash4hashIS1_EEE8makeCopyEPNS_20ContextMemoryManagerE@Base 2.4.1
 _ZN4CVC35CDMapINS_4ExprENS_14TheoryArithOld20DifferenceLogicGraph8EdgeInfoEN4Hash4hashIS1_EEED0Ev@Base 2.4.1
 _ZN4CVC35CDMapINS_4ExprENS_14TheoryArithOld20DifferenceLogicGraph8EdgeInfoEN4Hash4hashIS1_EEED1Ev@Base 2.4.1
 _ZN4CVC35CDMapINS_4ExprENS_14TheoryArithOld20DifferenceLogicGraph8EdgeInfoEN4Hash4hashIS1_EEED2Ev@Base 2.4.1
 _ZN4CVC35CDMapINS_4ExprENS_14TheoryArithOld9FreeConstEN4Hash4hashIS1_EEE11restoreDataEPNS_10ContextObjE@Base 2.4.1
 _ZN4CVC35CDMapINS_4ExprENS_14TheoryArithOld9FreeConstEN4Hash4hashIS1_EEE7setNullEv@Base 2.4.1
 _ZN4CVC35CDMapINS_4ExprENS_14TheoryArithOld9FreeConstEN4Hash4hashIS1_EEE8makeCopyEPNS_20ContextMemoryManagerE@Base 2.4.1
 _ZN4CVC35CDMapINS_4ExprENS_14TheoryArithOld9FreeConstEN4Hash4hashIS1_EEED0Ev@Base 2.4.1
 _ZN4CVC35CDMapINS_4ExprENS_14TheoryArithOld9FreeConstEN4Hash4hashIS1_EEED1Ev@Base 2.4.1
 _ZN4CVC35CDMapINS_4ExprENS_14TheoryArithOld9FreeConstEN4Hash4hashIS1_EEED2Ev@Base 2.4.1
 _ZN4CVC35CDMapINS_4ExprENS_14TheoryArithOld9FreeConstEN4Hash4hashIS1_EEEixERKS1_@Base 2.4.1
 _ZN4CVC35CDMapINS_4ExprENS_3VCL13UserAssertionEN4Hash4hashIS1_EEE10emptyTrashEv@Base 2.4.1
 _ZN4CVC35CDMapINS_4ExprENS_3VCL13UserAssertionEN4Hash4hashIS1_EEE11restoreDataEPNS_10ContextObjE@Base 2.4.1
 _ZN4CVC35CDMapINS_4ExprENS_3VCL13UserAssertionEN4Hash4hashIS1_EEE7setNullEv@Base 2.4.1
 _ZN4CVC35CDMapINS_4ExprENS_3VCL13UserAssertionEN4Hash4hashIS1_EEE8makeCopyEPNS_20ContextMemoryManagerE@Base 2.4.1
 _ZN4CVC35CDMapINS_4ExprENS_3VCL13UserAssertionEN4Hash4hashIS1_EEED0Ev@Base 2.4.1
 _ZN4CVC35CDMapINS_4ExprENS_3VCL13UserAssertionEN4Hash4hashIS1_EEED1Ev@Base 2.4.1
 _ZN4CVC35CDMapINS_4ExprENS_3VCL13UserAssertionEN4Hash4hashIS1_EEED2Ev@Base 2.4.1
 _ZN4CVC35CDMapINS_4ExprENS_3VCL13UserAssertionEN4Hash4hashIS1_EEEixERKS1_@Base 2.4.1
 _ZN4CVC35CDMapINS_4ExprENS_7LiteralEN4Hash4hashIS1_EEE10emptyTrashEv@Base 2.4.1
 _ZN4CVC35CDMapINS_4ExprENS_7LiteralEN4Hash4hashIS1_EEE11restoreDataEPNS_10ContextObjE@Base 2.4.1
 _ZN4CVC35CDMapINS_4ExprENS_7LiteralEN4Hash4hashIS1_EEE7setNullEv@Base 2.4.1
 _ZN4CVC35CDMapINS_4ExprENS_7LiteralEN4Hash4hashIS1_EEE8makeCopyEPNS_20ContextMemoryManagerE@Base 2.4.1
 _ZN4CVC35CDMapINS_4ExprENS_7LiteralEN4Hash4hashIS1_EEED0Ev@Base 2.4.1
 _ZN4CVC35CDMapINS_4ExprENS_7LiteralEN4Hash4hashIS1_EEED1Ev@Base 2.4.1
 _ZN4CVC35CDMapINS_4ExprENS_7LiteralEN4Hash4hashIS1_EEED2Ev@Base 2.4.1
 _ZN4CVC35CDMapINS_4ExprENS_7TheoremEN4Hash4hashIS1_EEE10emptyTrashEv@Base 2.4.1
 _ZN4CVC35CDMapINS_4ExprENS_7TheoremEN4Hash4hashIS1_EEE11restoreDataEPNS_10ContextObjE@Base 2.4.1
 _ZN4CVC35CDMapINS_4ExprENS_7TheoremEN4Hash4hashIS1_EEE6insertERKS1_RKS2_i@Base 2.4.1
 _ZN4CVC35CDMapINS_4ExprENS_7TheoremEN4Hash4hashIS1_EEE7setNullEv@Base 2.4.1
 _ZN4CVC35CDMapINS_4ExprENS_7TheoremEN4Hash4hashIS1_EEE8makeCopyEPNS_20ContextMemoryManagerE@Base 2.4.1
 _ZN4CVC35CDMapINS_4ExprENS_7TheoremEN4Hash4hashIS1_EEED0Ev@Base 2.4.1
 _ZN4CVC35CDMapINS_4ExprENS_7TheoremEN4Hash4hashIS1_EEED1Ev@Base 2.4.1
 _ZN4CVC35CDMapINS_4ExprENS_7TheoremEN4Hash4hashIS1_EEED2Ev@Base 2.4.1
 _ZN4CVC35CDMapINS_4ExprENS_7TheoremEN4Hash4hashIS1_EEEixERKS1_@Base 2.4.1
 _ZN4CVC35CDMapINS_4ExprENS_8RationalEN4Hash4hashIS1_EEE11restoreDataEPNS_10ContextObjE@Base 2.4.1
 _ZN4CVC35CDMapINS_4ExprENS_8RationalEN4Hash4hashIS1_EEE7setNullEv@Base 2.4.1
 _ZN4CVC35CDMapINS_4ExprENS_8RationalEN4Hash4hashIS1_EEE8makeCopyEPNS_20ContextMemoryManagerE@Base 2.4.1
 _ZN4CVC35CDMapINS_4ExprENS_8RationalEN4Hash4hashIS1_EEED0Ev@Base 2.4.1
 _ZN4CVC35CDMapINS_4ExprENS_8RationalEN4Hash4hashIS1_EEED1Ev@Base 2.4.1
 _ZN4CVC35CDMapINS_4ExprENS_8RationalEN4Hash4hashIS1_EEED2Ev@Base 2.4.1
 _ZN4CVC35CDMapINS_4ExprENS_8RationalEN4Hash4hashIS1_EEEixERKS1_@Base 2.4.1
 _ZN4CVC35CDMapINS_4ExprENS_8SmartCDOINS_8UnsignedEEEN4Hash4hashIS1_EEE10emptyTrashEv@Base 2.4.1
 _ZN4CVC35CDMapINS_4ExprENS_8SmartCDOINS_8UnsignedEEEN4Hash4hashIS1_EEE11restoreDataEPNS_10ContextObjE@Base 2.4.1
 _ZN4CVC35CDMapINS_4ExprENS_8SmartCDOINS_8UnsignedEEEN4Hash4hashIS1_EEE6insertERKS1_RKS4_i@Base 2.4.1
 _ZN4CVC35CDMapINS_4ExprENS_8SmartCDOINS_8UnsignedEEEN4Hash4hashIS1_EEE7setNullEv@Base 2.4.1
 _ZN4CVC35CDMapINS_4ExprENS_8SmartCDOINS_8UnsignedEEEN4Hash4hashIS1_EEE8makeCopyEPNS_20ContextMemoryManagerE@Base 2.4.1
 _ZN4CVC35CDMapINS_4ExprENS_8SmartCDOINS_8UnsignedEEEN4Hash4hashIS1_EEED0Ev@Base 2.4.1
 _ZN4CVC35CDMapINS_4ExprENS_8SmartCDOINS_8UnsignedEEEN4Hash4hashIS1_EEED1Ev@Base 2.4.1
 _ZN4CVC35CDMapINS_4ExprENS_8SmartCDOINS_8UnsignedEEEN4Hash4hashIS1_EEED2Ev@Base 2.4.1
 _ZN4CVC35CDMapINS_4ExprENS_8SmartCDOINS_8UnsignedEEEN4Hash4hashIS1_EEEixERKS1_@Base 2.4.1
 _ZN4CVC35CDMapINS_4ExprEPNS_6CDListINS_7dynTrigEEEN4Hash4hashIS1_EEE11restoreDataEPNS_10ContextObjE@Base 2.4.1
 _ZN4CVC35CDMapINS_4ExprEPNS_6CDListINS_7dynTrigEEEN4Hash4hashIS1_EEE7setNullEv@Base 2.4.1
 _ZN4CVC35CDMapINS_4ExprEPNS_6CDListINS_7dynTrigEEEN4Hash4hashIS1_EEE8makeCopyEPNS_20ContextMemoryManagerE@Base 2.4.1
 _ZN4CVC35CDMapINS_4ExprEPNS_6CDListINS_7dynTrigEEEN4Hash4hashIS1_EEED0Ev@Base 2.4.1
 _ZN4CVC35CDMapINS_4ExprEPNS_6CDListINS_7dynTrigEEEN4Hash4hashIS1_EEED1Ev@Base 2.4.1
 _ZN4CVC35CDMapINS_4ExprEPNS_6CDListINS_7dynTrigEEEN4Hash4hashIS1_EEED2Ev@Base 2.4.1
 _ZN4CVC35CDMapINS_4ExprEPNS_6CDListINS_7dynTrigEEEN4Hash4hashIS1_EEEixERKS1_@Base 2.4.1
 _ZN4CVC35CDMapINS_4ExprES1_N4Hash4hashIS1_EEE11restoreDataEPNS_10ContextObjE@Base 2.4.1
 _ZN4CVC35CDMapINS_4ExprES1_N4Hash4hashIS1_EEE7setNullEv@Base 2.4.1
 _ZN4CVC35CDMapINS_4ExprES1_N4Hash4hashIS1_EEE8makeCopyEPNS_20ContextMemoryManagerE@Base 2.4.1
 _ZN4CVC35CDMapINS_4ExprES1_N4Hash4hashIS1_EEED0Ev@Base 2.4.1
 _ZN4CVC35CDMapINS_4ExprES1_N4Hash4hashIS1_EEED1Ev@Base 2.4.1
 _ZN4CVC35CDMapINS_4ExprES1_N4Hash4hashIS1_EEED2Ev@Base 2.4.1
 _ZN4CVC35CDMapINS_4ExprES1_N4Hash4hashIS1_EEEixERKS1_@Base 2.4.1
 _ZN4CVC35CDMapINS_4ExprESt3setISt6vectorIS1_SaIS1_EESt4lessIS5_ESaIS5_EEN4Hash4hashIS1_EEE11restoreDataEPNS_10ContextObjE@Base 2.4.1
 _ZN4CVC35CDMapINS_4ExprESt3setISt6vectorIS1_SaIS1_EESt4lessIS5_ESaIS5_EEN4Hash4hashIS1_EEE7setNullEv@Base 2.4.1
 _ZN4CVC35CDMapINS_4ExprESt3setISt6vectorIS1_SaIS1_EESt4lessIS5_ESaIS5_EEN4Hash4hashIS1_EEE8makeCopyEPNS_20ContextMemoryManagerE@Base 2.4.1
 _ZN4CVC35CDMapINS_4ExprESt3setISt6vectorIS1_SaIS1_EESt4lessIS5_ESaIS5_EEN4Hash4hashIS1_EEED0Ev@Base 2.4.1
 _ZN4CVC35CDMapINS_4ExprESt3setISt6vectorIS1_SaIS1_EESt4lessIS5_ESaIS5_EEN4Hash4hashIS1_EEED1Ev@Base 2.4.1
 _ZN4CVC35CDMapINS_4ExprESt3setISt6vectorIS1_SaIS1_EESt4lessIS5_ESaIS5_EEN4Hash4hashIS1_EEED2Ev@Base 2.4.1
 _ZN4CVC35CDMapINS_4ExprESt6vectorIS1_SaIS1_EEN4Hash4hashIS1_EEE11restoreDataEPNS_10ContextObjE@Base 2.4.1
 _ZN4CVC35CDMapINS_4ExprESt6vectorIS1_SaIS1_EEN4Hash4hashIS1_EEE7setNullEv@Base 2.4.1
 _ZN4CVC35CDMapINS_4ExprESt6vectorIS1_SaIS1_EEN4Hash4hashIS1_EEE8makeCopyEPNS_20ContextMemoryManagerE@Base 2.4.1
 _ZN4CVC35CDMapINS_4ExprESt6vectorIS1_SaIS1_EEN4Hash4hashIS1_EEED0Ev@Base 2.4.1
 _ZN4CVC35CDMapINS_4ExprESt6vectorIS1_SaIS1_EEN4Hash4hashIS1_EEED1Ev@Base 2.4.1
 _ZN4CVC35CDMapINS_4ExprESt6vectorIS1_SaIS1_EEN4Hash4hashIS1_EEED2Ev@Base 2.4.1
 _ZN4CVC35CDMapINS_4ExprESt6vectorIS1_SaIS1_EEN4Hash4hashIS1_EEEixERKS1_@Base 2.4.1
 _ZN4CVC35CDMapINS_4ExprEbN4Hash4hashIS1_EEE11restoreDataEPNS_10ContextObjE@Base 2.4.1
 _ZN4CVC35CDMapINS_4ExprEbN4Hash4hashIS1_EEE7setNullEv@Base 2.4.1
 _ZN4CVC35CDMapINS_4ExprEbN4Hash4hashIS1_EEE8makeCopyEPNS_20ContextMemoryManagerE@Base 2.4.1
 _ZN4CVC35CDMapINS_4ExprEbN4Hash4hashIS1_EEEC1EPNS_7ContextEi@Base 2.4.1
 _ZN4CVC35CDMapINS_4ExprEbN4Hash4hashIS1_EEEC2EPNS_7ContextEi@Base 2.4.1
 _ZN4CVC35CDMapINS_4ExprEbN4Hash4hashIS1_EEED0Ev@Base 2.4.1
 _ZN4CVC35CDMapINS_4ExprEbN4Hash4hashIS1_EEED1Ev@Base 2.4.1
 _ZN4CVC35CDMapINS_4ExprEbN4Hash4hashIS1_EEED2Ev@Base 2.4.1
 _ZN4CVC35CDMapINS_4ExprEbN4Hash4hashIS1_EEEixERKS1_@Base 2.4.1
 _ZN4CVC35CDMapINS_4ExprEiN4Hash4hashIS1_EEE11restoreDataEPNS_10ContextObjE@Base 2.4.1
 _ZN4CVC35CDMapINS_4ExprEiN4Hash4hashIS1_EEE7setNullEv@Base 2.4.1
 _ZN4CVC35CDMapINS_4ExprEiN4Hash4hashIS1_EEE8makeCopyEPNS_20ContextMemoryManagerE@Base 2.4.1
 _ZN4CVC35CDMapINS_4ExprEiN4Hash4hashIS1_EEED0Ev@Base 2.4.1
 _ZN4CVC35CDMapINS_4ExprEiN4Hash4hashIS1_EEED1Ev@Base 2.4.1
 _ZN4CVC35CDMapINS_4ExprEiN4Hash4hashIS1_EEED2Ev@Base 2.4.1
 _ZN4CVC35CDMapINS_4ExprEiN4Hash4hashIS1_EEEixERKS1_@Base 2.4.1
 _ZN4CVC35CDMapISsbN4Hash4hashISsEEE11restoreDataEPNS_10ContextObjE@Base 2.4.1
 _ZN4CVC35CDMapISsbN4Hash4hashISsEEE7setNullEv@Base 2.4.1
 _ZN4CVC35CDMapISsbN4Hash4hashISsEEE8makeCopyEPNS_20ContextMemoryManagerE@Base 2.4.1
 _ZN4CVC35CDMapISsbN4Hash4hashISsEEED0Ev@Base 2.4.1
 _ZN4CVC35CDMapISsbN4Hash4hashISsEEED1Ev@Base 2.4.1
 _ZN4CVC35CDMapISsbN4Hash4hashISsEEED2Ev@Base 2.4.1
 _ZN4CVC35ProofD1Ev@Base 2.4.1
 _ZN4CVC35ProofD2Ev@Base 2.4.1
 _ZN4CVC35Scope10addToChainEPNS_15ContextObjChainE@Base 2.4.1
 _ZN4CVC35Scope5checkEv@Base 2.4.1
 _ZN4CVC35Scope8finalizeEv@Base 2.4.1
 _ZN4CVC35Scope9getMemoryEi@Base 2.4.1
 _ZN4CVC35VCCmd10findAxiomsERKNS_4ExprERNS_7ExprMapIbEES6_@Base 2.4.1
 _ZN4CVC35VCCmd10printModelEv@Base 2.4.1
 _ZN4CVC35VCCmd11skolemizeAxERKNS_4ExprE@Base 2.4.1
 _ZN4CVC35VCCmd12evaluateNextEv@Base 2.4.1
 _ZN4CVC35VCCmd12printSymbolsENS_4ExprERNS_7ExprMapIbEE@Base 2.4.1
 _ZN4CVC35VCCmd12reportResultENS_11QueryResultEb@Base 2.4.1
 _ZN4CVC35VCCmd15evaluateCommandERKNS_4ExprE@Base 2.4.1
 _ZN4CVC35VCCmd15processCommandsEv@Base 2.4.1
 _ZN4CVC35VCCmd19printCounterExampleEv@Base 2.4.1
 _ZN4CVC35VCCmdC1EPNS_15ValidityCheckerEPNS_6ParserEb@Base 2.4.1
 _ZN4CVC35VCCmdC2EPNS_15ValidityCheckerEPNS_6ParserEb@Base 2.4.1
 _ZN4CVC35VCCmdD1Ev@Base 2.4.1
 _ZN4CVC35VCCmdD2Ev@Base 2.4.1
 _ZN4CVC35floorERKNS_8RationalE@Base 2.4.1
 _ZN4CVC35nodagERNS_10ExprStreamE@Base 2.4.1
 _ZN4CVC35resetERNS_10ExprStreamE@Base 2.4.1
 _ZN4CVC35sort2INS_4ExprEEEvRSt6vectorISsSaISsEERS2_IT_SaIS6_EE@Base 2.4.1
 _ZN4CVC35sort2INS_4TypeEEEvRSt6vectorISsSaISsEERS2_IT_SaIS6_EE@Base 2.4.1
 _ZN4CVC35spaceERNS_10ExprStreamE@Base 2.4.1
 _ZN4CVC36CDListIN3SAT6ClauseEE11restoreDataEPNS_10ContextObjE@Base 2.4.1
 _ZN4CVC36CDListIN3SAT6ClauseEE7setNullEv@Base 2.4.1
 _ZN4CVC36CDListIN3SAT6ClauseEE8makeCopyEPNS_20ContextMemoryManagerE@Base 2.4.1
 _ZN4CVC36CDListIN3SAT6ClauseEED0Ev@Base 2.4.1
 _ZN4CVC36CDListIN3SAT6ClauseEED1Ev@Base 2.4.1
 _ZN4CVC36CDListIN3SAT6ClauseEED2Ev@Base 2.4.1
 _ZN4CVC36CDListINS_11ClauseOwnerEE11restoreDataEPNS_10ContextObjE@Base 2.4.1
 _ZN4CVC36CDListINS_11ClauseOwnerEE7setNullEv@Base 2.4.1
 _ZN4CVC36CDListINS_11ClauseOwnerEE8makeCopyEPNS_20ContextMemoryManagerE@Base 2.4.1
 _ZN4CVC36CDListINS_11ClauseOwnerEED0Ev@Base 2.4.1
 _ZN4CVC36CDListINS_11ClauseOwnerEED1Ev@Base 2.4.1
 _ZN4CVC36CDListINS_11ClauseOwnerEED2Ev@Base 2.4.1
 _ZN4CVC36CDListINS_12TheoryArith34IneqEE11restoreDataEPNS_10ContextObjE@Base 2.4.1
 _ZN4CVC36CDListINS_12TheoryArith34IneqEE7setNullEv@Base 2.4.1
 _ZN4CVC36CDListINS_12TheoryArith34IneqEE8makeCopyEPNS_20ContextMemoryManagerE@Base 2.4.1
 _ZN4CVC36CDListINS_12TheoryArith34IneqEED0Ev@Base 2.4.1
 _ZN4CVC36CDListINS_12TheoryArith34IneqEED1Ev@Base 2.4.1
 _ZN4CVC36CDListINS_12TheoryArith34IneqEED2Ev@Base 2.4.1
 _ZN4CVC36CDListINS_14SearchImplBase8SplitterEE11restoreDataEPNS_10ContextObjE@Base 2.4.1
 _ZN4CVC36CDListINS_14SearchImplBase8SplitterEE7setNullEv@Base 2.4.1
 _ZN4CVC36CDListINS_14SearchImplBase8SplitterEE8makeCopyEPNS_20ContextMemoryManagerE@Base 2.4.1
 _ZN4CVC36CDListINS_14SearchImplBase8SplitterEED0Ev@Base 2.4.1
 _ZN4CVC36CDListINS_14SearchImplBase8SplitterEED1Ev@Base 2.4.1
 _ZN4CVC36CDListINS_14SearchImplBase8SplitterEED2Ev@Base 2.4.1
 _ZN4CVC36CDListINS_14TheoryArithNew4IneqEE11restoreDataEPNS_10ContextObjE@Base 2.4.1
 _ZN4CVC36CDListINS_14TheoryArithNew4IneqEE7setNullEv@Base 2.4.1
 _ZN4CVC36CDListINS_14TheoryArithNew4IneqEE8makeCopyEPNS_20ContextMemoryManagerE@Base 2.4.1
 _ZN4CVC36CDListINS_14TheoryArithNew4IneqEED0Ev@Base 2.4.1
 _ZN4CVC36CDListINS_14TheoryArithNew4IneqEED1Ev@Base 2.4.1
 _ZN4CVC36CDListINS_14TheoryArithNew4IneqEED2Ev@Base 2.4.1
 _ZN4CVC36CDListINS_14TheoryArithOld4IneqEE11restoreDataEPNS_10ContextObjE@Base 2.4.1
 _ZN4CVC36CDListINS_14TheoryArithOld4IneqEE7setNullEv@Base 2.4.1
 _ZN4CVC36CDListINS_14TheoryArithOld4IneqEE8makeCopyEPNS_20ContextMemoryManagerE@Base 2.4.1
 _ZN4CVC36CDListINS_14TheoryArithOld4IneqEED0Ev@Base 2.4.1
 _ZN4CVC36CDListINS_14TheoryArithOld4IneqEED1Ev@Base 2.4.1
 _ZN4CVC36CDListINS_14TheoryArithOld4IneqEED2Ev@Base 2.4.1
 _ZN4CVC36CDListINS_18TheoryDatatypeLazy12ProcessKindsEE11restoreDataEPNS_10ContextObjE@Base 2.4.1
 _ZN4CVC36CDListINS_18TheoryDatatypeLazy12ProcessKindsEE7setNullEv@Base 2.4.1
 _ZN4CVC36CDListINS_18TheoryDatatypeLazy12ProcessKindsEE8makeCopyEPNS_20ContextMemoryManagerE@Base 2.4.1
 _ZN4CVC36CDListINS_18TheoryDatatypeLazy12ProcessKindsEE9push_backERKS2_i@Base 2.4.1
 _ZN4CVC36CDListINS_18TheoryDatatypeLazy12ProcessKindsEED0Ev@Base 2.4.1
 _ZN4CVC36CDListINS_18TheoryDatatypeLazy12ProcessKindsEED1Ev@Base 2.4.1
 _ZN4CVC36CDListINS_18TheoryDatatypeLazy12ProcessKindsEED2Ev@Base 2.4.1
 _ZN4CVC36CDListINS_4ExprEE11restoreDataEPNS_10ContextObjE@Base 2.4.1
 _ZN4CVC36CDListINS_4ExprEE7setNullEv@Base 2.4.1
 _ZN4CVC36CDListINS_4ExprEE8makeCopyEPNS_20ContextMemoryManagerE@Base 2.4.1
 _ZN4CVC36CDListINS_4ExprEE9push_backERKS1_i@Base 2.4.1
 _ZN4CVC36CDListINS_4ExprEEC1EPNS_7ContextE@Base 2.4.1
 _ZN4CVC36CDListINS_4ExprEEC2EPNS_7ContextE@Base 2.4.1
 _ZN4CVC36CDListINS_4ExprEED0Ev@Base 2.4.1
 _ZN4CVC36CDListINS_4ExprEED1Ev@Base 2.4.1
 _ZN4CVC36CDListINS_4ExprEED2Ev@Base 2.4.1
 _ZN4CVC36CDListINS_7LiteralEE11restoreDataEPNS_10ContextObjE@Base 2.4.1
 _ZN4CVC36CDListINS_7LiteralEE7setNullEv@Base 2.4.1
 _ZN4CVC36CDListINS_7LiteralEE8makeCopyEPNS_20ContextMemoryManagerE@Base 2.4.1
 _ZN4CVC36CDListINS_7LiteralEED0Ev@Base 2.4.1
 _ZN4CVC36CDListINS_7LiteralEED1Ev@Base 2.4.1
 _ZN4CVC36CDListINS_7LiteralEED2Ev@Base 2.4.1
 _ZN4CVC36CDListINS_7TheoremEE11restoreDataEPNS_10ContextObjE@Base 2.4.1
 _ZN4CVC36CDListINS_7TheoremEE7setNullEv@Base 2.4.1
 _ZN4CVC36CDListINS_7TheoremEE8makeCopyEPNS_20ContextMemoryManagerE@Base 2.4.1
 _ZN4CVC36CDListINS_7TheoremEE9push_backERKS1_i@Base 2.4.1
 _ZN4CVC36CDListINS_7TheoremEEC1EPNS_7ContextE@Base 2.4.1
 _ZN4CVC36CDListINS_7TheoremEEC2EPNS_7ContextE@Base 2.4.1
 _ZN4CVC36CDListINS_7TheoremEED0Ev@Base 2.4.1
 _ZN4CVC36CDListINS_7TheoremEED1Ev@Base 2.4.1
 _ZN4CVC36CDListINS_7TheoremEED2Ev@Base 2.4.1
 _ZN4CVC36CDListINS_7TriggerEE11restoreDataEPNS_10ContextObjE@Base 2.4.1
 _ZN4CVC36CDListINS_7TriggerEE7setNullEv@Base 2.4.1
 _ZN4CVC36CDListINS_7TriggerEE8makeCopyEPNS_20ContextMemoryManagerE@Base 2.4.1
 _ZN4CVC36CDListINS_7TriggerEED0Ev@Base 2.4.1
 _ZN4CVC36CDListINS_7TriggerEED1Ev@Base 2.4.1
 _ZN4CVC36CDListINS_7TriggerEED2Ev@Base 2.4.1
 _ZN4CVC36CDListINS_7dynTrigEE11restoreDataEPNS_10ContextObjE@Base 2.4.1
 _ZN4CVC36CDListINS_7dynTrigEE7setNullEv@Base 2.4.1
 _ZN4CVC36CDListINS_7dynTrigEE8makeCopyEPNS_20ContextMemoryManagerE@Base 2.4.1
 _ZN4CVC36CDListINS_7dynTrigEE9push_backERKS1_i@Base 2.4.1
 _ZN4CVC36CDListINS_7dynTrigEEC1EPNS_7ContextE@Base 2.4.1
 _ZN4CVC36CDListINS_7dynTrigEEC2EPNS_7ContextE@Base 2.4.1
 _ZN4CVC36CDListINS_7dynTrigEED0Ev@Base 2.4.1
 _ZN4CVC36CDListINS_7dynTrigEED1Ev@Base 2.4.1
 _ZN4CVC36CDListINS_7dynTrigEED2Ev@Base 2.4.1
 _ZN4CVC36CDListINS_8SmartCDOINS_7TheoremEEEE11restoreDataEPNS_10ContextObjE@Base 2.4.1
 _ZN4CVC36CDListINS_8SmartCDOINS_7TheoremEEEE7setNullEv@Base 2.4.1
 _ZN4CVC36CDListINS_8SmartCDOINS_7TheoremEEEE8makeCopyEPNS_20ContextMemoryManagerE@Base 2.4.1
 _ZN4CVC36CDListINS_8SmartCDOINS_7TheoremEEEED0Ev@Base 2.4.1
 _ZN4CVC36CDListINS_8SmartCDOINS_7TheoremEEEED1Ev@Base 2.4.1
 _ZN4CVC36CDListINS_8SmartCDOINS_7TheoremEEEED2Ev@Base 2.4.1
 _ZN4CVC36CDListIPNS_6TheoryEE11restoreDataEPNS_10ContextObjE@Base 2.4.1
 _ZN4CVC36CDListIPNS_6TheoryEE7setNullEv@Base 2.4.1
 _ZN4CVC36CDListIPNS_6TheoryEE8makeCopyEPNS_20ContextMemoryManagerE@Base 2.4.1
 _ZN4CVC36CDListIPNS_6TheoryEED0Ev@Base 2.4.1
 _ZN4CVC36CDListIPNS_6TheoryEED1Ev@Base 2.4.1
 _ZN4CVC36CDListIPNS_6TheoryEED2Ev@Base 2.4.1
 _ZN4CVC36CDListImE11restoreDataEPNS_10ContextObjE@Base 2.4.1
 _ZN4CVC36CDListImE7setNullEv@Base 2.4.1
 _ZN4CVC36CDListImE8makeCopyEPNS_20ContextMemoryManagerE@Base 2.4.1
 _ZN4CVC36CDListImE9push_backERKmi@Base 2.4.1
 _ZN4CVC36CDListImEC1EPNS_7ContextE@Base 2.4.1
 _ZN4CVC36CDListImEC2EPNS_7ContextE@Base 2.4.1
 _ZN4CVC36CDListImED0Ev@Base 2.4.1
 _ZN4CVC36CDListImED1Ev@Base 2.4.1
 _ZN4CVC36CDListImED2Ev@Base 2.4.1
 _ZN4CVC36CDOmapINS_4ExprENS_12TheoryArith39FreeConstEN4Hash4hashIS1_EEE11restoreDataEPNS_10ContextObjE@Base 2.4.1
 _ZN4CVC36CDOmapINS_4ExprENS_12TheoryArith39FreeConstEN4Hash4hashIS1_EEE7setNullEv@Base 2.4.1
 _ZN4CVC36CDOmapINS_4ExprENS_12TheoryArith39FreeConstEN4Hash4hashIS1_EEE8makeCopyEPNS_20ContextMemoryManagerE@Base 2.4.1
 _ZN4CVC36CDOmapINS_4ExprENS_12TheoryArith39FreeConstEN4Hash4hashIS1_EEED0Ev@Base 2.4.1
 _ZN4CVC36CDOmapINS_4ExprENS_12TheoryArith39FreeConstEN4Hash4hashIS1_EEED1Ev@Base 2.4.1
 _ZN4CVC36CDOmapINS_4ExprENS_12TheoryArith39FreeConstEN4Hash4hashIS1_EEED2Ev@Base 2.4.1
 _ZN4CVC36CDOmapINS_4ExprENS_14TheoryArithNew11EpsRationalEN4Hash4hashIS1_EEE11restoreDataEPNS_10ContextObjE@Base 2.4.1
 _ZN4CVC36CDOmapINS_4ExprENS_14TheoryArithNew11EpsRationalEN4Hash4hashIS1_EEE7setNullEv@Base 2.4.1
 _ZN4CVC36CDOmapINS_4ExprENS_14TheoryArithNew11EpsRationalEN4Hash4hashIS1_EEE8makeCopyEPNS_20ContextMemoryManagerE@Base 2.4.1
 _ZN4CVC36CDOmapINS_4ExprENS_14TheoryArithNew11EpsRationalEN4Hash4hashIS1_EEED0Ev@Base 2.4.1
 _ZN4CVC36CDOmapINS_4ExprENS_14TheoryArithNew11EpsRationalEN4Hash4hashIS1_EEED1Ev@Base 2.4.1
 _ZN4CVC36CDOmapINS_4ExprENS_14TheoryArithNew11EpsRationalEN4Hash4hashIS1_EEED2Ev@Base 2.4.1
 _ZN4CVC36CDOmapINS_4ExprENS_14TheoryArithNew9BoundInfoEN4Hash4hashIS1_EEE11restoreDataEPNS_10ContextObjE@Base 2.4.1
 _ZN4CVC36CDOmapINS_4ExprENS_14TheoryArithNew9BoundInfoEN4Hash4hashIS1_EEE7setNullEv@Base 2.4.1
 _ZN4CVC36CDOmapINS_4ExprENS_14TheoryArithNew9BoundInfoEN4Hash4hashIS1_EEE8makeCopyEPNS_20ContextMemoryManagerE@Base 2.4.1
 _ZN4CVC36CDOmapINS_4ExprENS_14TheoryArithNew9BoundInfoEN4Hash4hashIS1_EEED0Ev@Base 2.4.1
 _ZN4CVC36CDOmapINS_4ExprENS_14TheoryArithNew9BoundInfoEN4Hash4hashIS1_EEED1Ev@Base 2.4.1
 _ZN4CVC36CDOmapINS_4ExprENS_14TheoryArithNew9BoundInfoEN4Hash4hashIS1_EEED2Ev@Base 2.4.1
 _ZN4CVC36CDOmapINS_4ExprENS_14TheoryArithNew9FreeConstEN4Hash4hashIS1_EEE11restoreDataEPNS_10ContextObjE@Base 2.4.1
 _ZN4CVC36CDOmapINS_4ExprENS_14TheoryArithNew9FreeConstEN4Hash4hashIS1_EEE7setNullEv@Base 2.4.1
 _ZN4CVC36CDOmapINS_4ExprENS_14TheoryArithNew9FreeConstEN4Hash4hashIS1_EEE8makeCopyEPNS_20ContextMemoryManagerE@Base 2.4.1
 _ZN4CVC36CDOmapINS_4ExprENS_14TheoryArithNew9FreeConstEN4Hash4hashIS1_EEED0Ev@Base 2.4.1
 _ZN4CVC36CDOmapINS_4ExprENS_14TheoryArithNew9FreeConstEN4Hash4hashIS1_EEED1Ev@Base 2.4.1
 _ZN4CVC36CDOmapINS_4ExprENS_14TheoryArithNew9FreeConstEN4Hash4hashIS1_EEED2Ev@Base 2.4.1
 _ZN4CVC36CDOmapINS_4ExprENS_14TheoryArithOld20DifferenceLogicGraph11EpsRationalEN4Hash4hashIS1_EEE11restoreDataEPNS_10ContextObjE@Base 2.4.1
 _ZN4CVC36CDOmapINS_4ExprENS_14TheoryArithOld20DifferenceLogicGraph11EpsRationalEN4Hash4hashIS1_EEE7setNullEv@Base 2.4.1
 _ZN4CVC36CDOmapINS_4ExprENS_14TheoryArithOld20DifferenceLogicGraph11EpsRationalEN4Hash4hashIS1_EEE8makeCopyEPNS_20ContextMemoryManagerE@Base 2.4.1
 _ZN4CVC36CDOmapINS_4ExprENS_14TheoryArithOld20DifferenceLogicGraph11EpsRationalEN4Hash4hashIS1_EEED0Ev@Base 2.4.1
 _ZN4CVC36CDOmapINS_4ExprENS_14TheoryArithOld20DifferenceLogicGraph11EpsRationalEN4Hash4hashIS1_EEED1Ev@Base 2.4.1
 _ZN4CVC36CDOmapINS_4ExprENS_14TheoryArithOld20DifferenceLogicGraph11EpsRationalEN4Hash4hashIS1_EEED2Ev@Base 2.4.1
 _ZN4CVC36CDOmapINS_4ExprENS_14TheoryArithOld20DifferenceLogicGraph8EdgeInfoEN4Hash4hashIS1_EEE11restoreDataEPNS_10ContextObjE@Base 2.4.1
 _ZN4CVC36CDOmapINS_4ExprENS_14TheoryArithOld20DifferenceLogicGraph8EdgeInfoEN4Hash4hashIS1_EEE7setNullEv@Base 2.4.1
 _ZN4CVC36CDOmapINS_4ExprENS_14TheoryArithOld20DifferenceLogicGraph8EdgeInfoEN4Hash4hashIS1_EEE8makeCopyEPNS_20ContextMemoryManagerE@Base 2.4.1
 _ZN4CVC36CDOmapINS_4ExprENS_14TheoryArithOld20DifferenceLogicGraph8EdgeInfoEN4Hash4hashIS1_EEED0Ev@Base 2.4.1
 _ZN4CVC36CDOmapINS_4ExprENS_14TheoryArithOld20DifferenceLogicGraph8EdgeInfoEN4Hash4hashIS1_EEED1Ev@Base 2.4.1
 _ZN4CVC36CDOmapINS_4ExprENS_14TheoryArithOld20DifferenceLogicGraph8EdgeInfoEN4Hash4hashIS1_EEED2Ev@Base 2.4.1
 _ZN4CVC36CDOmapINS_4ExprENS_14TheoryArithOld9FreeConstEN4Hash4hashIS1_EEE11restoreDataEPNS_10ContextObjE@Base 2.4.1
 _ZN4CVC36CDOmapINS_4ExprENS_14TheoryArithOld9FreeConstEN4Hash4hashIS1_EEE7setNullEv@Base 2.4.1
 _ZN4CVC36CDOmapINS_4ExprENS_14TheoryArithOld9FreeConstEN4Hash4hashIS1_EEE8makeCopyEPNS_20ContextMemoryManagerE@Base 2.4.1
 _ZN4CVC36CDOmapINS_4ExprENS_14TheoryArithOld9FreeConstEN4Hash4hashIS1_EEED0Ev@Base 2.4.1
 _ZN4CVC36CDOmapINS_4ExprENS_14TheoryArithOld9FreeConstEN4Hash4hashIS1_EEED1Ev@Base 2.4.1
 _ZN4CVC36CDOmapINS_4ExprENS_14TheoryArithOld9FreeConstEN4Hash4hashIS1_EEED2Ev@Base 2.4.1
 _ZN4CVC36CDOmapINS_4ExprENS_3VCL13UserAssertionEN4Hash4hashIS1_EEE11restoreDataEPNS_10ContextObjE@Base 2.4.1
 _ZN4CVC36CDOmapINS_4ExprENS_3VCL13UserAssertionEN4Hash4hashIS1_EEE7setNullEv@Base 2.4.1
 _ZN4CVC36CDOmapINS_4ExprENS_3VCL13UserAssertionEN4Hash4hashIS1_EEE8makeCopyEPNS_20ContextMemoryManagerE@Base 2.4.1
 _ZN4CVC36CDOmapINS_4ExprENS_3VCL13UserAssertionEN4Hash4hashIS1_EEED0Ev@Base 2.4.1
 _ZN4CVC36CDOmapINS_4ExprENS_3VCL13UserAssertionEN4Hash4hashIS1_EEED1Ev@Base 2.4.1
 _ZN4CVC36CDOmapINS_4ExprENS_3VCL13UserAssertionEN4Hash4hashIS1_EEED2Ev@Base 2.4.1
 _ZN4CVC36CDOmapINS_4ExprENS_7LiteralEN4Hash4hashIS1_EEE11restoreDataEPNS_10ContextObjE@Base 2.4.1
 _ZN4CVC36CDOmapINS_4ExprENS_7LiteralEN4Hash4hashIS1_EEE7setNullEv@Base 2.4.1
 _ZN4CVC36CDOmapINS_4ExprENS_7LiteralEN4Hash4hashIS1_EEE8makeCopyEPNS_20ContextMemoryManagerE@Base 2.4.1
 _ZN4CVC36CDOmapINS_4ExprENS_7LiteralEN4Hash4hashIS1_EEED0Ev@Base 2.4.1
 _ZN4CVC36CDOmapINS_4ExprENS_7LiteralEN4Hash4hashIS1_EEED1Ev@Base 2.4.1
 _ZN4CVC36CDOmapINS_4ExprENS_7LiteralEN4Hash4hashIS1_EEED2Ev@Base 2.4.1
 _ZN4CVC36CDOmapINS_4ExprENS_7TheoremEN4Hash4hashIS1_EEE11restoreDataEPNS_10ContextObjE@Base 2.4.1
 _ZN4CVC36CDOmapINS_4ExprENS_7TheoremEN4Hash4hashIS1_EEE7setNullEv@Base 2.4.1
 _ZN4CVC36CDOmapINS_4ExprENS_7TheoremEN4Hash4hashIS1_EEE8makeCopyEPNS_20ContextMemoryManagerE@Base 2.4.1
 _ZN4CVC36CDOmapINS_4ExprENS_7TheoremEN4Hash4hashIS1_EEEC1EPNS_7ContextEPNS_5CDMapIS1_S2_S5_EERKS1_RKS2_i@Base 2.4.1
 _ZN4CVC36CDOmapINS_4ExprENS_7TheoremEN4Hash4hashIS1_EEEC2EPNS_7ContextEPNS_5CDMapIS1_S2_S5_EERKS1_RKS2_i@Base 2.4.1
 _ZN4CVC36CDOmapINS_4ExprENS_7TheoremEN4Hash4hashIS1_EEED0Ev@Base 2.4.1
 _ZN4CVC36CDOmapINS_4ExprENS_7TheoremEN4Hash4hashIS1_EEED1Ev@Base 2.4.1
 _ZN4CVC36CDOmapINS_4ExprENS_7TheoremEN4Hash4hashIS1_EEED2Ev@Base 2.4.1
 _ZN4CVC36CDOmapINS_4ExprENS_8RationalEN4Hash4hashIS1_EEE11restoreDataEPNS_10ContextObjE@Base 2.4.1
 _ZN4CVC36CDOmapINS_4ExprENS_8RationalEN4Hash4hashIS1_EEE7setNullEv@Base 2.4.1
 _ZN4CVC36CDOmapINS_4ExprENS_8RationalEN4Hash4hashIS1_EEE8makeCopyEPNS_20ContextMemoryManagerE@Base 2.4.1
 _ZN4CVC36CDOmapINS_4ExprENS_8RationalEN4Hash4hashIS1_EEED0Ev@Base 2.4.1
 _ZN4CVC36CDOmapINS_4ExprENS_8RationalEN4Hash4hashIS1_EEED1Ev@Base 2.4.1
 _ZN4CVC36CDOmapINS_4ExprENS_8RationalEN4Hash4hashIS1_EEED2Ev@Base 2.4.1
 _ZN4CVC36CDOmapINS_4ExprENS_8SmartCDOINS_8UnsignedEEEN4Hash4hashIS1_EEE11restoreDataEPNS_10ContextObjE@Base 2.4.1
 _ZN4CVC36CDOmapINS_4ExprENS_8SmartCDOINS_8UnsignedEEEN4Hash4hashIS1_EEE7setNullEv@Base 2.4.1
 _ZN4CVC36CDOmapINS_4ExprENS_8SmartCDOINS_8UnsignedEEEN4Hash4hashIS1_EEE8makeCopyEPNS_20ContextMemoryManagerE@Base 2.4.1
 _ZN4CVC36CDOmapINS_4ExprENS_8SmartCDOINS_8UnsignedEEEN4Hash4hashIS1_EEEC1EPNS_7ContextEPNS_5CDMapIS1_S4_S7_EERKS1_RKS4_i@Base 2.4.1
 _ZN4CVC36CDOmapINS_4ExprENS_8SmartCDOINS_8UnsignedEEEN4Hash4hashIS1_EEEC2EPNS_7ContextEPNS_5CDMapIS1_S4_S7_EERKS1_RKS4_i@Base 2.4.1
 _ZN4CVC36CDOmapINS_4ExprENS_8SmartCDOINS_8UnsignedEEEN4Hash4hashIS1_EEED0Ev@Base 2.4.1
 _ZN4CVC36CDOmapINS_4ExprENS_8SmartCDOINS_8UnsignedEEEN4Hash4hashIS1_EEED1Ev@Base 2.4.1
 _ZN4CVC36CDOmapINS_4ExprENS_8SmartCDOINS_8UnsignedEEEN4Hash4hashIS1_EEED2Ev@Base 2.4.1
 _ZN4CVC36CDOmapINS_4ExprEPNS_6CDListINS_7dynTrigEEEN4Hash4hashIS1_EEE11restoreDataEPNS_10ContextObjE@Base 2.4.1
 _ZN4CVC36CDOmapINS_4ExprEPNS_6CDListINS_7dynTrigEEEN4Hash4hashIS1_EEE7setNullEv@Base 2.4.1
 _ZN4CVC36CDOmapINS_4ExprEPNS_6CDListINS_7dynTrigEEEN4Hash4hashIS1_EEE8makeCopyEPNS_20ContextMemoryManagerE@Base 2.4.1
 _ZN4CVC36CDOmapINS_4ExprEPNS_6CDListINS_7dynTrigEEEN4Hash4hashIS1_EEED0Ev@Base 2.4.1
 _ZN4CVC36CDOmapINS_4ExprEPNS_6CDListINS_7dynTrigEEEN4Hash4hashIS1_EEED1Ev@Base 2.4.1
 _ZN4CVC36CDOmapINS_4ExprEPNS_6CDListINS_7dynTrigEEEN4Hash4hashIS1_EEED2Ev@Base 2.4.1
 _ZN4CVC36CDOmapINS_4ExprES1_N4Hash4hashIS1_EEE11restoreDataEPNS_10ContextObjE@Base 2.4.1
 _ZN4CVC36CDOmapINS_4ExprES1_N4Hash4hashIS1_EEE7setNullEv@Base 2.4.1
 _ZN4CVC36CDOmapINS_4ExprES1_N4Hash4hashIS1_EEE8makeCopyEPNS_20ContextMemoryManagerE@Base 2.4.1
 _ZN4CVC36CDOmapINS_4ExprES1_N4Hash4hashIS1_EEED0Ev@Base 2.4.1
 _ZN4CVC36CDOmapINS_4ExprES1_N4Hash4hashIS1_EEED1Ev@Base 2.4.1
 _ZN4CVC36CDOmapINS_4ExprES1_N4Hash4hashIS1_EEED2Ev@Base 2.4.1
 _ZN4CVC36CDOmapINS_4ExprESt3setISt6vectorIS1_SaIS1_EESt4lessIS5_ESaIS5_EEN4Hash4hashIS1_EEE11restoreDataEPNS_10ContextObjE@Base 2.4.1
 _ZN4CVC36CDOmapINS_4ExprESt3setISt6vectorIS1_SaIS1_EESt4lessIS5_ESaIS5_EEN4Hash4hashIS1_EEE7setNullEv@Base 2.4.1
 _ZN4CVC36CDOmapINS_4ExprESt3setISt6vectorIS1_SaIS1_EESt4lessIS5_ESaIS5_EEN4Hash4hashIS1_EEE8makeCopyEPNS_20ContextMemoryManagerE@Base 2.4.1
 _ZN4CVC36CDOmapINS_4ExprESt3setISt6vectorIS1_SaIS1_EESt4lessIS5_ESaIS5_EEN4Hash4hashIS1_EEED0Ev@Base 2.4.1
 _ZN4CVC36CDOmapINS_4ExprESt3setISt6vectorIS1_SaIS1_EESt4lessIS5_ESaIS5_EEN4Hash4hashIS1_EEED1Ev@Base 2.4.1
 _ZN4CVC36CDOmapINS_4ExprESt3setISt6vectorIS1_SaIS1_EESt4lessIS5_ESaIS5_EEN4Hash4hashIS1_EEED2Ev@Base 2.4.1
 _ZN4CVC36CDOmapINS_4ExprESt6vectorIS1_SaIS1_EEN4Hash4hashIS1_EEE11restoreDataEPNS_10ContextObjE@Base 2.4.1
 _ZN4CVC36CDOmapINS_4ExprESt6vectorIS1_SaIS1_EEN4Hash4hashIS1_EEE7setNullEv@Base 2.4.1
 _ZN4CVC36CDOmapINS_4ExprESt6vectorIS1_SaIS1_EEN4Hash4hashIS1_EEE8makeCopyEPNS_20ContextMemoryManagerE@Base 2.4.1
 _ZN4CVC36CDOmapINS_4ExprESt6vectorIS1_SaIS1_EEN4Hash4hashIS1_EEED0Ev@Base 2.4.1
 _ZN4CVC36CDOmapINS_4ExprESt6vectorIS1_SaIS1_EEN4Hash4hashIS1_EEED1Ev@Base 2.4.1
 _ZN4CVC36CDOmapINS_4ExprESt6vectorIS1_SaIS1_EEN4Hash4hashIS1_EEED2Ev@Base 2.4.1
 _ZN4CVC36CDOmapINS_4ExprEbN4Hash4hashIS1_EEE11restoreDataEPNS_10ContextObjE@Base 2.4.1
 _ZN4CVC36CDOmapINS_4ExprEbN4Hash4hashIS1_EEE7setNullEv@Base 2.4.1
 _ZN4CVC36CDOmapINS_4ExprEbN4Hash4hashIS1_EEE8makeCopyEPNS_20ContextMemoryManagerE@Base 2.4.1
 _ZN4CVC36CDOmapINS_4ExprEbN4Hash4hashIS1_EEED0Ev@Base 2.4.1
 _ZN4CVC36CDOmapINS_4ExprEbN4Hash4hashIS1_EEED1Ev@Base 2.4.1
 _ZN4CVC36CDOmapINS_4ExprEbN4Hash4hashIS1_EEED2Ev@Base 2.4.1
 _ZN4CVC36CDOmapINS_4ExprEiN4Hash4hashIS1_EEE11restoreDataEPNS_10ContextObjE@Base 2.4.1
 _ZN4CVC36CDOmapINS_4ExprEiN4Hash4hashIS1_EEE7setNullEv@Base 2.4.1
 _ZN4CVC36CDOmapINS_4ExprEiN4Hash4hashIS1_EEE8makeCopyEPNS_20ContextMemoryManagerE@Base 2.4.1
 _ZN4CVC36CDOmapINS_4ExprEiN4Hash4hashIS1_EEED0Ev@Base 2.4.1
 _ZN4CVC36CDOmapINS_4ExprEiN4Hash4hashIS1_EEED1Ev@Base 2.4.1
 _ZN4CVC36CDOmapINS_4ExprEiN4Hash4hashIS1_EEED2Ev@Base 2.4.1
 _ZN4CVC36CDOmapISsbN4Hash4hashISsEEE11restoreDataEPNS_10ContextObjE@Base 2.4.1
 _ZN4CVC36CDOmapISsbN4Hash4hashISsEEE7setNullEv@Base 2.4.1
 _ZN4CVC36CDOmapISsbN4Hash4hashISsEEE8makeCopyEPNS_20ContextMemoryManagerE@Base 2.4.1
 _ZN4CVC36CDOmapISsbN4Hash4hashISsEEED0Ev@Base 2.4.1
 _ZN4CVC36CDOmapISsbN4Hash4hashISsEEED1Ev@Base 2.4.1
 _ZN4CVC36CDOmapISsbN4Hash4hashISsEEED2Ev@Base 2.4.1
 _ZN4CVC36CLFlagC1EPKcRKSsb@Base 2.4.1
 _ZN4CVC36CLFlagC1ERKS0_@Base 2.4.1
 _ZN4CVC36CLFlagC2EPKcRKSsb@Base 2.4.1
 _ZN4CVC36CLFlagC2ERKS0_@Base 2.4.1
 _ZN4CVC36CLFlagD1Ev@Base 2.4.1
 _ZN4CVC36CLFlagD2Ev@Base 2.4.1
 _ZN4CVC36CLFlagaSERKS0_@Base 2.4.1
 _ZN4CVC36CLFlagaSEb@Base 2.4.1
 _ZN4CVC36ClauseD1Ev@Base 2.4.1
 _ZN4CVC36ClauseD2Ev@Base 2.4.1
 _ZN4CVC36ClauseaSERKS0_@Base 2.4.1
 _ZN4CVC36Parser10initParserEv@Base 2.4.1
 _ZN4CVC36Parser12deleteParserEv@Base 2.4.1
 _ZN4CVC36Parser4nextEv@Base 2.4.1
 _ZN4CVC36Parser5resetEv@Base 2.4.1
 _ZN4CVC36ParserC1EPNS_15ValidityCheckerEPNS_10TranslatorENS_13InputLanguageERSib@Base 2.4.1
 _ZN4CVC36ParserC1EPNS_15ValidityCheckerEPNS_10TranslatorENS_13InputLanguageEbRKSs@Base 2.4.1
 _ZN4CVC36ParserC2EPNS_15ValidityCheckerEPNS_10TranslatorENS_13InputLanguageERSib@Base 2.4.1
 _ZN4CVC36ParserC2EPNS_15ValidityCheckerEPNS_10TranslatorENS_13InputLanguageEbRKSs@Base 2.4.1
 _ZN4CVC36ParserD1Ev@Base 2.4.1
 _ZN4CVC36ParserD2Ev@Base 2.4.1
 _ZN4CVC36Theory10computeTCCERKNS_4ExprE@Base 2.4.1
 _ZN4CVC36Theory10findReduceERKNS_4ExprE@Base 2.4.1
 _ZN4CVC36Theory10renameExprERKNS_4ExprE@Base 2.4.1
 _ZN4CVC36Theory10rewriteIteERKNS_4ExprE@Base 2.4.1
 _ZN4CVC36Theory10simplifyOpERKNS_4ExprE@Base 2.4.1
 _ZN4CVC36Theory10theoryUsedEv@Base 2.4.1
 _ZN4CVC36Theory11addBoundVarERKSsRKNS_4TypeE@Base 2.4.1
 _ZN4CVC36Theory11addBoundVarERKSsRKNS_4TypeERKNS_4ExprE@Base 2.4.1
 _ZN4CVC36Theory11addSplitterERKNS_4ExprEi@Base 2.4.1
 _ZN4CVC36Theory11assignValueERKNS_4ExprES3_@Base 2.4.1
 _ZN4CVC36Theory11assignValueERKNS_7TheoremE@Base 2.4.1
 _ZN4CVC36Theory11computeTypeERKNS_4ExprE@Base 2.4.1
 _ZN4CVC36Theory11enqueueFactERKNS_7TheoremE@Base 2.4.1
 _ZN4CVC36Theory11findReducedERKNS_4ExprE@Base 2.4.1
 _ZN4CVC36Theory11getBaseTypeERKNS_4ExprE@Base 2.4.1
 _ZN4CVC36Theory11getBaseTypeERKNS_4TypeE@Base 2.4.1
 _ZN4CVC36Theory11getTypePredERKNS_4TypeERKNS_4ExprE@Base 2.4.1
 _ZN4CVC36Theory11newFunctionERKSsRKNS_4TypeERKNS_4ExprE@Base 2.4.1
 _ZN4CVC36Theory11newFunctionERKSsRKNS_4TypeEb@Base 2.4.1
 _ZN4CVC36Theory11newTypeExprERKSs@Base 2.4.1
 _ZN4CVC36Theory11newTypeExprERKSsRKNS_4TypeE@Base 2.4.1
 _ZN4CVC36Theory11parseExprOpERKNS_4ExprE@Base 2.4.1
 _ZN4CVC36Theory12computeModelERKNS_4ExprERSt6vectorIS1_SaIS1_EE@Base 2.4.1
 _ZN4CVC36Theory12getModelTermERKNS_4ExprERSt6vectorIS1_SaIS1_EE@Base 2.4.1
 _ZN4CVC36Theory12inconsistentEv@Base 2.4.1
 _ZN4CVC36Theory12registerAtomERKNS_4ExprE@Base 2.4.1
 _ZN4CVC36Theory12registerAtomERKNS_4ExprERKNS_7TheoremE@Base 2.4.1
 _ZN4CVC36Theory12simplifyExprERKNS_4ExprE@Base 2.4.1
 _ZN4CVC36Theory12updateHelperERKNS_4ExprE@Base 2.4.1
 _ZN4CVC36Theory13addSharedTermERKNS_4ExprE@Base 2.4.1
 _ZN4CVC36Theory13getModelValueERKNS_4ExprE@Base 2.4.1
 _ZN4CVC36Theory13leavesAreSimpERKNS_4ExprE@Base 2.4.1
 _ZN4CVC36Theory13registerKindsEPS0_RSt6vectorIiSaIiEE@Base 2.4.1
 _ZN4CVC36Theory13rewriteAtomicERKNS_4ExprE@Base 2.4.1
 _ZN4CVC36Theory13setIncompleteERKSs@Base 2.4.1
 _ZN4CVC36Theory14addGlobalLemmaERKNS_7TheoremEi@Base 2.4.1
 _ZN4CVC36Theory14assertTypePredERKNS_4ExprERKNS_7TheoremE@Base 2.4.1
 _ZN4CVC36Theory14finiteTypeInfoERNS_4ExprERNS_8UnsignedEbb@Base 2.4.1
 _ZN4CVC36Theory14getNumTheoriesEv@Base 2.4.1
 _ZN4CVC36Theory14lookupFunctionERKSsPNS_4TypeE@Base 2.4.1
 _ZN4CVC36Theory14lookupTypeExprERKSs@Base 2.4.1
 _ZN4CVC36Theory14newSubtypeExprERKNS_4ExprES3_@Base 2.4.1
 _ZN4CVC36Theory14registerTheoryEPS0_RSt6vectorIiSaIiEEb@Base 2.4.1
 _ZN4CVC36Theory15computeBaseTypeERKNS_4TypeE@Base 2.4.1
 _ZN4CVC36Theory15computeTypePredERKNS_4TypeERKNS_4ExprE@Base 2.4.1
 _ZN4CVC36Theory15setInconsistentERKNS_7TheoremE@Base 2.4.1
 _ZN4CVC36Theory15unregisterKindsEPS0_RSt6vectorIiSaIiEE@Base 2.4.1
 _ZN4CVC36Theory16assertEqualitiesERKNS_7TheoremE@Base 2.4.1
 _ZN4CVC36Theory16computeModelTermERKNS_4ExprERSt6vectorIS1_SaIS1_EE@Base 2.4.1
 _ZN4CVC36Theory16theoryPreprocessERKNS_4ExprE@Base 2.4.1
 _ZN4CVC36Theory16unregisterTheoryEPS0_RSt6vectorIiSaIiEEb@Base 2.4.1
 _ZN4CVC36Theory17computeModelBasicERKSt6vectorINS_4ExprESaIS2_EE@Base 2.4.1
 _ZN4CVC36Theory18notifyInconsistentERKNS_7TheoremE@Base 2.4.1
 _ZN4CVC36Theory20refineCounterExampleEv@Base 2.4.1
 _ZN4CVC36Theory22checkAssertEqInvariantERKNS_7TheoremE@Base 2.4.1
 _ZN4CVC36Theory4findERKNS_4ExprE@Base 2.4.1
 _ZN4CVC36Theory5printERNS_10ExprStreamERKNS_4ExprE@Base 2.4.1
 _ZN4CVC36Theory5setupERKNS_4ExprE@Base 2.4.1
 _ZN4CVC36Theory5solveERKNS_7TheoremE@Base 2.4.1
 _ZN4CVC36Theory6getTCCERKNS_4ExprE@Base 2.4.1
 _ZN4CVC36Theory6isLeafERKNS_4ExprE@Base 2.4.1
 _ZN4CVC36Theory6newVarERKSsRKNS_4TypeE@Base 2.4.1
 _ZN4CVC36Theory6newVarERKSsRKNS_4TypeERKNS_4ExprE@Base 2.4.1
 _ZN4CVC36Theory6updateERKNS_7TheoremERKNS_4ExprE@Base 2.4.1
 _ZN4CVC36Theory7findRefERKNS_4ExprE@Base 2.4.1
 _ZN4CVC36Theory7rewriteERKNS_4ExprE@Base 2.4.1
 _ZN4CVC36Theory7setUsedEv@Base 2.4.1
 _ZN4CVC36Theory7setupCCERKNS_4ExprE@Base 2.4.1
 _ZN4CVC36Theory8findExprERKNS_4ExprE@Base 2.4.1
 _ZN4CVC36Theory8isLeafInERKNS_4ExprES3_@Base 2.4.1
 _ZN4CVC36Theory8simplifyERKNS_4ExprE@Base 2.4.1
 _ZN4CVC36Theory8theoryOfERKNS_4ExprE@Base 2.4.1
 _ZN4CVC36Theory8theoryOfERKNS_4TypeE@Base 2.4.1
 _ZN4CVC36Theory8theoryOfEi@Base 2.4.1
 _ZN4CVC36Theory8typePredERKNS_4ExprE@Base 2.4.1
 _ZN4CVC36Theory8updateCCERKNS_7TheoremERKNS_4ExprE@Base 2.4.1
 _ZN4CVC36Theory9checkTypeERKNS_4ExprE@Base 2.4.1
 _ZN4CVC36Theory9enqueueSEERKNS_7TheoremE@Base 2.4.1
 _ZN4CVC36Theory9hasTheoryEi@Base 2.4.1
 _ZN4CVC36Theory9installIDERKSsRKNS_4ExprE@Base 2.4.1
 _ZN4CVC36Theory9lookupVarERKSsPNS_4TypeE@Base 2.4.1
 _ZN4CVC36Theory9parseExprERKNS_4ExprE@Base 2.4.1
 _ZN4CVC36Theory9resolveIDERKSs@Base 2.4.1
 _ZN4CVC36Theory9rewriteCCERKNS_4ExprE@Base 2.4.1
 _ZN4CVC36TheoryC1EPNS_10TheoryCoreERKSs@Base 2.4.1
 _ZN4CVC36TheoryC1Ev@Base 2.4.1
 _ZN4CVC36TheoryC2EPNS_10TheoryCoreERKSs@Base 2.4.1
 _ZN4CVC36TheoryC2Ev@Base 2.4.1
 _ZN4CVC36TheoryD0Ev@Base 2.4.1
 _ZN4CVC36TheoryD1Ev@Base 2.4.1
 _ZN4CVC36TheoryD2Ev@Base 2.4.1
 _ZN4CVC36popdagERNS_10ExprStreamE@Base 2.4.1
 _ZN4CVC37CDFlags11restoreDataEPNS_10ContextObjE@Base 2.4.1
 _ZN4CVC37CDFlags6updateEjib@Base 2.4.1
 _ZN4CVC37CDFlags7setNullEv@Base 2.4.1
 _ZN4CVC37CDFlags8makeCopyEPNS_20ContextMemoryManagerE@Base 2.4.1
 _ZN4CVC37CDFlagsC1EPNS_7ContextE@Base 2.4.1
 _ZN4CVC37CDFlagsC1ERKS0_@Base 2.4.1
 _ZN4CVC37CDFlagsC2EPNS_7ContextE@Base 2.4.1
 _ZN4CVC37CDFlagsC2ERKS0_@Base 2.4.1
 _ZN4CVC37CDFlagsD0Ev@Base 2.4.1
 _ZN4CVC37CDFlagsD1Ev@Base 2.4.1
 _ZN4CVC37CDFlagsD2Ev@Base 2.4.1
 _ZN4CVC37CLFlags7setFlagERKSsb@Base 2.4.1
 _ZN4CVC37CLFlags8getFlag0ERKSs@Base 2.4.1
 _ZN4CVC37Circuit9propagateEPNS_16SearchEngineFastE@Base 2.4.1
 _ZN4CVC37CircuitC1EPNS_16SearchEngineFastERKNS_7TheoremE@Base 2.4.1
 _ZN4CVC37CircuitC2EPNS_16SearchEngineFastERKNS_7TheoremE@Base 2.4.1
 _ZN4CVC37Context15deleteNotifyObjEPNS_16ContextNotifyObjE@Base 2.4.1
 _ZN4CVC37Context3popEv@Base 2.4.1
 _ZN4CVC37Context4pushEv@Base 2.4.1
 _ZN4CVC37Context5poptoEi@Base 2.4.1
 _ZN4CVC37Context9getMemoryEi@Base 2.4.1
 _ZN4CVC37ContextC1EPNS_14ContextManagerERKSsi@Base 2.4.1
 _ZN4CVC37ContextC2EPNS_14ContextManagerERKSsi@Base 2.4.1
 _ZN4CVC37ContextD1Ev@Base 2.4.1
 _ZN4CVC37ContextD2Ev@Base 2.4.1
 _ZN4CVC37ExprMapINS_4ExprEED1Ev@Base 2.4.1
 _ZN4CVC37ExprMapINS_4ExprEED2Ev@Base 2.4.1
 _ZN4CVC37ExprMapIbED1Ev@Base 2.4.1
 _ZN4CVC37ExprMapIbED2Ev@Base 2.4.1
 _ZN4CVC37ExprMapIiED1Ev@Base 2.4.1
 _ZN4CVC37ExprMapIiED2Ev@Base 2.4.1
 _ZN4CVC37ExprVarD0Ev@Base 2.4.1
 _ZN4CVC37ExprVarD1Ev@Base 2.4.1
 _ZN4CVC37ExprVarD2Ev@Base 2.4.1
 _ZN4CVC37LiteralC1EPNS_15VariableManagerERKNS_4ExprE@Base 2.4.1
 _ZN4CVC37LiteralC2EPNS_15VariableManagerERKNS_4ExprE@Base 2.4.1
 _ZN4CVC37Theorem13setQuantLevelEj@Base 2.4.1
 _ZN4CVC37Theorem9TheoremEqERKS0_S2_@Base 2.4.1
 _ZN4CVC37TheoremC1EPNS_14TheoremManagerERKNS_4ExprERKNS_11AssumptionsERKNS_5ProofEbi@Base 2.4.1
 _ZN4CVC37TheoremC1EPNS_14TheoremManagerERKNS_4ExprES5_RKNS_11AssumptionsERKNS_5ProofEbi@Base 2.4.1
 _ZN4CVC37TheoremC1ERKNS_4ExprE@Base 2.4.1
 _ZN4CVC37TheoremC1ERKS0_@Base 2.4.1
 _ZN4CVC37TheoremC1Ev@Base 2.4.1
 _ZN4CVC37TheoremC2EPNS_14TheoremManagerERKNS_4ExprERKNS_11AssumptionsERKNS_5ProofEbi@Base 2.4.1
 _ZN4CVC37TheoremC2EPNS_14TheoremManagerERKNS_4ExprES5_RKNS_11AssumptionsERKNS_5ProofEbi@Base 2.4.1
 _ZN4CVC37TheoremC2ERKNS_4ExprE@Base 2.4.1
 _ZN4CVC37TheoremC2ERKS0_@Base 2.4.1
 _ZN4CVC37TheoremC2Ev@Base 2.4.1
 _ZN4CVC37TheoremD1Ev@Base 2.4.1
 _ZN4CVC37TheoremD2Ev@Base 2.4.1
 _ZN4CVC37TheoremaSERKS0_@Base 2.4.1
 _ZN4CVC37Trigger11isMultiTrigEv@Base 2.4.1
 _ZN4CVC37Trigger11isSuperSimpEv@Base 2.4.1
 _ZN4CVC37Trigger12setMultiTrigEv@Base 2.4.1
 _ZN4CVC37Trigger12setSuperSimpEv@Base 2.4.1
 _ZN4CVC37Trigger5getExEv@Base 2.4.1
 _ZN4CVC37Trigger5hasRWEv@Base 2.4.1
 _ZN4CVC37Trigger5hasTrEv@Base 2.4.1
 _ZN4CVC37Trigger5isNegEv@Base 2.4.1
 _ZN4CVC37Trigger5isPosEv@Base 2.4.1
 _ZN4CVC37Trigger6getBVsEv@Base 2.4.1
 _ZN4CVC37Trigger6hasTr2Ev@Base 2.4.1
 _ZN4CVC37Trigger6isSimpEv@Base 2.4.1
 _ZN4CVC37Trigger7getHeadEv@Base 2.4.1
 _ZN4CVC37Trigger7setHeadENS_4ExprE@Base 2.4.1
 _ZN4CVC37Trigger7setRWOpEb@Base 2.4.1
 _ZN4CVC37Trigger7setSimpEv@Base 2.4.1
 _ZN4CVC37Trigger8setTransEb@Base 2.4.1
 _ZN4CVC37Trigger9setTrans2Eb@Base 2.4.1
 _ZN4CVC37TriggerC1EPNS_10TheoryCoreENS_4ExprENS_8PolarityESt3setIS3_St4lessIS3_ESaIS3_EE@Base 2.4.1
 _ZN4CVC37TriggerC1ERKS0_@Base 2.4.1
 _ZN4CVC37TriggerC2EPNS_10TheoryCoreENS_4ExprENS_8PolarityESt3setIS3_St4lessIS3_ESaIS3_EE@Base 2.4.1
 _ZN4CVC37TriggerC2ERKS0_@Base 2.4.1
 _ZN4CVC37TriggerD1Ev@Base 2.4.1
 _ZN4CVC37TriggerD2Ev@Base 2.4.1
 _ZN4CVC37andExprERKSt6vectorINS_4ExprESaIS1_EE@Base 2.4.1
 _ZN4CVC37compareERKNS_4ExprES2_@Base 2.4.1
 _ZN4CVC37compareERKNS_7TheoremERKNS_4ExprE@Base 2.4.1
 _ZN4CVC37compareERKNS_7TheoremES2_@Base 2.4.1
 _ZN4CVC37dynTrigC1ENS_7TriggerENS_7ExprMapINS_4ExprEEEm@Base 2.4.1
 _ZN4CVC37dynTrigC1ERKS0_@Base 2.4.1
 _ZN4CVC37dynTrigC2ENS_7TriggerENS_7ExprMapINS_4ExprEEEm@Base 2.4.1
 _ZN4CVC37dynTrigC2ERKS0_@Base 2.4.1
 _ZN4CVC37dynTrigD1Ev@Base 2.4.1
 _ZN4CVC37dynTrigD2Ev@Base 2.4.1
 _ZN4CVC37intRootERKNS_8RationalEm@Base 2.4.1
 _ZN4CVC37intRootERKNS_8UnsignedEm@Base 2.4.1
 _ZN4CVC37popSaveERNS_10ExprStreamE@Base 2.4.1
 _ZN4CVC37pushdagERNS_10ExprStreamE@Base 2.4.1
 _ZN4CVC37ratRootERKNS_8RationalEm@Base 2.4.1
 _ZN4CVC38ExprNode6setRepEPNS_3CDOINS_7TheoremEEE@Base 2.4.1
 _ZN4CVC38ExprNode6setSigEPNS_3CDOINS_7TheoremEEE@Base 2.4.1
 _ZN4CVC38ExprNode8getKids1Ev@Base 2.4.1
 _ZN4CVC38ExprNodeC1EPNS_11ExprManagerEim@Base 2.4.1
 _ZN4CVC38ExprNodeC2EPNS_11ExprManagerEim@Base 2.4.1
 _ZN4CVC38ExprNodeD0Ev@Base 2.4.1
 _ZN4CVC38ExprNodeD1Ev@Base 2.4.1
 _ZN4CVC38ExprNodeD2Ev@Base 2.4.1
 _ZN4CVC38Rational4ImplC1ERKSsS3_i@Base 2.4.1
 _ZN4CVC38Rational4ImplC1ERKSsi@Base 2.4.1
 _ZN4CVC38Rational4ImplC1Ejjj@Base 2.4.1
 _ZN4CVC38Rational4ImplC1Ell@Base 2.4.1
 _ZN4CVC38Rational4ImplC2ERKSsS3_i@Base 2.4.1
 _ZN4CVC38Rational4ImplC2ERKSsi@Base 2.4.1
 _ZN4CVC38Rational4ImplC2Ejjj@Base 2.4.1
 _ZN4CVC38Rational4ImplC2Ell@Base 2.4.1
 _ZN4CVC38Rational4ImplD0Ev@Base 2.4.1
 _ZN4CVC38Rational4ImplD1Ev@Base 2.4.1
 _ZN4CVC38Rational4ImplD2Ev@Base 2.4.1
 _ZN4CVC38RationalC1EPKcS2_i@Base 2.4.1
 _ZN4CVC38RationalC1EPKci@Base 2.4.1
 _ZN4CVC38RationalC1ERKNS0_4ImplE@Base 2.4.1
 _ZN4CVC38RationalC1ERKNS_8UnsignedE@Base 2.4.1
 _ZN4CVC38RationalC1ERKS0_@Base 2.4.1
 _ZN4CVC38RationalC1ERKSsS2_i@Base 2.4.1
 _ZN4CVC38RationalC1ERKSsi@Base 2.4.1
 _ZN4CVC38RationalC1Eii@Base 2.4.1
 _ZN4CVC38RationalC1Ev@Base 2.4.1
 _ZN4CVC38RationalC2EPKcS2_i@Base 2.4.1
 _ZN4CVC38RationalC2EPKci@Base 2.4.1
 _ZN4CVC38RationalC2ERKNS0_4ImplE@Base 2.4.1
 _ZN4CVC38RationalC2ERKNS_8UnsignedE@Base 2.4.1
 _ZN4CVC38RationalC2ERKS0_@Base 2.4.1
 _ZN4CVC38RationalC2ERKSsS2_i@Base 2.4.1
 _ZN4CVC38RationalC2ERKSsi@Base 2.4.1
 _ZN4CVC38RationalC2Eii@Base 2.4.1
 _ZN4CVC38RationalC2Ev@Base 2.4.1
 _ZN4CVC38RationalD1Ev@Base 2.4.1
 _ZN4CVC38RationalD2Ev@Base 2.4.1
 _ZN4CVC38RationalaSERKS0_@Base 2.4.1
 _ZN4CVC38RationaldVERKS0_@Base 2.4.1
 _ZN4CVC38RationalmIERKS0_@Base 2.4.1
 _ZN4CVC38RationalmLERKS0_@Base 2.4.1
 _ZN4CVC38RationalpLERKS0_@Base 2.4.1
 _ZN4CVC38SmartCDOINS_7TheoremEE6RefCDOIS1_E12RefNotifyObj6notifyEv@Base 2.4.1
 _ZN4CVC38SmartCDOINS_7TheoremEE6RefCDOIS1_E12RefNotifyObj9notifyPreEv@Base 2.4.1
 _ZN4CVC38SmartCDOINS_7TheoremEE6RefCDOIS1_E12RefNotifyObjD0Ev@Base 2.4.1
 _ZN4CVC38SmartCDOINS_7TheoremEE6RefCDOIS1_E12RefNotifyObjD1Ev@Base 2.4.1
 _ZN4CVC38SmartCDOINS_7TheoremEE6RefCDOIS1_E12RefNotifyObjD2Ev@Base 2.4.1
 _ZN4CVC38SmartCDOINS_7TheoremEED1Ev@Base 2.4.1
 _ZN4CVC38SmartCDOINS_7TheoremEED2Ev@Base 2.4.1
 _ZN4CVC38SmartCDOINS_8UnsignedEE6RefCDOIS1_E12RefNotifyObj6notifyEv@Base 2.4.1
 _ZN4CVC38SmartCDOINS_8UnsignedEE6RefCDOIS1_E12RefNotifyObj9notifyPreEv@Base 2.4.1
 _ZN4CVC38SmartCDOINS_8UnsignedEE6RefCDOIS1_E12RefNotifyObjD0Ev@Base 2.4.1
 _ZN4CVC38SmartCDOINS_8UnsignedEE6RefCDOIS1_E12RefNotifyObjD1Ev@Base 2.4.1
 _ZN4CVC38SmartCDOINS_8UnsignedEE6RefCDOIS1_E12RefNotifyObjD2Ev@Base 2.4.1
 _ZN4CVC38SmartCDOINS_8UnsignedEED1Ev@Base 2.4.1
 _ZN4CVC38SmartCDOINS_8UnsignedEED2Ev@Base 2.4.1
 _ZN4CVC38Theorem3D0Ev@Base 2.4.1
 _ZN4CVC38Theorem3D1Ev@Base 2.4.1
 _ZN4CVC38Theorem3D2Ev@Base 2.4.1
 _ZN4CVC38TheoryUF10assertFactERKNS_7TheoremE@Base 2.4.1
 _ZN4CVC38TheoryUF10computeTCCERKNS_4ExprE@Base 2.4.1
 _ZN4CVC38TheoryUF10lambdaExprERKSt6vectorINS_4ExprESaIS2_EERKS2_@Base 2.4.1
 _ZN4CVC38TheoryUF11computeTypeERKNS_4ExprE@Base 2.4.1
 _ZN4CVC38TheoryUF11parseExprOpERKNS_4ExprE@Base 2.4.1
 _ZN4CVC38TheoryUF12computeModelERKNS_4ExprERSt6vectorIS1_SaIS1_EE@Base 2.4.1
 _ZN4CVC38TheoryUF13addSharedTermERKNS_4ExprE@Base 2.4.1
 _ZN4CVC38TheoryUF14finiteTypeInfoERNS_4ExprERNS_8UnsignedEbb@Base 2.4.1
 _ZN4CVC38TheoryUF15computeBaseTypeERKNS_4TypeE@Base 2.4.1
 _ZN4CVC38TheoryUF16computeModelTermERKNS_4ExprERSt6vectorIS1_SaIS1_EE@Base 2.4.1
 _ZN4CVC38TheoryUF16createProofRulesEv@Base 2.4.1
 _ZN4CVC38TheoryUF16transClosureExprERKSsRKNS_4ExprES5_@Base 2.4.1
 _ZN4CVC38TheoryUF17printSmtLibSharedERNS_10ExprStreamERKNS_4ExprE@Base 2.4.1
 _ZN4CVC38TheoryUF5printERNS_10ExprStreamERKNS_4ExprE@Base 2.4.1
 _ZN4CVC38TheoryUF5setupERKNS_4ExprE@Base 2.4.1
 _ZN4CVC38TheoryUF6updateERKNS_7TheoremERKNS_4ExprE@Base 2.4.1
 _ZN4CVC38TheoryUF7rewriteERKNS_4ExprE@Base 2.4.1
 _ZN4CVC38TheoryUF8checkSatEb@Base 2.4.1
 _ZN4CVC38TheoryUF9checkTypeERKNS_4ExprE@Base 2.4.1
 _ZN4CVC38TheoryUFC1EPNS_10TheoryCoreE@Base 2.4.1
 _ZN4CVC38TheoryUFC2EPNS_10TheoryCoreE@Base 2.4.1
 _ZN4CVC38TheoryUFD0Ev@Base 2.4.1
 _ZN4CVC38TheoryUFD1Ev@Base 2.4.1
 _ZN4CVC38TheoryUFD2Ev@Base 2.4.1
 _ZN4CVC38Unsigned4ImplC1ERKSsi@Base 2.4.1
 _ZN4CVC38Unsigned4ImplC1Ej@Base 2.4.1
 _ZN4CVC38Unsigned4ImplC2ERKSsi@Base 2.4.1
 _ZN4CVC38Unsigned4ImplC2Ej@Base 2.4.1
 _ZN4CVC38Unsigned4ImplD0Ev@Base 2.4.1
 _ZN4CVC38Unsigned4ImplD1Ev@Base 2.4.1
 _ZN4CVC38Unsigned4ImplD2Ev@Base 2.4.1
 _ZN4CVC38UnsignedC1EPKci@Base 2.4.1
 _ZN4CVC38UnsignedC1ERKNS0_4ImplE@Base 2.4.1
 _ZN4CVC38UnsignedC1ERKS0_@Base 2.4.1
 _ZN4CVC38UnsignedC1ERKSsi@Base 2.4.1
 _ZN4CVC38UnsignedC1Ei@Base 2.4.1
 _ZN4CVC38UnsignedC1Ej@Base 2.4.1
 _ZN4CVC38UnsignedC1Ev@Base 2.4.1
 _ZN4CVC38UnsignedC2EPKci@Base 2.4.1
 _ZN4CVC38UnsignedC2ERKNS0_4ImplE@Base 2.4.1
 _ZN4CVC38UnsignedC2ERKS0_@Base 2.4.1
 _ZN4CVC38UnsignedC2ERKSsi@Base 2.4.1
 _ZN4CVC38UnsignedC2Ei@Base 2.4.1
 _ZN4CVC38UnsignedC2Ej@Base 2.4.1
 _ZN4CVC38UnsignedC2Ev@Base 2.4.1
 _ZN4CVC38UnsignedD1Ev@Base 2.4.1
 _ZN4CVC38UnsignedD2Ev@Base 2.4.1
 _ZN4CVC38UnsignedaSERKS0_@Base 2.4.1
 _ZN4CVC38UnsigneddVERKS0_@Base 2.4.1
 _ZN4CVC38UnsignedmIERKS0_@Base 2.4.1
 _ZN4CVC38UnsignedmLERKS0_@Base 2.4.1
 _ZN4CVC38UnsignedpLERKS0_@Base 2.4.1
 _ZN4CVC38Variable12setAssumpThmERKNS_7TheoremEi@Base 2.4.1
 _ZN4CVC38Variable8setValueERKNS_7TheoremE@Base 2.4.1
 _ZN4CVC38Variable8setValueERKNS_7TheoremEi@Base 2.4.1
 _ZN4CVC38Variable8setValueEiRKNS_6ClauseEi@Base 2.4.1
 _ZN4CVC38VariableC1EPNS_15VariableManagerERKNS_4ExprE@Base 2.4.1
 _ZN4CVC38VariableC1ERKS0_@Base 2.4.1
 _ZN4CVC38VariableC2EPNS_15VariableManagerERKNS_4ExprE@Base 2.4.1
 _ZN4CVC38VariableC2ERKS0_@Base 2.4.1
 _ZN4CVC38VariableD1Ev@Base 2.4.1
 _ZN4CVC38VariableD2Ev@Base 2.4.1
 _ZN4CVC38VariableaSERKS0_@Base 2.4.1
 _ZN4CVC38multExprERKNS_4ExprES2_@Base 2.4.1
 _ZN4CVC38plusExprERKNS_4ExprES2_@Base 2.4.1
 _ZN4CVC38plusExprERKSt6vectorINS_4ExprESaIS1_EE@Base 2.4.1
 _ZN4CVC38to_lowerERKSs@Base 2.4.1
 _ZN4CVC38to_upperERKSs@Base 2.4.1
 _ZN4CVC39CDMapData11restoreDataEPNS_10ContextObjE@Base 2.4.1
 _ZN4CVC39CDMapData7setNullEv@Base 2.4.1
 _ZN4CVC39CDMapData8makeCopyEPNS_20ContextMemoryManagerE@Base 2.4.1
 _ZN4CVC39CDMapDataD0Ev@Base 2.4.1
 _ZN4CVC39CDMapDataD1Ev@Base 2.4.1
 _ZN4CVC39CDMapDataD2Ev@Base 2.4.1
 _ZN4CVC39ExceptionC1ERKSs@Base 2.4.1
 _ZN4CVC39ExceptionC2ERKSs@Base 2.4.1
 _ZN4CVC39ExceptionD0Ev@Base 2.4.1
 _ZN4CVC39ExceptionD1Ev@Base 2.4.1
 _ZN4CVC39ExceptionD2Ev@Base 2.4.1
 _ZN4CVC39ExprApplyC1EPNS_11ExprManagerERKNS_2OpEm@Base 2.4.1
 _ZN4CVC39ExprApplyC2EPNS_11ExprManagerERKNS_2OpEm@Base 2.4.1
 _ZN4CVC39ExprApplyD0Ev@Base 2.4.1
 _ZN4CVC39ExprApplyD1Ev@Base 2.4.1
 _ZN4CVC39ExprApplyD2Ev@Base 2.4.1
 _ZN4CVC39ExprApplydlEPv@Base 2.4.1
 _ZN4CVC39ExprValue10s_charHashE@Base 2.4.1
 _ZN4CVC39ExprValue11decRefcountEv@Base 2.4.1
 _ZN4CVC39ExprValue11incRefcountEv@Base 2.4.1
 _ZN4CVC39ExprValue11setTriggersERKSt6vectorIS1_INS_4ExprESaIS2_EESaIS4_EE@Base 2.4.1
 _ZN4CVC39ExprValue16sizeWithChildrenERKSt6vectorINS_4ExprESaIS2_EE@Base 2.4.1
 _ZN4CVC39ExprValue4hashEiRKSt6vectorINS_4ExprESaIS2_EE@Base 2.4.1
 _ZN4CVC39ExprValue6setRepEPNS_3CDOINS_7TheoremEEE@Base 2.4.1
 _ZN4CVC39ExprValue6setSigEPNS_3CDOINS_7TheoremEEE@Base 2.4.1
 _ZN4CVC39ExprValue9s_intHashE@Base 2.4.1
 _ZN4CVC39ExprValueC1EPNS_11ExprManagerEim@Base 2.4.1
 _ZN4CVC39ExprValueC2EPNS_11ExprManagerEim@Base 2.4.1
 _ZN4CVC39ExprValueD0Ev@Base 2.4.1
 _ZN4CVC39ExprValueD1Ev@Base 2.4.1
 _ZN4CVC39ExprValueD2Ev@Base 2.4.1
 _ZN4CVC39SearchSat10checkValidERKNS_4ExprERNS_7TheoremE@Base 2.4.1
 _ZN4CVC39SearchSat10restorePreEv@Base 2.4.1
 _ZN4CVC39SearchSat11addSplitterERKNS_4ExprEi@Base 2.4.1
 _ZN4CVC39SearchSat12isAssumptionERKNS_4ExprE@Base 2.4.1
 _ZN4CVC39SearchSat12makeDecisionEv@Base 2.4.1
 _ZN4CVC39SearchSat12registerAtomERKNS_4ExprE@Base 2.4.1
 _ZN4CVC39SearchSat13getNewClausesERN3SAT11CNF_FormulaE@Base 2.4.1
 _ZN4CVC39SearchSat14getAssumptionsERSt6vectorINS_4ExprESaIS2_EE@Base 2.4.1
 _ZN4CVC39SearchSat14getExplanationEN3SAT3LitERNS1_11CNF_FormulaE@Base 2.4.1
 _ZN4CVC39SearchSat14getImplicationEv@Base 2.4.1
 _ZN4CVC39SearchSat15checkConsistentERN3SAT11CNF_FormulaEb@Base 2.4.1
 _ZN4CVC39SearchSat15findSplitterRecEN3SAT3LitENS1_3Var3ValEPS2_@Base 2.4.1
 _ZN4CVC39SearchSat15returnFromCheckEv@Base 2.4.1
 _ZN4CVC39SearchSat16recordNewRootLitEN3SAT3LitEib@Base 2.4.1
 _ZN4CVC39SearchSat17getCounterExampleERSt6vectorINS_4ExprESaIS2_EEb@Base 2.4.1
 _ZN4CVC39SearchSat17getImpliedLiteralEv@Base 2.4.1
 _ZN4CVC39SearchSat17newUserAssumptionERKNS_4ExprE@Base 2.4.1
 _ZN4CVC39SearchSat18getUserAssumptionsERSt6vectorINS_4ExprESaIS2_EE@Base 2.4.1
 _ZN4CVC39SearchSat20newUserAssumptionIntERKNS_4ExprERN3SAT16CNF_Formula_ImplEb@Base 2.4.1
 _ZN4CVC39SearchSat22getInternalAssumptionsERSt6vectorINS_4ExprESaIS2_EE@Base 2.4.1
 _ZN4CVC39SearchSat26newUserAssumptionIntHelperERKNS_7TheoremERN3SAT16CNF_Formula_ImplEb@Base 2.4.1
 _ZN4CVC39SearchSat3popEv@Base 2.4.1
 _ZN4CVC39SearchSat4pushEv@Base 2.4.1
 _ZN4CVC39SearchSat5checkERKNS_4ExprERNS_7TheoremEb@Base 2.4.1
 _ZN4CVC39SearchSat7getNameEv@Base 2.4.1
 _ZN4CVC39SearchSat7lastThmEv@Base 2.4.1
 _ZN4CVC39SearchSat7restartERKNS_4ExprERNS_7TheoremE@Base 2.4.1
 _ZN4CVC39SearchSat7restoreEv@Base 2.4.1
 _ZN4CVC39SearchSat8Restorer6notifyEv@Base 2.4.1
 _ZN4CVC39SearchSat8Restorer9notifyPreEv@Base 2.4.1
 _ZN4CVC39SearchSat8RestorerD0Ev@Base 2.4.1
 _ZN4CVC39SearchSat8RestorerD1Ev@Base 2.4.1
 _ZN4CVC39SearchSat8RestorerD2Ev@Base 2.4.1
 _ZN4CVC39SearchSat8addLemmaERKNS_7TheoremEib@Base 2.4.1
 _ZN4CVC39SearchSat8getProofEv@Base 2.4.1
 _ZN4CVC39SearchSat8getValueEN3SAT3LitE@Base 2.4.1
 _ZN4CVC39SearchSat8getValueERKNS_4ExprE@Base 2.4.1
 _ZN4CVC39SearchSat9assertLitEN3SAT3LitE@Base 2.4.1
 _ZN4CVC39SearchSatC1EPNS_10TheoryCoreERKSs@Base 2.4.1
 _ZN4CVC39SearchSatC2EPNS_10TheoryCoreERKSs@Base 2.4.1
 _ZN4CVC39SearchSatD0Ev@Base 2.4.1
 _ZN4CVC39SearchSatD1Ev@Base 2.4.1
 _ZN4CVC39SearchSatD2Ev@Base 2.4.1
 _ZN4CVC39arrayTypeERKNS_4TypeES2_@Base 2.4.1
 _ZN4CVC3anERKNS_8UnsignedES2_@Base 2.4.1
 _ZN4CVC3dvERKNS_8RationalES2_@Base 2.4.1
 _ZN4CVC3dvERKNS_8UnsignedES2_@Base 2.4.1
 _ZN4CVC3eqERKNS_8RationalES2_@Base 2.4.1
 _ZN4CVC3eqERKNS_8UnsignedES2_@Base 2.4.1
 _ZN4CVC3geERKNS_8RationalES2_@Base 2.4.1
 _ZN4CVC3geERKNS_8UnsignedES2_@Base 2.4.1
 _ZN4CVC3gtERKNS_8RationalES2_@Base 2.4.1
 _ZN4CVC3gtERKNS_8UnsignedES2_@Base 2.4.1
 _ZN4CVC3leERKNS_8RationalES2_@Base 2.4.1
 _ZN4CVC3leERKNS_8UnsignedES2_@Base 2.4.1
 _ZN4CVC3lsERKNS_8UnsignedEj@Base 2.4.1
 _ZN4CVC3lsERNS_10ExprStreamEPFS1_S1_E@Base 2.4.1
 _ZN4CVC3lsERNS_10ExprStreamEPKc@Base 2.4.1
 _ZN4CVC3lsERNS_10ExprStreamERKNS_4ExprE@Base 2.4.1
 _ZN4CVC3lsERNS_10ExprStreamERKNS_4TypeE@Base 2.4.1
 _ZN4CVC3lsERNS_10ExprStreamERKNS_8RationalE@Base 2.4.1
 _ZN4CVC3lsERNS_10ExprStreamERKSs@Base 2.4.1
 _ZN4CVC3lsERNS_10ExprStreamEi@Base 2.4.1
 _ZN4CVC3lsERSoRKNS_10NotifyListE@Base 2.4.1
 _ZN4CVC3lsERSoRKNS_11AssumptionsE@Base 2.4.1
 _ZN4CVC3lsERSoRKNS_12TheoryArith34IneqE@Base 2.4.1
 _ZN4CVC3lsERSoRKNS_12TheoryArith39FreeConstE@Base 2.4.1
 _ZN4CVC3lsERSoRKNS_13CompactClauseE@Base 2.4.1
 _ZN4CVC3lsERSoRKNS_13VariableValueE@Base 2.4.1
 _ZN4CVC3lsERSoRKNS_14TheoryArithNew4IneqE@Base 2.4.1
 _ZN4CVC3lsERSoRKNS_14TheoryArithNew9FreeConstE@Base 2.4.1
 _ZN4CVC3lsERSoRKNS_14TheoryArithOld4IneqE@Base 2.4.1
 _ZN4CVC3lsERSoRKNS_14TheoryArithOld9FreeConstE@Base 2.4.1
 _ZN4CVC3lsERSoRKNS_4ExprE@Base 2.4.1
 _ZN4CVC3lsERSoRKNS_5ProofE@Base 2.4.1
 _ZN4CVC3lsERSoRKNS_6ClauseE@Base 2.4.1
 _ZN4CVC3lsERSoRKNS_7LiteralE@Base 2.4.1
 _ZN4CVC3lsERSoRKNS_8Rational4ImplE@Base 2.4.1
 _ZN4CVC3lsERSoRKNS_8RationalE@Base 2.4.1
 _ZN4CVC3lsERSoRKNS_8UnsignedE@Base 2.4.1
 _ZN4CVC3lsERSoRKNS_8VariableE@Base 2.4.1
 _ZN4CVC3lsERSoRKNS_9ExceptionE@Base 2.4.1
 _ZN4CVC3ltERKNS_8RationalES2_@Base 2.4.1
 _ZN4CVC3ltERKNS_8UnsignedES2_@Base 2.4.1
 _ZN4CVC3miERKNS_11AssumptionsERKNS_4ExprE@Base 2.4.1
 _ZN4CVC3miERKNS_11AssumptionsERKSt6vectorINS_4ExprESaIS4_EE@Base 2.4.1
 _ZN4CVC3miERKNS_8RationalES2_@Base 2.4.1
 _ZN4CVC3miERKNS_8UnsignedES2_@Base 2.4.1
 _ZN4CVC3mlERKNS_8RationalES2_@Base 2.4.1
 _ZN4CVC3mlERKNS_8UnsignedES2_@Base 2.4.1
 _ZN4CVC3neERKNS_8RationalES2_@Base 2.4.1
 _ZN4CVC3neERKNS_8UnsignedES2_@Base 2.4.1
 _ZN4CVC3plERKNS_8RationalES2_@Base 2.4.1
 _ZN4CVC3plERKNS_8UnsignedES2_@Base 2.4.1
 _ZN4CVC3rmERKNS_8RationalES2_@Base 2.4.1
 _ZN4CVC3rmERKNS_8UnsignedES2_@Base 2.4.1
 _ZN4Hash10hash_tableIN4CVC34ExprES2_NS_4hashIS2_EESt8equal_toIS2_ENS_9_IdentityIS2_EEE6insertERKS2_@Base 2.4.1
 _ZN4Hash10hash_tableIN4CVC34ExprES2_NS_4hashIS2_EESt8equal_toIS2_ENS_9_IdentityIS2_EEED1Ev@Base 2.4.1
 _ZN4Hash10hash_tableIN4CVC34ExprES2_NS_4hashIS2_EESt8equal_toIS2_ENS_9_IdentityIS2_EEED2Ev@Base 2.4.1
 _ZN4Hash10hash_tableIN4CVC34ExprESt4pairIKS2_N3SAT3VarEENS_4hashIS2_EESt8equal_toIS2_ENS_10_Select1stIS7_EEED1Ev@Base 2.4.1
 _ZN4Hash10hash_tableIN4CVC34ExprESt4pairIKS2_N3SAT3VarEENS_4hashIS2_EESt8equal_toIS2_ENS_10_Select1stIS7_EEED2Ev@Base 2.4.1
 _ZN4Hash10hash_tableIN4CVC34ExprESt4pairIKS2_NS1_7TheoremEENS_4hashIS2_EESt8equal_toIS2_ENS_10_Select1stIS6_EEE5clearEv@Base 2.4.1
 _ZN4Hash10hash_tableIN4CVC34ExprESt4pairIKS2_NS1_7TheoremEENS_4hashIS2_EESt8equal_toIS2_ENS_10_Select1stIS6_EEED1Ev@Base 2.4.1
 _ZN4Hash10hash_tableIN4CVC34ExprESt4pairIKS2_NS1_7TheoremEENS_4hashIS2_EESt8equal_toIS2_ENS_10_Select1stIS6_EEED2Ev@Base 2.4.1
 _ZN4Hash10hash_tableIN4CVC34ExprESt4pairIKS2_PNS1_6CDOmapIS2_NS1_12TheoryArith39FreeConstENS_4hashIS2_EEEEES9_St8equal_toIS2_ENS_10_Select1stISC_EEED1Ev@Base 2.4.1
 _ZN4Hash10hash_tableIN4CVC34ExprESt4pairIKS2_PNS1_6CDOmapIS2_NS1_12TheoryArith39FreeConstENS_4hashIS2_EEEEES9_St8equal_toIS2_ENS_10_Select1stISC_EEED2Ev@Base 2.4.1
 _ZN4Hash10hash_tableIN4CVC34ExprESt4pairIKS2_PNS1_6CDOmapIS2_NS1_14TheoryArithNew11EpsRationalENS_4hashIS2_EEEEES9_St8equal_toIS2_ENS_10_Select1stISC_EEE6resizeEv@Base 2.4.1
 _ZN4Hash10hash_tableIN4CVC34ExprESt4pairIKS2_PNS1_6CDOmapIS2_NS1_14TheoryArithNew11EpsRationalENS_4hashIS2_EEEEES9_St8equal_toIS2_ENS_10_Select1stISC_EEED1Ev@Base 2.4.1
 _ZN4Hash10hash_tableIN4CVC34ExprESt4pairIKS2_PNS1_6CDOmapIS2_NS1_14TheoryArithNew11EpsRationalENS_4hashIS2_EEEEES9_St8equal_toIS2_ENS_10_Select1stISC_EEED2Ev@Base 2.4.1
 _ZN4Hash10hash_tableIN4CVC34ExprESt4pairIKS2_PNS1_6CDOmapIS2_NS1_14TheoryArithNew9BoundInfoENS_4hashIS2_EEEEES9_St8equal_toIS2_ENS_10_Select1stISC_EEE6resizeEv@Base 2.4.1
 _ZN4Hash10hash_tableIN4CVC34ExprESt4pairIKS2_PNS1_6CDOmapIS2_NS1_14TheoryArithNew9BoundInfoENS_4hashIS2_EEEEES9_St8equal_toIS2_ENS_10_Select1stISC_EEED1Ev@Base 2.4.1
 _ZN4Hash10hash_tableIN4CVC34ExprESt4pairIKS2_PNS1_6CDOmapIS2_NS1_14TheoryArithNew9BoundInfoENS_4hashIS2_EEEEES9_St8equal_toIS2_ENS_10_Select1stISC_EEED2Ev@Base 2.4.1
 _ZN4Hash10hash_tableIN4CVC34ExprESt4pairIKS2_PNS1_6CDOmapIS2_NS1_14TheoryArithNew9FreeConstENS_4hashIS2_EEEEES9_St8equal_toIS2_ENS_10_Select1stISC_EEED1Ev@Base 2.4.1
 _ZN4Hash10hash_tableIN4CVC34ExprESt4pairIKS2_PNS1_6CDOmapIS2_NS1_14TheoryArithNew9FreeConstENS_4hashIS2_EEEEES9_St8equal_toIS2_ENS_10_Select1stISC_EEED2Ev@Base 2.4.1
 _ZN4Hash10hash_tableIN4CVC34ExprESt4pairIKS2_PNS1_6CDOmapIS2_NS1_14TheoryArithOld20DifferenceLogicGraph11EpsRationalENS_4hashIS2_EEEEESA_St8equal_toIS2_ENS_10_Select1stISD_EEED1Ev@Base 2.4.1
 _ZN4Hash10hash_tableIN4CVC34ExprESt4pairIKS2_PNS1_6CDOmapIS2_NS1_14TheoryArithOld20DifferenceLogicGraph11EpsRationalENS_4hashIS2_EEEEESA_St8equal_toIS2_ENS_10_Select1stISD_EEED2Ev@Base 2.4.1
 _ZN4Hash10hash_tableIN4CVC34ExprESt4pairIKS2_PNS1_6CDOmapIS2_NS1_14TheoryArithOld20DifferenceLogicGraph8EdgeInfoENS_4hashIS2_EEEEESA_St8equal_toIS2_ENS_10_Select1stISD_EEED1Ev@Base 2.4.1
 _ZN4Hash10hash_tableIN4CVC34ExprESt4pairIKS2_PNS1_6CDOmapIS2_NS1_14TheoryArithOld20DifferenceLogicGraph8EdgeInfoENS_4hashIS2_EEEEESA_St8equal_toIS2_ENS_10_Select1stISD_EEED2Ev@Base 2.4.1
 _ZN4Hash10hash_tableIN4CVC34ExprESt4pairIKS2_PNS1_6CDOmapIS2_NS1_14TheoryArithOld9FreeConstENS_4hashIS2_EEEEES9_St8equal_toIS2_ENS_10_Select1stISC_EEED1Ev@Base 2.4.1
 _ZN4Hash10hash_tableIN4CVC34ExprESt4pairIKS2_PNS1_6CDOmapIS2_NS1_14TheoryArithOld9FreeConstENS_4hashIS2_EEEEES9_St8equal_toIS2_ENS_10_Select1stISC_EEED2Ev@Base 2.4.1
 _ZN4Hash10hash_tableIN4CVC34ExprESt4pairIKS2_PNS1_6CDOmapIS2_NS1_3VCL13UserAssertionENS_4hashIS2_EEEEES9_St8equal_toIS2_ENS_10_Select1stISC_EEE6resizeEv@Base 2.4.1
 _ZN4Hash10hash_tableIN4CVC34ExprESt4pairIKS2_PNS1_6CDOmapIS2_NS1_3VCL13UserAssertionENS_4hashIS2_EEEEES9_St8equal_toIS2_ENS_10_Select1stISC_EEED1Ev@Base 2.4.1
 _ZN4Hash10hash_tableIN4CVC34ExprESt4pairIKS2_PNS1_6CDOmapIS2_NS1_3VCL13UserAssertionENS_4hashIS2_EEEEES9_St8equal_toIS2_ENS_10_Select1stISC_EEED2Ev@Base 2.4.1
 _ZN4Hash10hash_tableIN4CVC34ExprESt4pairIKS2_PNS1_6CDOmapIS2_NS1_7LiteralENS_4hashIS2_EEEEES8_St8equal_toIS2_ENS_10_Select1stISB_EEE6resizeEv@Base 2.4.1
 _ZN4Hash10hash_tableIN4CVC34ExprESt4pairIKS2_PNS1_6CDOmapIS2_NS1_7LiteralENS_4hashIS2_EEEEES8_St8equal_toIS2_ENS_10_Select1stISB_EEED1Ev@Base 2.4.1
 _ZN4Hash10hash_tableIN4CVC34ExprESt4pairIKS2_PNS1_6CDOmapIS2_NS1_7LiteralENS_4hashIS2_EEEEES8_St8equal_toIS2_ENS_10_Select1stISB_EEED2Ev@Base 2.4.1
 _ZN4Hash10hash_tableIN4CVC34ExprESt4pairIKS2_PNS1_6CDOmapIS2_NS1_7TheoremENS_4hashIS2_EEEEES8_St8equal_toIS2_ENS_10_Select1stISB_EEE5clearEv@Base 2.4.1
 _ZN4Hash10hash_tableIN4CVC34ExprESt4pairIKS2_PNS1_6CDOmapIS2_NS1_7TheoremENS_4hashIS2_EEEEES8_St8equal_toIS2_ENS_10_Select1stISB_EEE6resizeEv@Base 2.4.1
 _ZN4Hash10hash_tableIN4CVC34ExprESt4pairIKS2_PNS1_6CDOmapIS2_NS1_7TheoremENS_4hashIS2_EEEEES8_St8equal_toIS2_ENS_10_Select1stISB_EEED1Ev@Base 2.4.1
 _ZN4Hash10hash_tableIN4CVC34ExprESt4pairIKS2_PNS1_6CDOmapIS2_NS1_7TheoremENS_4hashIS2_EEEEES8_St8equal_toIS2_ENS_10_Select1stISB_EEED2Ev@Base 2.4.1
 _ZN4Hash10hash_tableIN4CVC34ExprESt4pairIKS2_PNS1_6CDOmapIS2_NS1_8RationalENS_4hashIS2_EEEEES8_St8equal_toIS2_ENS_10_Select1stISB_EEED1Ev@Base 2.4.1
 _ZN4Hash10hash_tableIN4CVC34ExprESt4pairIKS2_PNS1_6CDOmapIS2_NS1_8RationalENS_4hashIS2_EEEEES8_St8equal_toIS2_ENS_10_Select1stISB_EEED2Ev@Base 2.4.1
 _ZN4Hash10hash_tableIN4CVC34ExprESt4pairIKS2_PNS1_6CDOmapIS2_NS1_8SmartCDOINS1_8UnsignedEEENS_4hashIS2_EEEEESA_St8equal_toIS2_ENS_10_Select1stISD_EEED1Ev@Base 2.4.1
 _ZN4Hash10hash_tableIN4CVC34ExprESt4pairIKS2_PNS1_6CDOmapIS2_NS1_8SmartCDOINS1_8UnsignedEEENS_4hashIS2_EEEEESA_St8equal_toIS2_ENS_10_Select1stISD_EEED2Ev@Base 2.4.1
 _ZN4Hash10hash_tableIN4CVC34ExprESt4pairIKS2_PNS1_6CDOmapIS2_PNS1_6CDListINS1_7dynTrigEEENS_4hashIS2_EEEEESB_St8equal_toIS2_ENS_10_Select1stISE_EEED1Ev@Base 2.4.1
 _ZN4Hash10hash_tableIN4CVC34ExprESt4pairIKS2_PNS1_6CDOmapIS2_PNS1_6CDListINS1_7dynTrigEEENS_4hashIS2_EEEEESB_St8equal_toIS2_ENS_10_Select1stISE_EEED2Ev@Base 2.4.1
 _ZN4Hash10hash_tableIN4CVC34ExprESt4pairIKS2_PNS1_6CDOmapIS2_S2_NS_4hashIS2_EEEEES7_St8equal_toIS2_ENS_10_Select1stISA_EEE6resizeEv@Base 2.4.1
 _ZN4Hash10hash_tableIN4CVC34ExprESt4pairIKS2_PNS1_6CDOmapIS2_S2_NS_4hashIS2_EEEEES7_St8equal_toIS2_ENS_10_Select1stISA_EEED1Ev@Base 2.4.1
 _ZN4Hash10hash_tableIN4CVC34ExprESt4pairIKS2_PNS1_6CDOmapIS2_S2_NS_4hashIS2_EEEEES7_St8equal_toIS2_ENS_10_Select1stISA_EEED2Ev@Base 2.4.1
 _ZN4Hash10hash_tableIN4CVC34ExprESt4pairIKS2_PNS1_6CDOmapIS2_St3setISt6vectorIS2_SaIS2_EESt4lessIS9_ESaIS9_EENS_4hashIS2_EEEEESF_St8equal_toIS2_ENS_10_Select1stISI_EEED1Ev@Base 2.4.1
 _ZN4Hash10hash_tableIN4CVC34ExprESt4pairIKS2_PNS1_6CDOmapIS2_St3setISt6vectorIS2_SaIS2_EESt4lessIS9_ESaIS9_EENS_4hashIS2_EEEEESF_St8equal_toIS2_ENS_10_Select1stISI_EEED2Ev@Base 2.4.1
 _ZN4Hash10hash_tableIN4CVC34ExprESt4pairIKS2_PNS1_6CDOmapIS2_St6vectorIS2_SaIS2_EENS_4hashIS2_EEEEESA_St8equal_toIS2_ENS_10_Select1stISD_EEED1Ev@Base 2.4.1
 _ZN4Hash10hash_tableIN4CVC34ExprESt4pairIKS2_PNS1_6CDOmapIS2_St6vectorIS2_SaIS2_EENS_4hashIS2_EEEEESA_St8equal_toIS2_ENS_10_Select1stISD_EEED2Ev@Base 2.4.1
 _ZN4Hash10hash_tableIN4CVC34ExprESt4pairIKS2_PNS1_6CDOmapIS2_bNS_4hashIS2_EEEEES7_St8equal_toIS2_ENS_10_Select1stISA_EEE6resizeEv@Base 2.4.1
 _ZN4Hash10hash_tableIN4CVC34ExprESt4pairIKS2_PNS1_6CDOmapIS2_bNS_4hashIS2_EEEEES7_St8equal_toIS2_ENS_10_Select1stISA_EEED1Ev@Base 2.4.1
 _ZN4Hash10hash_tableIN4CVC34ExprESt4pairIKS2_PNS1_6CDOmapIS2_bNS_4hashIS2_EEEEES7_St8equal_toIS2_ENS_10_Select1stISA_EEED2Ev@Base 2.4.1
 _ZN4Hash10hash_tableIN4CVC34ExprESt4pairIKS2_PNS1_6CDOmapIS2_iNS_4hashIS2_EEEEES7_St8equal_toIS2_ENS_10_Select1stISA_EEED1Ev@Base 2.4.1
 _ZN4Hash10hash_tableIN4CVC34ExprESt4pairIKS2_PNS1_6CDOmapIS2_iNS_4hashIS2_EEEEES7_St8equal_toIS2_ENS_10_Select1stISA_EEED2Ev@Base 2.4.1
 _ZN4Hash10hash_tableIN4CVC34ExprESt4pairIKS2_S2_ENS_4hashIS2_EESt8equal_toIS2_ENS_10_Select1stIS5_EEE6resizeEv@Base 2.4.1
 _ZN4Hash10hash_tableIN4CVC34ExprESt4pairIKS2_S2_ENS_4hashIS2_EESt8equal_toIS2_ENS_10_Select1stIS5_EEE8iteratorppEv@Base 2.4.1
 _ZN4Hash10hash_tableIN4CVC34ExprESt4pairIKS2_S2_ENS_4hashIS2_EESt8equal_toIS2_ENS_10_Select1stIS5_EEEC1ERKSC_@Base 2.4.1
 _ZN4Hash10hash_tableIN4CVC34ExprESt4pairIKS2_S2_ENS_4hashIS2_EESt8equal_toIS2_ENS_10_Select1stIS5_EEEC2ERKSC_@Base 2.4.1
 _ZN4Hash10hash_tableIN4CVC34ExprESt4pairIKS2_S2_ENS_4hashIS2_EESt8equal_toIS2_ENS_10_Select1stIS5_EEED1Ev@Base 2.4.1
 _ZN4Hash10hash_tableIN4CVC34ExprESt4pairIKS2_S2_ENS_4hashIS2_EESt8equal_toIS2_ENS_10_Select1stIS5_EEED2Ev@Base 2.4.1
 _ZN4Hash10hash_tableIN4CVC34ExprESt4pairIKS2_St3setIS2_St4lessIS2_ESaIS2_EEENS_4hashIS2_EESt8equal_toIS2_ENS_10_Select1stISA_EEE4findERS4_@Base 2.4.1
 _ZN4Hash10hash_tableIN4CVC34ExprESt4pairIKS2_St3setIS2_St4lessIS2_ESaIS2_EEENS_4hashIS2_EESt8equal_toIS2_ENS_10_Select1stISA_EEED1Ev@Base 2.4.1
 _ZN4Hash10hash_tableIN4CVC34ExprESt4pairIKS2_St3setIS2_St4lessIS2_ESaIS2_EEENS_4hashIS2_EESt8equal_toIS2_ENS_10_Select1stISA_EEED2Ev@Base 2.4.1
 _ZN4Hash10hash_tableIN4CVC34ExprESt4pairIKS2_St6vectorIPNS1_7CircuitESaIS7_EEENS_4hashIS2_EESt8equal_toIS2_ENS_10_Select1stISA_EEE6resizeEv@Base 2.4.1
 _ZN4Hash10hash_tableIN4CVC34ExprESt4pairIKS2_St6vectorIPNS1_7CircuitESaIS7_EEENS_4hashIS2_EESt8equal_toIS2_ENS_10_Select1stISA_EEED1Ev@Base 2.4.1
 _ZN4Hash10hash_tableIN4CVC34ExprESt4pairIKS2_St6vectorIPNS1_7CircuitESaIS7_EEENS_4hashIS2_EESt8equal_toIS2_ENS_10_Select1stISA_EEED2Ev@Base 2.4.1
 _ZN4Hash10hash_tableIN4CVC34ExprESt4pairIKS2_St6vectorIS2_SaIS2_EEENS_4hashIS2_EESt8equal_toIS2_ENS_10_Select1stIS8_EEED1Ev@Base 2.4.1
 _ZN4Hash10hash_tableIN4CVC34ExprESt4pairIKS2_St6vectorIS2_SaIS2_EEENS_4hashIS2_EESt8equal_toIS2_ENS_10_Select1stIS8_EEED2Ev@Base 2.4.1
 _ZN4Hash10hash_tableIN4CVC34ExprESt4pairIKS2_bENS_4hashIS2_EESt8equal_toIS2_ENS_10_Select1stIS5_EEE5eraseERS4_@Base 2.4.1
 _ZN4Hash10hash_tableIN4CVC34ExprESt4pairIKS2_bENS_4hashIS2_EESt8equal_toIS2_ENS_10_Select1stIS5_EEE6resizeEv@Base 2.4.1
 _ZN4Hash10hash_tableIN4CVC34ExprESt4pairIKS2_bENS_4hashIS2_EESt8equal_toIS2_ENS_10_Select1stIS5_EEED1Ev@Base 2.4.1
 _ZN4Hash10hash_tableIN4CVC34ExprESt4pairIKS2_bENS_4hashIS2_EESt8equal_toIS2_ENS_10_Select1stIS5_EEED2Ev@Base 2.4.1
 _ZN4Hash10hash_tableIPN4CVC313VariableValueES3_NS1_15VariableManager6HashLVENS4_4EqLVENS_9_IdentityIS3_EEED1Ev@Base 2.4.1
 _ZN4Hash10hash_tableIPN4CVC313VariableValueES3_NS1_15VariableManager6HashLVENS4_4EqLVENS_9_IdentityIS3_EEED2Ev@Base 2.4.1
 _ZN4Hash10hash_tableIPN4CVC39ExprValueES3_NS1_11ExprManager6HashEVENS4_4EqEVENS_9_IdentityIS3_EEED1Ev@Base 2.4.1
 _ZN4Hash10hash_tableIPN4CVC39ExprValueES3_NS1_11ExprManager6HashEVENS4_4EqEVENS_9_IdentityIS3_EEED2Ev@Base 2.4.1
 _ZN4Hash10hash_tableISsSt4pairIKSsN4CVC34ExprEENS_4hashISsEESt8equal_toISsENS_10_Select1stIS5_EEED1Ev@Base 2.4.1
 _ZN4Hash10hash_tableISsSt4pairIKSsN4CVC34ExprEENS_4hashISsEESt8equal_toISsENS_10_Select1stIS5_EEED2Ev@Base 2.4.1
 _ZN4Hash10hash_tableISsSt4pairIKSsPN4CVC36CDOmapISsbNS_4hashISsEEEEES6_St8equal_toISsENS_10_Select1stIS9_EEED1Ev@Base 2.4.1
 _ZN4Hash10hash_tableISsSt4pairIKSsPN4CVC36CDOmapISsbNS_4hashISsEEEEES6_St8equal_toISsENS_10_Select1stIS9_EEED2Ev@Base 2.4.1
 _ZN4Hash10hash_tableISsSt4pairIKSsSsEN4CVC310Translator10HashStringESt8equal_toISsENS_10_Select1stIS3_EEED1Ev@Base 2.4.1
 _ZN4Hash10hash_tableISsSt4pairIKSsSsEN4CVC310Translator10HashStringESt8equal_toISsENS_10_Select1stIS3_EEED2Ev@Base 2.4.1
 _ZN4Hash10hash_tableISsSt4pairIKSsiEN4CVC311ExprManager10HashStringESt8equal_toISsENS_10_Select1stIS3_EEED1Ev@Base 2.4.1
 _ZN4Hash10hash_tableISsSt4pairIKSsiEN4CVC311ExprManager10HashStringESt8equal_toISsENS_10_Select1stIS3_EEED2Ev@Base 2.4.1
 _ZN4Hash10hash_tableIiSt4pairIKiPN4CVC36TheoryEENS_4hashIiEESt8equal_toIiENS_10_Select1stIS6_EEE14find_or_insertERKS6_@Base 2.4.1
 _ZN4Hash10hash_tableIiSt4pairIKiPN4CVC36TheoryEENS_4hashIiEESt8equal_toIiENS_10_Select1stIS6_EEED1Ev@Base 2.4.1
 _ZN4Hash10hash_tableIiSt4pairIKiPN4CVC36TheoryEENS_4hashIiEESt8equal_toIiENS_10_Select1stIS6_EEED2Ev@Base 2.4.1
 _ZN4Hash10hash_tableIiSt4pairIKiPN7MiniSat6ClauseEENS_4hashIiEESt8equal_toIiENS_10_Select1stIS6_EEE14find_or_insertERKS6_@Base 2.4.1
 _ZN4Hash10hash_tableIiSt4pairIKiPN7MiniSat6ClauseEENS_4hashIiEESt8equal_toIiENS_10_Select1stIS6_EEED1Ev@Base 2.4.1
 _ZN4Hash10hash_tableIiSt4pairIKiPN7MiniSat6ClauseEENS_4hashIiEESt8equal_toIiENS_10_Select1stIS6_EEED2Ev@Base 2.4.1
 _ZN4Hash10hash_tableIiSt4pairIKiSsENS_4hashIiEESt8equal_toIiENS_10_Select1stIS3_EEED1Ev@Base 2.4.1
 _ZN4Hash10hash_tableIiSt4pairIKiSsENS_4hashIiEESt8equal_toIiENS_10_Select1stIS3_EEED2Ev@Base 2.4.1
 _ZN4Hash10hash_tableIiSt4pairIKibENS_4hashIiEESt8equal_toIiENS_10_Select1stIS3_EEED1Ev@Base 2.4.1
 _ZN4Hash10hash_tableIiSt4pairIKibENS_4hashIiEESt8equal_toIiENS_10_Select1stIS3_EEED2Ev@Base 2.4.1
 _ZN4Hash10hash_tableIiiNS_4hashIiEESt8equal_toIiENS_9_IdentityIiEEEC1ERKS7_@Base 2.4.1
 _ZN4Hash10hash_tableIiiNS_4hashIiEESt8equal_toIiENS_9_IdentityIiEEEC2ERKS7_@Base 2.4.1
 _ZN4Hash10hash_tableIiiNS_4hashIiEESt8equal_toIiENS_9_IdentityIiEEED1Ev@Base 2.4.1
 _ZN4Hash10hash_tableIiiNS_4hashIiEESt8equal_toIiENS_9_IdentityIiEEED2Ev@Base 2.4.1
 _ZN4Hash10hash_tableIlSt4pairIKlbENS_4hashIlEESt8equal_toIlENS_10_Select1stIS3_EEED1Ev@Base 2.4.1
 _ZN4Hash10hash_tableIlSt4pairIKlbENS_4hashIlEESt8equal_toIlENS_10_Select1stIS3_EEED2Ev@Base 2.4.1
 _ZN4Hash10hash_tableIlSt4pairIKliENS_4hashIlEESt8equal_toIlENS_10_Select1stIS3_EEED1Ev@Base 2.4.1
 _ZN4Hash10hash_tableIlSt4pairIKliENS_4hashIlEESt8equal_toIlENS_10_Select1stIS3_EEED2Ev@Base 2.4.1
 _ZN4Hash8hash_mapIN4CVC34ExprEN3SAT3VarENS_4hashIS2_EESt8equal_toIS2_EEixERKS2_@Base 2.4.1
 _ZN4Hash8hash_mapIN4CVC34ExprENS1_7TheoremENS_4hashIS2_EESt8equal_toIS2_EEixERKS2_@Base 2.4.1
 _ZN4Hash8hash_mapIN4CVC34ExprEPNS1_6CDOmapIS2_NS1_7TheoremENS_4hashIS2_EEEES6_St8equal_toIS2_EEixERKS2_@Base 2.4.1
 _ZN4Hash8hash_mapIN4CVC34ExprEPNS1_6CDOmapIS2_NS1_8SmartCDOINS1_8UnsignedEEENS_4hashIS2_EEEES8_St8equal_toIS2_EEixERKS2_@Base 2.4.1
 _ZN4Hash8hash_mapIN4CVC34ExprES2_NS_4hashIS2_EESt8equal_toIS2_EEixERKS2_@Base 2.4.1
 _ZN4Hash8hash_mapIN4CVC34ExprESt3setIS2_St4lessIS2_ESaIS2_EENS_4hashIS2_EESt8equal_toIS2_EEixERKS2_@Base 2.4.1
 _ZN4Hash8hash_mapIN4CVC34ExprESt6vectorIPNS1_7CircuitESaIS5_EENS_4hashIS2_EESt8equal_toIS2_EEixERKS2_@Base 2.4.1
 _ZN4Hash8hash_mapIN4CVC34ExprESt6vectorIS2_SaIS2_EENS_4hashIS2_EESt8equal_toIS2_EEixERKS2_@Base 2.4.1
 _ZN4Hash8hash_mapIN4CVC34ExprEbNS_4hashIS2_EESt8equal_toIS2_EEixERKS2_@Base 2.4.1
 _ZN4Hash8hash_mapISsN4CVC34ExprENS_4hashISsEESt8equal_toISsEEixERKSs@Base 2.4.1
 _ZN4Hash8hash_mapISsSsN4CVC310Translator10HashStringESt8equal_toISsEEixERKSs@Base 2.4.1
 _ZN6RefPtrI9LFSCProofED1Ev@Base 2.4.1
 _ZN6RefPtrI9LFSCProofED2Ev@Base 2.4.1
 _ZN6RefPtrI9LFSCProofEaSEPS0_@Base 2.4.1
 _ZN7LFSCLem10get_lengthEv@Base 2.4.1
 _ZN7LFSCLem12checkBoolResERSt6vectorIiSaIiEE@Base 2.4.1
 _ZN7LFSCLem12print_structERSoi@Base 2.4.1
 _ZN7LFSCLem5cloneEv@Base 2.4.1
 _ZN7LFSCLem8print_pfERSoi@Base 2.4.1
 _ZN7LFSCLem9AsLFSCLemEv@Base 2.4.1
 _ZN7LFSCLemD0Ev@Base 2.4.1
 _ZN7LFSCLemD1Ev@Base 2.4.1
 _ZN7LFSCLemD2Ev@Base 2.4.1
 _ZN7LFSCObj10cvc3_mimicE@Base 2.4.1
 _ZN7LFSCObj10d_andE_strE@Base 2.4.1
 _ZN7LFSCObj10d_formulasE@Base 2.4.1
 _ZN7LFSCObj10d_or_mid_sE@Base 2.4.1
 _ZN7LFSCObj10d_refl_strE@Base 2.4.1
 _ZN7LFSCObj10debug_convE@Base 2.4.1
 _ZN7LFSCObj10initializeERKN4CVC34ExprEi@Base 2.4.1
 _ZN7LFSCObj10input_varsE@Base 2.4.1
 _ZN7LFSCObj11d_and_mid_sE@Base 2.4.1
 _ZN7LFSCObj11getNumNodesERKN4CVC34ExprEb@Base 2.4.1
 _ZN7LFSCObj11input_predsE@Base 2.4.1
 _ZN7LFSCObj11queryAtomicERKN4CVC34ExprEb@Base 2.4.1
 _ZN7LFSCObj11skolem_varsE@Base 2.4.1
 _ZN7LFSCObj12cascade_exprERKN4CVC34ExprE@Base 2.4.1
 _ZN7LFSCObj12collect_varsERKN4CVC34ExprEb@Base 2.4.1
 _ZN7LFSCObj12d_CNFITE_strE@Base 2.4.1
 _ZN7LFSCObj12d_assump_mapE@Base 2.4.1
 _ZN7LFSCObj12d_assump_strE@Base 2.4.1
 _ZN7LFSCObj12d_iff_mp_strE@Base 2.4.1
 _ZN7LFSCObj12d_imp_mp_strE@Base 2.4.1
 _ZN7LFSCObj12d_or_final_sE@Base 2.4.1
 _ZN7LFSCObj12temp_visitedE@Base 2.4.1
 _ZN7LFSCObj13d_and_final_sE@Base 2.4.1
 _ZN7LFSCObj13d_eq_symm_strE@Base 2.4.1
 _ZN7LFSCObj13d_impl_mp_strE@Base 2.4.1
 _ZN7LFSCObj14d_bool_res_strE@Base 2.4.1
 _ZN7LFSCObj14d_eq_trans_strE@Base 2.4.1
 _ZN7LFSCObj14d_iff_symm_strE@Base 2.4.1
 _ZN7LFSCObj14d_iff_true_strE@Base 2.4.1
 _ZN7LFSCObj14d_mult_eqn_strE@Base 2.4.1
 _ZN7LFSCObj14what_is_provenERKN4CVC34ExprERS1_@Base 2.4.1
 _ZN7LFSCObj15d_iff_false_strE@Base 2.4.1
 _ZN7LFSCObj15d_iff_trans_strE@Base 2.4.1
 _ZN7LFSCObj15d_var_intro_strE@Base 2.4.1
 _ZN7LFSCObj15queryElimNotNotERKN4CVC34ExprE@Base 2.4.1
 _ZN7LFSCObj16cvc3_mimic_inputE@Base 2.4.1
 _ZN7LFSCObj16d_canon_mult_strE@Base 2.4.1
 _ZN7LFSCObj16d_canon_plus_strE@Base 2.4.1
 _ZN7LFSCObj16d_mult_ineqn_strE@Base 2.4.1
 _ZN7LFSCObj16d_not_to_iff_strE@Base 2.4.1
 _ZN7LFSCObj16d_rewrite_or_strE@Base 2.4.1
 _ZN7LFSCObj17d_cnf_convert_strE@Base 2.4.1
 _ZN7LFSCObj17d_real_shadow_strE@Base 2.4.1
 _ZN7LFSCObj17d_rewrite_and_strE@Base 2.4.1
 _ZN7LFSCObj17d_rewrite_iff_strE@Base 2.4.1
 _ZN7LFSCObj18d_cnf_add_unit_strE@Base 2.4.1
 _ZN7LFSCObj18d_formulas_printedE@Base 2.4.1
 _ZN7LFSCObj18d_if_lift_rule_strE@Base 2.4.1
 _ZN7LFSCObj18d_int_const_eq_strE@Base 2.4.1
 _ZN7LFSCObj18d_not_not_elim_strE@Base 2.4.1
 _ZN7LFSCObj18define_skolem_varsERKN4CVC34ExprE@Base 2.4.1
 _ZN7LFSCObj19d_iff_not_false_strE@Base 2.4.1
 _ZN7LFSCObj19d_iff_true_elim_strE@Base 2.4.1
 _ZN7LFSCObj19d_minisat_proof_strE@Base 2.4.1
 _ZN7LFSCObj19d_minus_to_plus_strE@Base 2.4.1
 _ZN7LFSCObj20d_basic_subst_op_strE@Base 2.4.1
 _ZN7LFSCObj20d_cycle_conflict_strE@Base 2.4.1
 _ZN7LFSCObj20d_iff_false_elim_strE@Base 2.4.1
 _ZN7LFSCObj20d_learned_clause_strE@Base 2.4.1
 _ZN7LFSCObj20d_plus_predicate_strE@Base 2.4.1
 _ZN7LFSCObj20d_real_shadow_eq_strE@Base 2.4.1
 _ZN7LFSCObj20d_uminus_to_mult_strE@Base 2.4.1
 _ZN7LFSCObj21d_addInequalities_strE@Base 2.4.1
 _ZN7LFSCObj21d_basic_subst_op0_strE@Base 2.4.1
 _ZN7LFSCObj21d_basic_subst_op1_strE@Base 2.4.1
 _ZN7LFSCObj21d_const_predicate_strE@Base 2.4.1
 _ZN7LFSCObj21d_flip_inequality_strE@Base 2.4.1
 _ZN7LFSCObj21d_implyEqualities_strE@Base 2.4.1
 _ZN7LFSCObj21d_rewrite_eq_refl_strE@Base 2.4.1
 _ZN7LFSCObj21d_rewrite_eq_symm_strE@Base 2.4.1
 _ZN7LFSCObj21d_rewrite_implies_strE@Base 2.4.1
 _ZN7LFSCObj21d_rewrite_not_not_strE@Base 2.4.1
 _ZN7LFSCObj22d_rewrite_iff_symm_strE@Base 2.4.1
 _ZN7LFSCObj22d_rewrite_ite_same_strE@Base 2.4.1
 _ZN7LFSCObj22d_rewrite_not_true_strE@Base 2.4.1
 _ZN7LFSCObj22d_right_minus_left_strE@Base 2.4.1
 _ZN7LFSCObj23d_rewrite_not_false_strE@Base 2.4.1
 _ZN7LFSCObj24d_negated_inequality_strE@Base 2.4.1
 _ZN7LFSCObj24d_optimized_subst_op_strE@Base 2.4.1
 _ZN7LFSCObj25d_canon_invert_divide_strE@Base 2.4.1
 _ZN7LFSCObj27d_implyWeakerInequality_strE@Base 2.4.1
 _ZN7LFSCObj28d_implyNegatedInequality_strE@Base 2.4.1
 _ZN7LFSCObj28d_lessThan_To_LE_rhs_rwr_strE@Base 2.4.1
 _ZN7LFSCObj36d_implyWeakerInequalityDiffLogic_strE@Base 2.4.1
 _ZN7LFSCObj4d_pnE@Base 2.4.1
 _ZN7LFSCObj4getYERKN4CVC34ExprERS1_bb@Base 2.4.1
 _ZN7LFSCObj5isVarERKN4CVC34ExprE@Base 2.4.1
 _ZN7LFSCObj6queryMERKN4CVC34ExprEbb@Base 2.4.1
 _ZN7LFSCObj6queryTERKN4CVC34ExprE@Base 2.4.1
 _ZN7LFSCObj6term_iE@Base 2.4.1
 _ZN7LFSCObj7cas_mapE@Base 2.4.1
 _ZN7LFSCObj7d_iff_sE@Base 2.4.1
 _ZN7LFSCObj7d_imp_sE@Base 2.4.1
 _ZN7LFSCObj7d_ite_sE@Base 2.4.1
 _ZN7LFSCObj7d_rulesE@Base 2.4.1
 _ZN7LFSCObj7d_termsE@Base 2.4.1
 _ZN7LFSCObj7nullRatE@Base 2.4.1
 _ZN7LFSCObj7printerE@Base 2.4.1
 _ZN7LFSCObj7queryMtERKN4CVC34ExprE@Base 2.4.1
 _ZN7LFSCObj7tnorm_iE@Base 2.4.1
 _ZN7LFSCObj9can_pnormERKN4CVC34ExprE@Base 2.4.1
 _ZN7LFSCObj9d_CNF_strE@Base 2.4.1
 _ZN7LFSCObj9d_pf_exprE@Base 2.4.1
 _ZN7LFSCObj9d_pn_formE@Base 2.4.1
 _ZN7LFSCObj9d_trustedE@Base 2.4.1
 _ZN7LFSCObj9debug_varE@Base 2.4.1
 _ZN7LFSCObj9formula_iE@Base 2.4.1
 _ZN7LFSCObj9isFormulaERKN4CVC34ExprE@Base 2.4.1
 _ZN7LFSCObj9lfsc_modeE@Base 2.4.1
 _ZN7LFSCObj9nnode_mapE@Base 2.4.1
 _ZN7LFSCObj9pntNeededE@Base 2.4.1
 _ZN7LFSCObj9trusted_iE@Base 2.4.1
 _ZN7LFSCObjD0Ev@Base 2.4.1
 _ZN7LFSCObjD1Ev@Base 2.4.1
 _ZN7LFSCObjD2Ev@Base 2.4.1
 _ZN7MiniSat10Clause_newERKSt6vectorINS_3LitESaIS1_EEN4CVC37TheoremEi@Base 2.4.1
 _ZN7MiniSat10Derivation11createProofEPNS_6ClauseE@Base 2.4.1
 _ZN7MiniSat10Derivation11createProofEv@Base 2.4.1
 _ZN7MiniSat10Derivation14registerClauseEPNS_6ClauseE@Base 2.4.1
 _ZN7MiniSat10Derivation15checkDerivationEPNS_6ClauseE@Base 2.4.1
 _ZN7MiniSat10Derivation15printDerivationEPNS_6ClauseE@Base 2.4.1
 _ZN7MiniSat10Derivation15printDerivationEv@Base 2.4.1
 _ZN7MiniSat10Derivation17computeRootReasonENS_3LitEPNS_6SolverE@Base 2.4.1
 _ZN7MiniSat10Derivation17registerInferenceEiPNS_9InferenceE@Base 2.4.1
 _ZN7MiniSat10Derivation3popEi@Base 2.4.1
 _ZN7MiniSat10Derivation4pushEi@Base 2.4.1
 _ZN7MiniSat10Derivation6finishEPNS_6ClauseEPNS_6SolverE@Base 2.4.1
 _ZN7MiniSat10DerivationD1Ev@Base 2.4.1
 _ZN7MiniSat10DerivationD2Ev@Base 2.4.1
 _ZN7MiniSat12cvcToMiniSatERKN3SAT6ClauseERSt6vectorINS_3LitESaIS5_EE@Base 2.4.1
 _ZN7MiniSat13malloc_clauseERKSt6vectorINS_3LitESaIS1_EE@Base 2.4.1
 _ZN7MiniSat3vecIiE4growEi@Base 2.4.1
 _ZN7MiniSat4HeapINS_11VarOrder_ltEED1Ev@Base 2.4.1
 _ZN7MiniSat4HeapINS_11VarOrder_ltEED2Ev@Base 2.4.1
 _ZN7MiniSat6Clause10s_decisionE@Base 2.4.1
 _ZN7MiniSat6Clause17TheoryImplicationEv@Base 2.4.1
 _ZN7MiniSat6Clause19s_theoryImplicationE@Base 2.4.1
 _ZN7MiniSat6Clause8DecisionEv@Base 2.4.1
 _ZN7MiniSat6Solver10addFormulaERKN3SAT11CNF_FormulaEb@Base 2.4.1
 _ZN7MiniSat6Solver10createFromEPKS0_@Base 2.4.1
 _ZN7MiniSat6Solver10curAssignsEv@Base 2.4.1
 _ZN7MiniSat6Solver10curClausesEv@Base 2.4.1
 _ZN7MiniSat6Solver10popClausesERKNS_9PushEntryERSt6vectorIPNS_6ClauseESaIS6_EE@Base 2.4.1
 _ZN7MiniSat6Solver10requestPopEv@Base 2.4.1
 _ZN7MiniSat6Solver10simplifyDBEv@Base 2.4.1
 _ZN7MiniSat6Solver11insertLemmaEPKNS_6ClauseEii@Base 2.4.1
 _ZN7MiniSat6Solver11popTheoriesEv@Base 2.4.1
 _ZN7MiniSat6Solver11registerVarEi@Base 2.4.1
 _ZN7MiniSat6Solver11removeWatchERSt6vectorIPNS_6ClauseESaIS3_EES3_@Base 2.4.1
 _ZN7MiniSat6Solver12cvcToMiniSatERKN3SAT6ClauseEi@Base 2.4.1
 _ZN7MiniSat6Solver12insertClauseEPNS_6ClauseE@Base 2.4.1
 _ZN7MiniSat6Solver12isRegisteredEi@Base 2.4.1
 _ZN7MiniSat6Solver12nextClauseIDEv@Base 2.4.1
 _ZN7MiniSat6Solver13propLookaheadERKNS_12SearchParamsE@Base 2.4.1
 _ZN7MiniSat6Solver14updateConflictEPNS_6ClauseE@Base 2.4.1
 _ZN7MiniSat6Solver16analyze_minimizeERSt6vectorINS_3LitESaIS2_EEPNS_9InferenceERi@Base 2.4.1
 _ZN7MiniSat6Solver17analyze_removableENS_3LitEji@Base 2.4.1
 _ZN7MiniSat6Solver18claRescaleActivityEv@Base 2.4.1
 _ZN7MiniSat6Solver18varRescaleActivityEv@Base 2.4.1
 _ZN7MiniSat6Solver19allClausesSatisfiedEv@Base 2.4.1
 _ZN7MiniSat6Solver24resolveTheoryImplicationENS_3LitE@Base 2.4.1
 _ZN7MiniSat6Solver3popEv@Base 2.4.1
 _ZN7MiniSat6Solver4pushEv@Base 2.4.1
 _ZN7MiniSat6Solver6assumeENS_3LitE@Base 2.4.1
 _ZN7MiniSat6Solver6doPopsEv@Base 2.4.1
 _ZN7MiniSat6Solver6removeEPNS_6ClauseEb@Base 2.4.1
 _ZN7MiniSat6Solver6searchEv@Base 2.4.1
 _ZN7MiniSat6Solver7analyzeERi@Base 2.4.1
 _ZN7MiniSat6Solver7enqueueENS_3LitEiPNS_6ClauseE@Base 2.4.1
 _ZN7MiniSat6Solver8reduceDBEv@Base 2.4.1
 _ZN7MiniSat6Solver9addClauseENS_3LitEN4CVC37TheoremE@Base 2.4.1
 _ZN7MiniSat6Solver9addClauseERKN3SAT6ClauseEb@Base 2.4.1
 _ZN7MiniSat6Solver9addClauseERKNS_6ClauseEb@Base 2.4.1
 _ZN7MiniSat6Solver9addClauseERSt6vectorINS_3LitESaIS2_EEN4CVC37TheoremEi@Base 2.4.1
 _ZN7MiniSat6Solver9backtrackEiPNS_6ClauseE@Base 2.4.1
 _ZN7MiniSat6Solver9getReasonENS_3LitEb@Base 2.4.1
 _ZN7MiniSat6Solver9propagateEv@Base 2.4.1
 _ZN7MiniSat6Solver9setPushIDEiPNS_6ClauseE@Base 2.4.1
 _ZN7MiniSat6SolverC1EPN3SAT5DPLLT9TheoryAPIEPNS2_7DeciderEb@Base 2.4.1
 _ZN7MiniSat6SolverC2EPN3SAT5DPLLT9TheoryAPIEPNS2_7DeciderEb@Base 2.4.1
 _ZN7MiniSat6SolverD1Ev@Base 2.4.1
 _ZN7MiniSat6SolverD2Ev@Base 2.4.1
 _ZN7MiniSat9Lemma_newERKSt6vectorINS_3LitESaIS1_EEii@Base 2.4.1
 _ZN7TReturn12normalize_trERKN4CVC34ExprERPS_ibb@Base 2.4.1
 _ZN7TReturn13mult_rationalEPS_@Base 2.4.1
 _ZN7TReturn14normalize_tretERKN4CVC34ExprERPS_S3_S5_b@Base 2.4.1
 _ZN7TReturn15normalize_to_tfERKN4CVC34ExprERPS_i@Base 2.4.1
 _ZN7TReturn4getLERSt6vectorIiSaIiEES3_@Base 2.4.1
 _ZN7TReturnC1EP9LFSCProofRSt6vectorIiSaIiEES5_N4CVC38RationalEbi@Base 2.4.1
 _ZN7TReturnC2EP9LFSCProofRSt6vectorIiSaIiEES5_N4CVC38RationalEbi@Base 2.4.1
 _ZN7TReturnD0Ev@Base 2.4.1
 _ZN7TReturnD1Ev@Base 2.4.1
 _ZN7TReturnD2Ev@Base 2.4.1
 _ZN9LFSCPfLet10get_lengthEv@Base 2.4.1
 _ZN9LFSCPfLet11AsLFSCPfLetEv@Base 2.4.1
 _ZN9LFSCPfLet12print_structERSoi@Base 2.4.1
 _ZN9LFSCPfLet5cloneEv@Base 2.4.1
 _ZN9LFSCPfLet8print_pfERSoi@Base 2.4.1
 _ZN9LFSCPfLetC1EP9LFSCProofP9LFSCPfVarS1_bRSt6vectorIiSaIiEE@Base 2.4.1
 _ZN9LFSCPfLetC2EP9LFSCProofP9LFSCPfVarS1_bRSt6vectorIiSaIiEE@Base 2.4.1
 _ZN9LFSCPfLetD0Ev@Base 2.4.1
 _ZN9LFSCPfLetD1Ev@Base 2.4.1
 _ZN9LFSCPfLetD2Ev@Base 2.4.1
 _ZN9LFSCPfVar10get_lengthEv@Base 2.4.1
 _ZN9LFSCPfVar11AsLFSCPfVarEv@Base 2.4.1
 _ZN9LFSCPfVar12print_structERSoi@Base 2.4.1
 _ZN9LFSCPfVar4MakeEPKci@Base 2.4.1
 _ZN9LFSCPfVar4vMapE@Base 2.4.1
 _ZN9LFSCPfVar5MakeVEi@Base 2.4.1
 _ZN9LFSCPfVar5cloneEv@Base 2.4.1
 _ZN9LFSCPfVar8print_pfERSoi@Base 2.4.1
 _ZN9LFSCPfVarD0Ev@Base 2.4.1
 _ZN9LFSCPfVarD1Ev@Base 2.4.1
 _ZN9LFSCPfVarD2Ev@Base 2.4.1
 _ZN9LFSCProof10Make_mimicERKN4CVC34ExprEPS_i@Base 2.4.1
 _ZN9LFSCProof10get_lengthEv@Base 2.4.1
 _ZN9LFSCProof10pf_counterE@Base 2.4.1
 _ZN9LFSCProof11AsLFSCPfLetEv@Base 2.4.1
 _ZN9LFSCProof11AsLFSCPfVarEv@Base 2.4.1
 _ZN9LFSCProof12AsLFSCAssumeEv@Base 2.4.1
 _ZN9LFSCProof12AsLFSCLraAddEv@Base 2.4.1
 _ZN9LFSCProof12AsLFSCLraSubEv@Base 2.4.1
 _ZN9LFSCProof12checkBoolResERSt6vectorIiSaIiEE@Base 2.4.1
 _ZN9LFSCProof12print_structERSoi@Base 2.4.1
 _ZN9LFSCProof13AsLFSCBoolResEv@Base 2.4.1
 _ZN9LFSCProof13AsLFSCLraMulCEv@Base 2.4.1
 _ZN9LFSCProof13AsLFSCLraPolyEv@Base 2.4.1
 _ZN9LFSCProof13Make_and_elimERKN4CVC34ExprEPS_iS3_@Base 2.4.1
 _ZN9LFSCProof13lambdaCounterE@Base 2.4.1
 _ZN9LFSCProof14AsLFSCClausifyEv@Base 2.4.1
 _ZN9LFSCProof14AsLFSCLraAxiomEv@Base 2.4.1
 _ZN9LFSCProof14AsLFSCPfLambdaEv@Base 2.4.1
 _ZN9LFSCProof14getNumChildrenEv@Base 2.4.1
 _ZN9LFSCProof14lambdaPrintMapE@Base 2.4.1
 _ZN9LFSCProof15AsLFSCLraContraEv@Base 2.4.1
 _ZN9LFSCProof15AsLFSCProofExprEv@Base 2.4.1
 _ZN9LFSCProof15print_structureERSoi@Base 2.4.1
 _ZN9LFSCProof17Make_not_not_elimERKN4CVC34ExprEPS_@Base 2.4.1
 _ZN9LFSCProof17get_string_lengthEv@Base 2.4.1
 _ZN9LFSCProof18AsLFSCProofGenericEv@Base 2.4.1
 _ZN9LFSCProof5printERSoi@Base 2.4.1
 _ZN9LFSCProof7checkOpEv@Base 2.4.1
 _ZN9LFSCProof8Make_CNFERKN4CVC34ExprES3_i@Base 2.4.1
 _ZN9LFSCProof8getChildEi@Base 2.4.1
 _ZN9LFSCProof9AsLFSCLemEv@Base 2.4.1
 _ZN9LFSCProof9fillHolesEv@Base 2.4.1
 _ZN9LFSCProof9isLraMulCEv@Base 2.4.1
 _ZN9LFSCProof9isTrivialEv@Base 2.4.1
 _ZN9LFSCProof9lambdaMapE@Base 2.4.1
 _ZN9LFSCProofC1Ev@Base 2.4.1
 _ZN9LFSCProofC2Ev@Base 2.4.1
 _ZN9LFSCProofD0Ev@Base 2.4.1
 _ZN9LFSCProofD1Ev@Base 2.4.1
 _ZN9LFSCProofD2Ev@Base 2.4.1
 _ZN9SatSolver10GetMemUsedEv@Base 2.4.1
 _ZN9SatSolver10GetSATTimeEv@Base 2.4.1
 _ZN9SatSolver12GetMaxDLevelEv@Base 2.4.1
 _ZN9SatSolver12GetTotalTimeEv@Base 2.4.1
 _ZN9SatSolver13GetBudgetUsedEv@Base 2.4.1
 _ZN9SatSolver14GetNumLiteralsEv@Base 2.4.1
 _ZN9SatSolver15GetNumConflictsEv@Base 2.4.1
 _ZN9SatSolver15GetNumDecisionsEv@Base 2.4.1
 _ZN9SatSolver15PrintStatisticsERSo@Base 2.4.1
 _ZN9SatSolver18GetNumExtConflictsEv@Base 2.4.1
 _ZN9SatSolver18GetNumImplicationsEv@Base 2.4.1
 _ZN9SatSolver20GetNumDeletedClausesEv@Base 2.4.1
 _ZN9SatSolver21GetNumDeletedLiteralsEv@Base 2.4.1
 _ZN9SatSolver6CreateEv@Base 2.4.1
 _ZN9__gnu_cxx13new_allocatorIN4CVC34ExprEE10deallocateEPS2_m@Base 2.4.1
 _ZN9__gnu_cxx13new_allocatorIN4CVC34ExprEE7destroyEPS2_@Base 2.4.1
 _ZN9__gnu_cxx13new_allocatorIN4CVC34ExprEE8allocateEmPKv@Base 2.4.1
 _ZN9__gnu_cxx13new_allocatorIN4CVC34ExprEE9constructEPS2_RKS2_@Base 2.4.1
 _ZN9__gnu_cxx13new_allocatorIN4CVC34ExprEEC1ERKS3_@Base 2.4.1
 _ZN9__gnu_cxx13new_allocatorIN4CVC34ExprEEC1Ev@Base 2.4.1
 _ZN9__gnu_cxx13new_allocatorIN4CVC34ExprEEC2ERKS3_@Base 2.4.1
 _ZN9__gnu_cxx13new_allocatorIN4CVC34ExprEEC2Ev@Base 2.4.1
 _ZN9__gnu_cxx13new_allocatorIN4CVC34ExprEED1Ev@Base 2.4.1
 _ZN9__gnu_cxx13new_allocatorIN4CVC34ExprEED2Ev@Base 2.4.1
 _ZN9__gnu_cxx14__alloc_traitsISaIN4CVC34ExprEEE10deallocateERS3_PS2_m@Base 2.4.1
 _ZN9__gnu_cxx14__alloc_traitsISaIN4CVC34ExprEEE17_S_select_on_copyERKS3_@Base 2.4.1
 _ZN9__gnu_cxx14__alloc_traitsISaIN4CVC34ExprEEE7destroyERS3_PS2_@Base 2.4.1
 _ZN9__gnu_cxx14__alloc_traitsISaIN4CVC34ExprEEE8allocateERS3_m@Base 2.4.1
 _ZN9__gnu_cxx14__alloc_traitsISaIN4CVC34ExprEEE8max_sizeERKS3_@Base 2.4.1
 _ZN9__gnu_cxx14__alloc_traitsISaIN4CVC34ExprEEE9constructIS2_EEvRS3_PS2_RKT_@Base 2.4.1
 _ZN9__gnu_cxx17__normal_iteratorIPKN4CVC34ExprESt6vectorIS2_SaIS2_EEEC1ERKS4_@Base 2.4.1
 _ZN9__gnu_cxx17__normal_iteratorIPKN4CVC34ExprESt6vectorIS2_SaIS2_EEEC2ERKS4_@Base 2.4.1
 _ZN9__gnu_cxx17__normal_iteratorIPKN4CVC34ExprESt6vectorIS2_SaIS2_EEEppEv@Base 2.4.1
 _ZN9__gnu_cxx17__normal_iteratorIPN4CVC34ExprESt6vectorIS2_SaIS2_EEEC1ERKS3_@Base 2.4.1
 _ZN9__gnu_cxx17__normal_iteratorIPN4CVC34ExprESt6vectorIS2_SaIS2_EEEC2ERKS3_@Base 2.4.1
 _ZN9__gnu_cxx17__normal_iteratorIPN4CVC34ExprESt6vectorIS2_SaIS2_EEEmIEl@Base 2.4.1
 _ZN9__gnu_cxx17__normal_iteratorIPN4CVC34ExprESt6vectorIS2_SaIS2_EEEmmEv@Base 2.4.1
 _ZN9__gnu_cxx17__normal_iteratorIPN4CVC34ExprESt6vectorIS2_SaIS2_EEEpLEl@Base 2.4.1
 _ZN9__gnu_cxx17__normal_iteratorIPN4CVC34ExprESt6vectorIS2_SaIS2_EEEppEv@Base 2.4.1
 _ZN9__gnu_cxxeqIPKN4CVC34ExprESt6vectorIS2_SaIS2_EEEEbRKNS_17__normal_iteratorIT_T0_EESD_@Base 2.4.1
 _ZN9__gnu_cxxeqIPN4CVC34ExprESt6vectorIS2_SaIS2_EEEEbRKNS_17__normal_iteratorIT_T0_EESC_@Base 2.4.1
 _ZN9__gnu_cxxmiIPN4CVC34ExprESt6vectorIS2_SaIS2_EEEENS_17__normal_iteratorIT_T0_E15difference_typeERKSA_SD_@Base 2.4.1
 _ZN9__gnu_cxxneIPKN4CVC34ExprESt6vectorIS2_SaIS2_EEEEbRKNS_17__normal_iteratorIT_T0_EESD_@Base 2.4.1
 _ZN9__gnu_cxxneIPN4CVC34ExprESt6vectorIS2_SaIS2_EEEEbRKNS_17__normal_iteratorIT_T0_EESC_@Base 2.4.1
 _ZNK3SAT11CNF_Formula5printEv@Base 2.4.1
 _ZNK3SAT14CD_CNF_Formula10numClausesEv@Base 2.4.1
 _ZNK3SAT14CD_CNF_Formula3endEv@Base 2.4.1
 _ZNK3SAT14CD_CNF_Formula5beginEv@Base 2.4.1
 _ZNK3SAT14CD_CNF_Formula5emptyEv@Base 2.4.1
 _ZNK3SAT14CD_CNF_Formula7numVarsEv@Base 2.4.1
 _ZNK3SAT14CD_CNF_FormulaixEi@Base 2.4.1
 _ZNK3SAT16CNF_Formula_Impl10numClausesEv@Base 2.4.1
 _ZNK3SAT16CNF_Formula_Impl3endEv@Base 2.4.1
 _ZNK3SAT16CNF_Formula_Impl5beginEv@Base 2.4.1
 _ZNK3SAT16CNF_Formula_Impl5emptyEv@Base 2.4.1
 _ZNK3SAT16CNF_Formula_Impl7numVarsEv@Base 2.4.1
 _ZNK3SAT16CNF_Formula_ImplixEi@Base 2.4.1
 _ZNK3SAT6Clause5printEv@Base 2.4.1
 _ZNK3SAT6Clause9getMaxVarEv@Base 2.4.1
 _ZNK4CVC310ExprSkolem10getMMIndexEv@Base 2.4.1
 _ZNK4CVC310ExprSkolem11computeHashEv@Base 2.4.1
 _ZNK4CVC310ExprSkolem13getBoundIndexEv@Base 2.4.1
 _ZNK4CVC310ExprSkolem14getExistentialEv@Base 2.4.1
 _ZNK4CVC310ExprSkolem4copyEPNS_11ExprManagerEm@Base 2.4.1
 _ZNK4CVC310ExprSkolem5isVarEv@Base 2.4.1
 _ZNK4CVC310ExprSkolemeqERKNS_9ExprValueE@Base 2.4.1
 _ZNK4CVC310ExprString10getMMIndexEv@Base 2.4.1
 _ZNK4CVC310ExprString11computeHashEv@Base 2.4.1
 _ZNK4CVC310ExprString4copyEPNS_11ExprManagerEm@Base 2.4.1
 _ZNK4CVC310ExprString8isStringEv@Base 2.4.1
 _ZNK4CVC310ExprString9getStringEv@Base 2.4.1
 _ZNK4CVC310ExprStringeqERKNS_9ExprValueE@Base 2.4.1
 _ZNK4CVC310ExprSymbol10getMMIndexEv@Base 2.4.1
 _ZNK4CVC310ExprSymbol11computeHashEv@Base 2.4.1
 _ZNK4CVC310ExprSymbol4copyEPNS_11ExprManagerEm@Base 2.4.1
 _ZNK4CVC310ExprSymbol7getNameEv@Base 2.4.1
 _ZNK4CVC310ExprSymbol8isSymbolEv@Base 2.4.1
 _ZNK4CVC310ExprSymboleqERKNS_9ExprValueE@Base 2.4.1
 _ZNK4CVC310Statistics8printAllERSo@Base 2.4.1
 _ZNK4CVC311Assumptions11findTheoremERKNS_4ExprE@Base 2.4.1
 _ZNK4CVC311Assumptions4findERKNS_4ExprE@Base 2.4.1
 _ZNK4CVC311Assumptions5printEv@Base 2.4.1
 _ZNK4CVC311Assumptions8toStringEv@Base 2.4.1
 _ZNK4CVC311AssumptionsixERKNS_4ExprE@Base 2.4.1
 _ZNK4CVC311BVConstExpr10getMMIndexEv@Base 2.4.1
 _ZNK4CVC311BVConstExpr11computeHashEv@Base 2.4.1
 _ZNK4CVC311BVConstExpr12getExprValueEv@Base 2.4.1
 _ZNK4CVC311BVConstExpr4copyEPNS_11ExprManagerEm@Base 2.4.1
 _ZNK4CVC311BVConstExpreqERKNS_9ExprValueE@Base 2.4.1
 _ZNK4CVC311CLException8toStringEv@Base 2.4.1
 _ZNK4CVC311ExprClosure10getMMIndexEv@Base 2.4.1
 _ZNK4CVC311ExprClosure11computeHashEv@Base 2.4.1
 _ZNK4CVC311ExprClosure11computeSizeEv@Base 2.4.1
 _ZNK4CVC311ExprClosure11getTriggersEv@Base 2.4.1
 _ZNK4CVC311ExprClosure4copyEPNS_11ExprManagerEm@Base 2.4.1
 _ZNK4CVC311ExprClosure7getBodyEv@Base 2.4.1
 _ZNK4CVC311ExprClosure7getVarsEv@Base 2.4.1
 _ZNK4CVC311ExprClosure9isClosureEv@Base 2.4.1
 _ZNK4CVC311ExprClosureeqERKNS_9ExprValueE@Base 2.4.1
 _ZNK4CVC311ExprManager12getInputLangEv@Base 2.4.1
 _ZNK4CVC311ExprManager13getOutputLangEv@Base 2.4.1
 _ZNK4CVC311ExprManager17getCurrentContextEv@Base 2.4.1
 _ZNK4CVC311ExprNodeTmp10getMMIndexEv@Base 2.4.1
 _ZNK4CVC311ExprNodeTmp11computeHashEv@Base 2.4.1
 _ZNK4CVC311ExprNodeTmp11computeSizeEv@Base 2.4.1
 _ZNK4CVC311ExprNodeTmp4copyEPNS_11ExprManagerEm@Base 2.4.1
 _ZNK4CVC311ExprNodeTmp5arityEv@Base 2.4.1
 _ZNK4CVC311ExprNodeTmp7getKidsEv@Base 2.4.1
 _ZNK4CVC311ExprNodeTmpeqERKNS_9ExprValueE@Base 2.4.1
 _ZNK4CVC311TheoryArray12getBaseArrayERKNS_4ExprE@Base 2.4.1
 _ZNK4CVC312ExprApplyTmp10getMMIndexEv@Base 2.4.1
 _ZNK4CVC312ExprApplyTmp11computeHashEv@Base 2.4.1
 _ZNK4CVC312ExprApplyTmp4copyEPNS_11ExprManagerEm@Base 2.4.1
 _ZNK4CVC312ExprApplyTmp5getOpEv@Base 2.4.1
 _ZNK4CVC312ExprApplyTmp7isApplyEv@Base 2.4.1
 _ZNK4CVC312ExprApplyTmpeqERKNS_9ExprValueE@Base 2.4.1
 _ZNK4CVC312ExprBoundVar10getMMIndexEv@Base 2.4.1
 _ZNK4CVC312ExprBoundVar11computeHashEv@Base 2.4.1
 _ZNK4CVC312ExprBoundVar4copyEPNS_11ExprManagerEm@Base 2.4.1
 _ZNK4CVC312ExprBoundVar5isVarEv@Base 2.4.1
 _ZNK4CVC312ExprBoundVar6getUidEv@Base 2.4.1
 _ZNK4CVC312ExprBoundVar7getNameEv@Base 2.4.1
 _ZNK4CVC312ExprBoundVareqERKNS_9ExprValueE@Base 2.4.1
 _ZNK4CVC312ExprRational10getMMIndexEv@Base 2.4.1
 _ZNK4CVC312ExprRational10isRationalEv@Base 2.4.1
 _ZNK4CVC312ExprRational11computeHashEv@Base 2.4.1
 _ZNK4CVC312ExprRational11getRationalEv@Base 2.4.1
 _ZNK4CVC312ExprRational4copyEPNS_11ExprManagerEm@Base 2.4.1
 _ZNK4CVC312ExprRationaleqERKNS_9ExprValueE@Base 2.4.1
 _ZNK4CVC312TheoremValue6getLHSEv@Base 2.4.1
 _ZNK4CVC312TheoremValue6getRHSEv@Base 2.4.1
 _ZNK4CVC312TheoremValue7getExprEv@Base 2.4.1
 _ZNK4CVC312TheoremValue9isRewriteEv@Base 2.4.1
 _ZNK4CVC313CompactClause8toStringEv@Base 2.4.1
 _ZNK4CVC313EvalException8toStringEv@Base 2.4.1
 _ZNK4CVC314ArithException8toStringEv@Base 2.4.1
 _ZNK4CVC314RWTheoremValue17getAssumptionsRefEv@Base 2.4.1
 _ZNK4CVC314RWTheoremValue6getLHSEv@Base 2.4.1
 _ZNK4CVC314RWTheoremValue6getRHSEv@Base 2.4.1
 _ZNK4CVC314RWTheoremValue7getExprEv@Base 2.4.1
 _ZNK4CVC314RWTheoremValue9isRewriteEv@Base 2.4.1
 _ZNK4CVC314SoundException8toStringEv@Base 2.4.1
 _ZNK4CVC314TheoryArithNew11EpsRational8toStringEv@Base 2.4.1
 _ZNK4CVC314TheoryArithNew11EpsRationalleERKS1_@Base 2.4.1
 _ZNK4CVC314TheoryArithNew13ExprBoundInfoltERKS1_@Base 2.4.1
 _ZNK4CVC314TheoryArithNew13getLowerBoundERKNS_4ExprE@Base 2.4.1
 _ZNK4CVC314TheoryArithNew13getUpperBoundERKNS_4ExprE@Base 2.4.1
 _ZNK4CVC314TheoryArithNew13unsatAsStringEv@Base 2.4.1
 _ZNK4CVC314TheoryArithNew16getLowerBoundThmERKNS_4ExprE@Base 2.4.1
 _ZNK4CVC314TheoryArithNew16getUpperBoundThmERKNS_4ExprE@Base 2.4.1
 _ZNK4CVC314TheoryArithNew16tableauxAsStringEv@Base 2.4.1
 _ZNK4CVC314TheoryArithNew7isBasicERKNS_4ExprE@Base 2.4.1
 _ZNK4CVC314TheoryArithOld20DifferenceLogicGraph11EpsRationalleERKS2_@Base 2.4.1
 _ZNK4CVC314TheoryArithOld20DifferenceLogicGraph11EpsRationalmiERKS2_@Base 2.4.1
 _ZNK4CVC314TheoryArithOld20DifferenceLogicGraph11EpsRationalmlERKNS_8RationalE@Base 2.4.1
 _ZNK4CVC315ParserException8toStringEv@Base 2.4.1
 _ZNK4CVC315RegTheoremValue17getAssumptionsRefEv@Base 2.4.1
 _ZNK4CVC315SmtlibException8toStringEv@Base 2.4.1
 _ZNK4CVC318TypecheckException8toStringEv@Base 2.4.1
 _ZNK4CVC32Op7getExprEv@Base 2.4.1
 _ZNK4CVC32Op7getKindEv@Base 2.4.1
 _ZNK4CVC32Op8toStringEv@Base 2.4.1
 _ZNK4CVC33VCL8getFlagsEv@Base 2.4.1
 _ZNK4CVC34Expr10isPropAtomEv@Base 2.4.1
 _ZNK4CVC34Expr10isRationalEv@Base 2.4.1
 _ZNK4CVC34Expr10lookupTypeEv@Base 2.4.1
 _ZNK4CVC34Expr10printnodagEv@Base 2.4.1
 _ZNK4CVC34Expr11addToNotifyEPNS_6TheoryERKS0_@Base 2.4.1
 _ZNK4CVC34Expr11getRationalEv@Base 2.4.1
 _ZNK4CVC34Expr11pprintnodagEv@Base 2.4.1
 _ZNK4CVC34Expr11setTriggersERKSt6vectorIS0_SaIS0_EE@Base 2.4.1
 _ZNK4CVC34Expr12isAbsLiteralEv@Base 2.4.1
 _ZNK4CVC34Expr12isQuantifierEv@Base 2.4.1
 _ZNK4CVC34Expr13isPropLiteralEv@Base 2.4.1
 _ZNK4CVC34Expr13substTriggersERKNS_11ExprHashMapIS0_EERS2_@Base 2.4.1
 _ZNK4CVC34Expr14recursiveSubstERKNS_11ExprHashMapIS0_EERS2_@Base 2.4.1
 _ZNK4CVC34Expr14substExprQuantERKNS_11ExprHashMapIS0_EE@Base 2.4.1
 _ZNK4CVC34Expr14substExprQuantERKSt6vectorIS0_SaIS0_EES5_@Base 2.4.1
 _ZNK4CVC34Expr14typeSizeFiniteEv@Base 2.4.1
 _ZNK4CVC34Expr15containsTermITEEv@Base 2.4.1
 _ZNK4CVC34Expr15isAtomicFormulaEv@Base 2.4.1
 _ZNK4CVC34Expr18isAbsAtomicFormulaEv@Base 2.4.1
 _ZNK4CVC34Expr19recursiveQuantSubstERKNS_11ExprHashMapIS0_EERS2_@Base 2.4.1
 _ZNK4CVC34Expr3endEv@Base 2.4.1
 _ZNK4CVC34Expr5arityEv@Base 2.4.1
 _ZNK4CVC34Expr5beginEv@Base 2.4.1
 _ZNK4CVC34Expr5getEMEv@Base 2.4.1
 _ZNK4CVC34Expr5getOpEv@Base 2.4.1
 _ZNK4CVC34Expr5printENS_13InputLanguageEb@Base 2.4.1
 _ZNK4CVC34Expr5printERNS_10ExprStreamE@Base 2.4.1
 _ZNK4CVC34Expr6eqExprERKS0_@Base 2.4.1
 _ZNK4CVC34Expr6getRepEv@Base 2.4.1
 _ZNK4CVC34Expr6getSigEv@Base 2.4.1
 _ZNK4CVC34Expr6isNullEv@Base 2.4.1
 _ZNK4CVC34Expr6isTermEv@Base 2.4.1
 _ZNK4CVC34Expr6negateEv@Base 2.4.1
 _ZNK4CVC34Expr6orExprERKS0_@Base 2.4.1
 _ZNK4CVC34Expr6pprintEv@Base 2.4.1
 _ZNK4CVC34Expr6setRepERKNS_7TheoremE@Base 2.4.1
 _ZNK4CVC34Expr6setSigERKNS_7TheoremE@Base 2.4.1
 _ZNK4CVC34Expr7andExprERKS0_@Base 2.4.1
 _ZNK4CVC34Expr7getKidsEv@Base 2.4.1
 _ZNK4CVC34Expr7getKindEv@Base 2.4.1
 _ZNK4CVC34Expr7getNameEv@Base 2.4.1
 _ZNK4CVC34Expr7getTypeEv@Base 2.4.1
 _ZNK4CVC34Expr7iffExprERKS0_@Base 2.4.1
 _ZNK4CVC34Expr7impExprERKS0_@Base 2.4.1
 _ZNK4CVC34Expr7notExprEv@Base 2.4.1
 _ZNK4CVC34Expr7setFindERKNS_7TheoremE@Base 2.4.1
 _ZNK4CVC34Expr8isAtomicEv@Base 2.4.1
 _ZNK4CVC34Expr8isStringEv@Base 2.4.1
 _ZNK4CVC34Expr8iteratordeEv@Base 2.4.1
 _ZNK4CVC34Expr8iteratoreqERKS1_@Base 2.4.1
 _ZNK4CVC34Expr8iteratorneERKS1_@Base 2.4.1
 _ZNK4CVC34Expr8printASTERNS_10ExprStreamE@Base 2.4.1
 _ZNK4CVC34Expr8toStringENS_13InputLanguageE@Base 2.4.1
 _ZNK4CVC34Expr8toStringEv@Base 2.4.1
 _ZNK4CVC34Expr9getOpExprEv@Base 2.4.1
 _ZNK4CVC34Expr9getOpKindEv@Base 2.4.1
 _ZNK4CVC34Expr9getStringEv@Base 2.4.1
 _ZNK4CVC34Expr9isRawListEv@Base 2.4.1
 _ZNK4CVC34Expr9setEqNextERKNS_7TheoremE@Base 2.4.1
 _ZNK4CVC34Expr9subExprOfERKS0_@Base 2.4.1
 _ZNK4CVC34Expr9substExprERKNS_11ExprHashMapIS0_EE@Base 2.4.1
 _ZNK4CVC34Expr9substExprERKSt6vectorIS0_SaIS0_EES5_@Base 2.4.1
 _ZNK4CVC34ExprixEi@Base 2.4.1
 _ZNK4CVC34Type15enumerateFiniteENS_8UnsignedE@Base 2.4.1
 _ZNK4CVC34TypeixEi@Base 2.4.1
 _ZNK4CVC35CDMapINS_4ExprENS_8RationalEN4Hash4hashIS1_EEE8iteratordeEv@Base 2.4.1
 _ZNK4CVC36CDListINS_4ExprEE3endEv@Base 2.4.1
 _ZNK4CVC36CDListINS_7TheoremEE3endEv@Base 2.4.1
 _ZNK4CVC36CLFlag7getBoolEv@Base 2.4.1
 _ZNK4CVC36Clause11markDeletedEv@Base 2.4.1
 _ZNK4CVC36Clause8toStringEv@Base 2.4.1
 _ZNK4CVC36Parser13printLocationERSo@Base 2.4.1
 _ZNK4CVC36Parser4doneEv@Base 2.4.1
 _ZNK4CVC37CLFlags7getFlagERKSs@Base 2.4.1
 _ZNK4CVC37CLFlagsixERKSs@Base 2.4.1
 _ZNK4CVC37Context11bottomScopeEv@Base 2.4.1
 _ZNK4CVC37ExprVar10getMMIndexEv@Base 2.4.1
 _ZNK4CVC37ExprVar11computeHashEv@Base 2.4.1
 _ZNK4CVC37ExprVar4copyEPNS_11ExprManagerEm@Base 2.4.1
 _ZNK4CVC37ExprVar5isVarEv@Base 2.4.1
 _ZNK4CVC37ExprVar7getNameEv@Base 2.4.1
 _ZNK4CVC37ExprVareqERKNS_9ExprValueE@Base 2.4.1
 _ZNK4CVC37Literal7getExprEv@Base 2.4.1
 _ZNK4CVC37Literal8getValueEv@Base 2.4.1
 _ZNK4CVC37Literal8toStringEv@Base 2.4.1
 _ZNK4CVC37Theorem10getLitFlagEv@Base 2.4.1
 _ZNK4CVC37Theorem10setLitFlagEb@Base 2.4.1
 _ZNK4CVC37Theorem11printxnodagEv@Base 2.4.1
 _ZNK4CVC37Theorem12isAbsLiteralEv@Base 2.4.1
 _ZNK4CVC37Theorem12pprintxnodagEv@Base 2.4.1
 _ZNK4CVC37Theorem13clearAllFlagsEv@Base 2.4.1
 _ZNK4CVC37Theorem13getExpandFlagEv@Base 2.4.1
 _ZNK4CVC37Theorem13getQuantLevelEv@Base 2.4.1
 _ZNK4CVC37Theorem13setExpandFlagEb@Base 2.4.1
 _ZNK4CVC37Theorem14getCachedValueEv@Base 2.4.1
 _ZNK4CVC37Theorem14recursivePrintERi@Base 2.4.1
 _ZNK4CVC37Theorem14setCachedValueEi@Base 2.4.1
 _ZNK4CVC37Theorem15withAssumptionsEv@Base 2.4.1
 _ZNK4CVC37Theorem17GetSatAssumptionsERSt6vectorIS0_SaIS0_EE@Base 2.4.1
 _ZNK4CVC37Theorem17getAssumptionsRecERSt3setINS_4ExprESt4lessIS2_ESaIS2_EE@Base 2.4.1
 _ZNK4CVC37Theorem17getAssumptionsRefEv@Base 2.4.1
 _ZNK4CVC37Theorem18getLeafAssumptionsERSt6vectorINS_4ExprESaIS2_EEb@Base 2.4.1
 _ZNK4CVC37Theorem18getQuantLevelDebugEv@Base 2.4.1
 _ZNK4CVC37Theorem20GetSatAssumptionsRecERSt6vectorIS0_SaIS0_EE@Base 2.4.1
 _ZNK4CVC37Theorem21getAssumptionsAndCongERSt6vectorINS_4ExprESaIS2_EES5_b@Base 2.4.1
 _ZNK4CVC37Theorem24getAssumptionsAndCongRecERSt3setINS_4ExprESt4lessIS2_ESaIS2_EERSt6vectorIS2_S5_E@Base 2.4.1
 _ZNK4CVC37Theorem4hashEv@Base 2.4.1
 _ZNK4CVC37Theorem5printERSoRKSs@Base 2.4.1
 _ZNK4CVC37Theorem5printEv@Base 2.4.1
 _ZNK4CVC37Theorem6getLHSEv@Base 2.4.1
 _ZNK4CVC37Theorem6getRHSEv@Base 2.4.1
 _ZNK4CVC37Theorem6printxEv@Base 2.4.1
 _ZNK4CVC37Theorem7getExprEv@Base 2.4.1
 _ZNK4CVC37Theorem7isSubstEv@Base 2.4.1
 _ZNK4CVC37Theorem7pprintxEv@Base 2.4.1
 _ZNK4CVC37Theorem7refutesERKNS_4ExprE@Base 2.4.1
 _ZNK4CVC37Theorem7setFlagEv@Base 2.4.1
 _ZNK4CVC37Theorem8getProofEv@Base 2.4.1
 _ZNK4CVC37Theorem8getScopeEv@Base 2.4.1
 _ZNK4CVC37Theorem8isAssumpEv@Base 2.4.1
 _ZNK4CVC37Theorem8setSubstEv@Base 2.4.1
 _ZNK4CVC37Theorem8toStringEv@Base 2.4.1
 _ZNK4CVC37Theorem9isFlaggedEv@Base 2.4.1
 _ZNK4CVC37Theorem9isRewriteEv@Base 2.4.1
 _ZNK4CVC37Theorem9withProofEv@Base 2.4.1
 _ZNK4CVC38ExprNode10getMMIndexEv@Base 2.4.1
 _ZNK4CVC38ExprNode11computeHashEv@Base 2.4.1
 _ZNK4CVC38ExprNode11computeSizeEv@Base 2.4.1
 _ZNK4CVC38ExprNode4copyEPNS_11ExprManagerEm@Base 2.4.1
 _ZNK4CVC38ExprNode5arityEv@Base 2.4.1
 _ZNK4CVC38ExprNode6getRepEv@Base 2.4.1
 _ZNK4CVC38ExprNode6getSigEv@Base 2.4.1
 _ZNK4CVC38ExprNode7getKidsEv@Base 2.4.1
 _ZNK4CVC38ExprNodeeqERKNS_9ExprValueE@Base 2.4.1
 _ZNK4CVC38Rational11getUnsignedEv@Base 2.4.1
 _ZNK4CVC38Rational12getNumeratorEv@Base 2.4.1
 _ZNK4CVC38Rational13getUnsignedMPEv@Base 2.4.1
 _ZNK4CVC38Rational14getDenominatorEv@Base 2.4.1
 _ZNK4CVC38Rational4Impl13getUnsignedMPEv@Base 2.4.1
 _ZNK4CVC38Rational4Impl4ceilEv@Base 2.4.1
 _ZNK4CVC38Rational4Impl5floorEv@Base 2.4.1
 _ZNK4CVC38Rational4Impl9isIntegerEv@Base 2.4.1
 _ZNK4CVC38Rational4ImplngEv@Base 2.4.1
 _ZNK4CVC38Rational4hashEv@Base 2.4.1
 _ZNK4CVC38Rational5printEv@Base 2.4.1
 _ZNK4CVC38Rational6getIntEv@Base 2.4.1
 _ZNK4CVC38Rational8toStringEi@Base 2.4.1
 _ZNK4CVC38Rational9isIntegerEv@Base 2.4.1
 _ZNK4CVC38RationalngEv@Base 2.4.1
 _ZNK4CVC38Unsigned11getUnsignedEv@Base 2.4.1
 _ZNK4CVC38Unsigned4ImplngEv@Base 2.4.1
 _ZNK4CVC38Unsigned4hashEv@Base 2.4.1
 _ZNK4CVC38Unsigned5printEv@Base 2.4.1
 _ZNK4CVC38Unsigned8toStringEi@Base 2.4.1
 _ZNK4CVC38Variable10getNegExprEv@Base 2.4.1
 _ZNK4CVC38Variable10getTheoremEv@Base 2.4.1
 _ZNK4CVC38Variable12deriveThmRecEb@Base 2.4.1
 _ZNK4CVC38Variable12getAssumpThmEv@Base 2.4.1
 _ZNK4CVC38Variable13deriveTheoremEv@Base 2.4.1
 _ZNK4CVC38Variable13getAntecedentEv@Base 2.4.1
 _ZNK4CVC38Variable16getAntecedentIdxEv@Base 2.4.1
 _ZNK4CVC38Variable7getExprEv@Base 2.4.1
 _ZNK4CVC38Variable8getScopeEv@Base 2.4.1
 _ZNK4CVC38Variable8getValueEv@Base 2.4.1
 _ZNK4CVC38Variable8toStringEv@Base 2.4.1
 _ZNK4CVC39Exception8toStringEv@Base 2.4.1
 _ZNK4CVC39ExprApply10getMMIndexEv@Base 2.4.1
 _ZNK4CVC39ExprApply11computeHashEv@Base 2.4.1
 _ZNK4CVC39ExprApply4copyEPNS_11ExprManagerEm@Base 2.4.1
 _ZNK4CVC39ExprApply5getOpEv@Base 2.4.1
 _ZNK4CVC39ExprApply7isApplyEv@Base 2.4.1
 _ZNK4CVC39ExprApplyeqERKNS_9ExprValueE@Base 2.4.1
 _ZNK4CVC39ExprValue10getMMIndexEv@Base 2.4.1
 _ZNK4CVC39ExprValue10getTheoremEv@Base 2.4.1
 _ZNK4CVC39ExprValue10isRationalEv@Base 2.4.1
 _ZNK4CVC39ExprValue11computeHashEv@Base 2.4.1
 _ZNK4CVC39ExprValue11computeSizeEv@Base 2.4.1
 _ZNK4CVC39ExprValue11getRationalEv@Base 2.4.1
 _ZNK4CVC39ExprValue11getTriggersEv@Base 2.4.1
 _ZNK4CVC39ExprValue12getExprValueEv@Base 2.4.1
 _ZNK4CVC39ExprValue13getBoundIndexEv@Base 2.4.1
 _ZNK4CVC39ExprValue13getTupleIndexEv@Base 2.4.1
 _ZNK4CVC39ExprValue14getExistentialEv@Base 2.4.1
 _ZNK4CVC39ExprValue4copyEPNS_11ExprManagerEm@Base 2.4.1
 _ZNK4CVC39ExprValue5arityEv@Base 2.4.1
 _ZNK4CVC39ExprValue5getOpEv@Base 2.4.1
 _ZNK4CVC39ExprValue5isVarEv@Base 2.4.1
 _ZNK4CVC39ExprValue6getRepEv@Base 2.4.1
 _ZNK4CVC39ExprValue6getSigEv@Base 2.4.1
 _ZNK4CVC39ExprValue6getUidEv@Base 2.4.1
 _ZNK4CVC39ExprValue6getVarEv@Base 2.4.1
 _ZNK4CVC39ExprValue7getBodyEv@Base 2.4.1
 _ZNK4CVC39ExprValue7getKidsEv@Base 2.4.1
 _ZNK4CVC39ExprValue7getNameEv@Base 2.4.1
 _ZNK4CVC39ExprValue7getVarsEv@Base 2.4.1
 _ZNK4CVC39ExprValue7isApplyEv@Base 2.4.1
 _ZNK4CVC39ExprValue8getFieldEv@Base 2.4.1
 _ZNK4CVC39ExprValue8isStringEv@Base 2.4.1
 _ZNK4CVC39ExprValue8isSymbolEv@Base 2.4.1
 _ZNK4CVC39ExprValue9getFieldsEv@Base 2.4.1
 _ZNK4CVC39ExprValue9getStringEv@Base 2.4.1
 _ZNK4CVC39ExprValue9isClosureEv@Base 2.4.1
 _ZNK4CVC39ExprValue9isTheoremEv@Base 2.4.1
 _ZNK4CVC39ExprValueeqERKS0_@Base 2.4.1
 _ZNK4Hash10hash_tableIN4CVC34ExprESt4pairIKS2_PNS1_6CDOmapIS2_NS1_7LiteralENS_4hashIS2_EEEEES8_St8equal_toIS2_ENS_10_Select1stISB_EEE14getBucketIndexERS4_@Base 2.4.1
 _ZNK4Hash10hash_tableIN4CVC34ExprESt4pairIKS2_PNS1_6CDOmapIS2_NS1_8RationalENS_4hashIS2_EEEEES8_St8equal_toIS2_ENS_10_Select1stISB_EEE4findERS4_@Base 2.4.1
 _ZNK4Hash10hash_tableIN4CVC34ExprESt4pairIKS2_PNS1_6CDOmapIS2_NS1_8SmartCDOINS1_8UnsignedEEENS_4hashIS2_EEEEESA_St8equal_toIS2_ENS_10_Select1stISD_EEE4findERS4_@Base 2.4.1
 _ZNK4Hash10hash_tableIN4CVC34ExprESt4pairIKS2_PNS1_6CDOmapIS2_S2_NS_4hashIS2_EEEEES7_St8equal_toIS2_ENS_10_Select1stISA_EEE4findERS4_@Base 2.4.1
 _ZNK4Hash10hash_tableIN4CVC34ExprESt4pairIKS2_PNS1_6CDOmapIS2_bNS_4hashIS2_EEEEES7_St8equal_toIS2_ENS_10_Select1stISA_EEE4findERS4_@Base 2.4.1
 _ZNK7MiniSat6Clause5toLitERSt6vectorINS_3LitESaIS2_EE@Base 2.4.1
 _ZNK7MiniSat6Solver10checkTrailEv@Base 2.4.1
 _ZNK7MiniSat6Solver10printStateEv@Base 2.4.1
 _ZNK7MiniSat6Solver11checkClauseERKNS_6ClauseE@Base 2.4.1
 _ZNK7MiniSat6Solver11isImpliedAtENS_3LitEi@Base 2.4.1
 _ZNK7MiniSat6Solver11orderClauseERSt6vectorINS_3LitESaIS2_EE@Base 2.4.1
 _ZNK7MiniSat6Solver11printDIMACSEv@Base 2.4.1
 _ZNK7MiniSat6Solver12checkClausesEv@Base 2.4.1
 _ZNK7MiniSat6Solver12checkWatchedERKNS_6ClauseE@Base 2.4.1
 _ZNK7MiniSat6Solver12checkWatchedEv@Base 2.4.1
 _ZNK7MiniSat6Solver13isConflictingEv@Base 2.4.1
 _ZNK7MiniSat6Solver14simplifyClauseERSt6vectorINS_3LitESaIS2_EEi@Base 2.4.1
 _ZNK7MiniSat6Solver15isPermSatisfiedEPNS_6ClauseE@Base 2.4.1
 _ZNK7MiniSat6Solver16getConflictLevelERKNS_6ClauseE@Base 2.4.1
 _ZNK7MiniSat6Solver19getImplicationLevelERKNS_6ClauseE@Base 2.4.1
 _ZNK7MiniSat6Solver19protocolPropagationEv@Base 2.4.1
 _ZNK7MiniSat6Solver8toStringENS_3LitEb@Base 2.4.1
 _ZNK7MiniSat6Solver8toStringERKNS_6ClauseEb@Base 2.4.1
 _ZNK7MiniSat6Solver8toStringERKSt6vectorINS_3LitESaIS2_EEb@Base 2.4.1
 _ZNK7MiniSat9Inference8toStringEv@Base 2.4.1
 _ZNK9__gnu_cxx13new_allocatorIN4CVC34ExprEE8max_sizeEv@Base 2.4.1
 _ZNK9__gnu_cxx17__normal_iteratorIPKN4CVC34ExprESt6vectorIS2_SaIS2_EEE4baseEv@Base 2.4.1
 _ZNK9__gnu_cxx17__normal_iteratorIPKN4CVC34ExprESt6vectorIS2_SaIS2_EEEdeEv@Base 2.4.1
 _ZNK9__gnu_cxx17__normal_iteratorIPN4CVC34ExprESt6vectorIS2_SaIS2_EEE4baseEv@Base 2.4.1
 _ZNK9__gnu_cxx17__normal_iteratorIPN4CVC34ExprESt6vectorIS2_SaIS2_EEEdeEv@Base 2.4.1
 _ZNKSt10_Select1stISt4pairIKSsN4CVC36CLFlagEEEclERKS4_@Base 2.4.1
 _ZNKSt12_Vector_baseIN4CVC34ExprESaIS1_EE19_M_get_Tp_allocatorEv@Base 2.4.1
 _ZNKSt13_Rb_tree_nodeISt4pairIKSsN4CVC36CLFlagEEE9_M_valptrEv@Base 2.4.1
 _ZNKSt15_Deque_iteratorIN4CVC34ExprERS1_PS1_EplEl@Base 2.4.1
 _ZNKSt15_Deque_iteratorIN4CVC37dynTrigERS1_PS1_EplEl@Base 2.4.1
 _ZNKSt15_Deque_iteratorIN4CVC38SmartCDOINS0_7TheoremEEERS3_PS3_EplEl@Base 2.4.1
 _ZNKSt16reverse_iteratorIN9__gnu_cxx17__normal_iteratorIPN4CVC34ExprESt6vectorIS3_SaIS3_EEEEE4baseEv@Base 2.4.1
 _ZNKSt16reverse_iteratorIN9__gnu_cxx17__normal_iteratorIPN4CVC34ExprESt6vectorIS3_SaIS3_EEEEEdeEv@Base 2.4.1
 _ZNKSt17_Rb_tree_iteratorISt4pairIKSsN4CVC36CLFlagEEEdeEv@Base 2.4.1
 _ZNKSt17_Rb_tree_iteratorISt4pairIKSsN4CVC36CLFlagEEEeqERKS5_@Base 2.4.1
 _ZNKSt23_Rb_tree_const_iteratorISt4pairIKSsN4CVC36CLFlagEEEdeEv@Base 2.4.1
 _ZNKSt23_Rb_tree_const_iteratorISt4pairIKSsN4CVC36CLFlagEEEeqERKS5_@Base 2.4.1
 _ZNKSt3mapISsN4CVC36CLFlagESt4lessISsESaISt4pairIKSsS1_EEE4findERS5_@Base 2.4.1
 _ZNKSt4lessISsEclERKSsS2_@Base 2.4.1
 _ZNKSt5ctypeIcE8do_widenEc@Base 2.4.1
 _ZNKSt6vectorIN4CVC34ExprESaIS1_EE12_M_check_lenEmPKc@Base 2.4.1
 _ZNKSt6vectorIN4CVC34ExprESaIS1_EE3endEv@Base 2.4.1
 _ZNKSt6vectorIN4CVC34ExprESaIS1_EE4sizeEv@Base 2.4.1
 _ZNKSt6vectorIN4CVC34ExprESaIS1_EE5beginEv@Base 2.4.1
 _ZNKSt6vectorIN4CVC34ExprESaIS1_EE8max_sizeEv@Base 2.4.1
 _ZNKSt6vectorIN4CVC34ExprESaIS1_EEixEm@Base 2.4.1
 _ZNKSt8_Rb_treeIN4CVC34ExprES1_St9_IdentityIS1_ESt4lessIS1_ESaIS1_EE4findERKS1_@Base 2.4.1
 _ZNKSt8_Rb_treeIN4CVC34ExprESt4pairIKS1_NS0_8PolarityEESt10_Select1stIS5_ESt4lessIS1_ESaIS5_EE4findERS3_@Base 2.4.1
 _ZNKSt8_Rb_treeIN4CVC34ExprESt4pairIKS1_NS0_8RationalEESt10_Select1stIS5_ESt4lessIS1_ESaIS5_EE4findERS3_@Base 2.4.1
 _ZNKSt8_Rb_treeIN4CVC34ExprESt4pairIKS1_PNS0_6CDListINS0_12TheoryArith34IneqEEEESt10_Select1stIS9_ESt4lessIS1_ESaIS9_EE4findERS3_@Base 2.4.1
 _ZNKSt8_Rb_treeIN4CVC34ExprESt4pairIKS1_PNS0_6CDListINS0_14TheoryArithNew4IneqEEEESt10_Select1stIS9_ESt4lessIS1_ESaIS9_EE4findERS3_@Base 2.4.1
 _ZNKSt8_Rb_treeIN4CVC34ExprESt4pairIKS1_PNS0_6CDListINS0_14TheoryArithOld4IneqEEEESt10_Select1stIS9_ESt4lessIS1_ESaIS9_EE4findERS3_@Base 2.4.1
 _ZNKSt8_Rb_treeIN4CVC34ExprESt4pairIKS1_PNS0_6CDListIS1_EEESt10_Select1stIS7_ESt4lessIS1_ESaIS7_EE4findERS3_@Base 2.4.1
 _ZNKSt8_Rb_treeIN4CVC34ExprESt4pairIKS1_S1_ESt10_Select1stIS4_ESt4lessIS1_ESaIS4_EE4findERS3_@Base 2.4.1
 _ZNKSt8_Rb_treeIN4CVC34ExprESt4pairIKS1_St6vectorINS0_7TriggerESaIS5_EEESt10_Select1stIS8_ESt4lessIS1_ESaIS8_EE4findERS3_@Base 2.4.1
 _ZNKSt8_Rb_treeIN4CVC34ExprESt4pairIKS1_St6vectorIS1_SaIS1_EEESt10_Select1stIS7_ESt4lessIS1_ESaIS7_EE4findERS3_@Base 2.4.1
 _ZNKSt8_Rb_treeIN4CVC34ExprESt4pairIKS1_bESt10_Select1stIS4_ESt4lessIS1_ESaIS4_EE4findERS3_@Base 2.4.1
 _ZNKSt8_Rb_treeIN4CVC34TypeESt4pairIKS1_PNS0_6CDListImEEESt10_Select1stIS7_ENS0_11TheoryQuant8TypeCompESaIS7_EE4findERS3_@Base 2.4.1
 _ZNKSt8_Rb_treeIN4CVC34TypeESt4pairIKS1_St6vectorImSaImEEESt10_Select1stIS7_ENS0_11TheoryQuant8TypeCompESaIS7_EE4findERS3_@Base 2.4.1
 _ZNKSt8_Rb_treeIN4CVC37TheoremESt4pairIKS1_bESt10_Select1stIS4_ENS0_11TheoremLessESaIS4_EE4findERS3_@Base 2.4.1
 _ZNKSt8_Rb_treeISsSt4pairIKSsN4CVC36CLFlagEESt10_Select1stIS4_ESt4lessISsESaIS4_EE14_M_lower_boundEPKSt13_Rb_tree_nodeIS4_ESE_RS1_@Base 2.4.1
 _ZNKSt8_Rb_treeISsSt4pairIKSsN4CVC36CLFlagEESt10_Select1stIS4_ESt4lessISsESaIS4_EE3endEv@Base 2.4.1
 _ZNKSt8_Rb_treeISsSt4pairIKSsN4CVC36CLFlagEESt10_Select1stIS4_ESt4lessISsESaIS4_EE4findERS1_@Base 2.4.1
 _ZNKSt8_Rb_treeISsSt4pairIKSsN4CVC36CLFlagEESt10_Select1stIS4_ESt4lessISsESaIS4_EE6_M_endEv@Base 2.4.1
 _ZNKSt8_Rb_treeISsSt4pairIKSsN4CVC36CLFlagEESt10_Select1stIS4_ESt4lessISsESaIS4_EE8_M_beginEv@Base 2.4.1
 _ZNSaIN4CVC34ExprEEC1ERKS1_@Base 2.4.1
 _ZNSaIN4CVC34ExprEEC1Ev@Base 2.4.1
 _ZNSaIN4CVC34ExprEEC2ERKS1_@Base 2.4.1
 _ZNSaIN4CVC34ExprEEC2Ev@Base 2.4.1
 _ZNSaIN4CVC34ExprEED1Ev@Base 2.4.1
 _ZNSaIN4CVC34ExprEED2Ev@Base 2.4.1
 _ZNSs12_S_constructIPcEES0_T_S1_RKSaIcESt20forward_iterator_tag@Base 2.4.1
 _ZNSt10_Iter_baseIN9__gnu_cxx17__normal_iteratorIPN4CVC34ExprESt6vectorIS3_SaIS3_EEEELb0EE7_S_baseES8_@Base 2.4.1
 _ZNSt10_Iter_baseIN9__gnu_cxx17__normal_iteratorIPN4CVC34ExprESt6vectorIS3_SaIS3_EEEELb1EE7_S_baseES8_@Base 2.4.1
 _ZNSt10_Iter_baseIPN4CVC34ExprELb0EE7_S_baseES2_@Base 2.4.1
 _ZNSt10_Iter_baseISt16reverse_iteratorIN9__gnu_cxx17__normal_iteratorIPN4CVC34ExprESt6vectorIS4_SaIS4_EEEEELb0EE7_S_baseESA_@Base 2.4.1
 _ZNSt11_Deque_baseIN3SAT3VarESaIS1_EED1Ev@Base 2.4.1
 _ZNSt11_Deque_baseIN3SAT3VarESaIS1_EED2Ev@Base 2.4.1
 _ZNSt11_Deque_baseIN3SAT6ClauseESaIS1_EE17_M_initialize_mapEm@Base 2.4.1
 _ZNSt11_Deque_baseIN3SAT6ClauseESaIS1_EED1Ev@Base 2.4.1
 _ZNSt11_Deque_baseIN3SAT6ClauseESaIS1_EED2Ev@Base 2.4.1
 _ZNSt11_Deque_baseIN4CVC311ClauseOwnerESaIS1_EE17_M_initialize_mapEm@Base 2.4.1
 _ZNSt11_Deque_baseIN4CVC311ClauseOwnerESaIS1_EED1Ev@Base 2.4.1
 _ZNSt11_Deque_baseIN4CVC311ClauseOwnerESaIS1_EED2Ev@Base 2.4.1
 _ZNSt11_Deque_baseIN4CVC312TheoryArith34IneqESaIS2_EED1Ev@Base 2.4.1
 _ZNSt11_Deque_baseIN4CVC312TheoryArith34IneqESaIS2_EED2Ev@Base 2.4.1
 _ZNSt11_Deque_baseIN4CVC314SearchImplBase8SplitterESaIS2_EED1Ev@Base 2.4.1
 _ZNSt11_Deque_baseIN4CVC314SearchImplBase8SplitterESaIS2_EED2Ev@Base 2.4.1
 _ZNSt11_Deque_baseIN4CVC314TheoryArithNew4IneqESaIS2_EED1Ev@Base 2.4.1
 _ZNSt11_Deque_baseIN4CVC314TheoryArithNew4IneqESaIS2_EED2Ev@Base 2.4.1
 _ZNSt11_Deque_baseIN4CVC314TheoryArithOld4IneqESaIS2_EED1Ev@Base 2.4.1
 _ZNSt11_Deque_baseIN4CVC314TheoryArithOld4IneqESaIS2_EED2Ev@Base 2.4.1
 _ZNSt11_Deque_baseIN4CVC34ExprESaIS1_EE17_M_initialize_mapEm@Base 2.4.1
 _ZNSt11_Deque_baseIN4CVC34ExprESaIS1_EED1Ev@Base 2.4.1
 _ZNSt11_Deque_baseIN4CVC34ExprESaIS1_EED2Ev@Base 2.4.1
 _ZNSt11_Deque_baseIN4CVC37LiteralESaIS1_EED1Ev@Base 2.4.1
 _ZNSt11_Deque_baseIN4CVC37LiteralESaIS1_EED2Ev@Base 2.4.1
 _ZNSt11_Deque_baseIN4CVC37TheoremESaIS1_EE17_M_initialize_mapEm@Base 2.4.1
 _ZNSt11_Deque_baseIN4CVC37TheoremESaIS1_EED1Ev@Base 2.4.1
 _ZNSt11_Deque_baseIN4CVC37TheoremESaIS1_EED2Ev@Base 2.4.1
 _ZNSt11_Deque_baseIN4CVC37TriggerESaIS1_EED1Ev@Base 2.4.1
 _ZNSt11_Deque_baseIN4CVC37TriggerESaIS1_EED2Ev@Base 2.4.1
 _ZNSt11_Deque_baseIN4CVC37dynTrigESaIS1_EE17_M_initialize_mapEm@Base 2.4.1
 _ZNSt11_Deque_baseIN4CVC37dynTrigESaIS1_EED1Ev@Base 2.4.1
 _ZNSt11_Deque_baseIN4CVC37dynTrigESaIS1_EED2Ev@Base 2.4.1
 _ZNSt11_Deque_baseIN4CVC38SmartCDOINS0_7TheoremEEESaIS3_EED1Ev@Base 2.4.1
 _ZNSt11_Deque_baseIN4CVC38SmartCDOINS0_7TheoremEEESaIS3_EED2Ev@Base 2.4.1
 _ZNSt11_Deque_baseIPN4CVC39ExprValueESaIS2_EED1Ev@Base 2.4.1
 _ZNSt11_Deque_baseIPN4CVC39ExprValueESaIS2_EED2Ev@Base 2.4.1
 _ZNSt11_Deque_baseIPN7MiniSat6ClauseESaIS2_EE17_M_initialize_mapEm@Base 2.4.1
 _ZNSt11_Deque_baseIPN7MiniSat6ClauseESaIS2_EED1Ev@Base 2.4.1
 _ZNSt11_Deque_baseIPN7MiniSat6ClauseESaIS2_EED2Ev@Base 2.4.1
 _ZNSt11_Deque_baseIPN7MiniSat6SolverESaIS2_EE17_M_initialize_mapEm@Base 2.4.1
 _ZNSt11_Deque_baseIPN7MiniSat6SolverESaIS2_EED1Ev@Base 2.4.1
 _ZNSt11_Deque_baseIPN7MiniSat6SolverESaIS2_EED2Ev@Base 2.4.1
 _ZNSt11_Deque_baseISt4pairIiPN7MiniSat6ClauseEESaIS4_EE17_M_initialize_mapEm@Base 2.4.1
 _ZNSt11_Deque_baseISt4pairIiPN7MiniSat6ClauseEESaIS4_EED1Ev@Base 2.4.1
 _ZNSt11_Deque_baseISt4pairIiPN7MiniSat6ClauseEESaIS4_EED2Ev@Base 2.4.1
 _ZNSt11_Deque_baseIbSaIbEED1Ev@Base 2.4.1
 _ZNSt11_Deque_baseIbSaIbEED2Ev@Base 2.4.1
 _ZNSt11_Deque_baseImSaImEED1Ev@Base 2.4.1
 _ZNSt11_Deque_baseImSaImEED2Ev@Base 2.4.1
 _ZNSt11__copy_moveILb0ELb0ESt26random_access_iterator_tagE8__copy_mIPN4CVC34ExprES5_EET0_T_S7_S6_@Base 2.4.1
 _ZNSt11__copy_moveILb0ELb0ESt26random_access_iterator_tagE8__copy_mIPN4CVC37LiteralES5_EET0_T_S7_S6_@Base 2.4.1
 _ZNSt11__copy_moveILb0ELb0ESt26random_access_iterator_tagE8__copy_mISt16reverse_iteratorIN9__gnu_cxx17__normal_iteratorIPN4CVC34ExprESt6vectorIS7_SaIS7_EEEEES8_EET0_T_SF_SE_@Base 2.4.1
 _ZNSt11char_traitsIcE6lengthEPKc@Base 2.4.1
 _ZNSt12_Destroy_auxILb0EE9__destroyIPN4CVC34ExprEEEvT_S5_@Base 2.4.1
 _ZNSt12_Destroy_auxILb0EE9__destroyIPSsEEvT_S3_@Base 2.4.1
 _ZNSt12_Destroy_auxILb0EE9__destroyIPSt4pairISsbEEEvT_S5_@Base 2.4.1
 _ZNSt12_Vector_baseIN4CVC34ExprESaIS1_EE11_M_allocateEm@Base 2.4.1
 _ZNSt12_Vector_baseIN4CVC34ExprESaIS1_EE12_Vector_implC1ERKS2_@Base 2.4.1
 _ZNSt12_Vector_baseIN4CVC34ExprESaIS1_EE12_Vector_implC1Ev@Base 2.4.1
 _ZNSt12_Vector_baseIN4CVC34ExprESaIS1_EE12_Vector_implC2ERKS2_@Base 2.4.1
 _ZNSt12_Vector_baseIN4CVC34ExprESaIS1_EE12_Vector_implC2Ev@Base 2.4.1
 _ZNSt12_Vector_baseIN4CVC34ExprESaIS1_EE12_Vector_implD1Ev@Base 2.4.1
 _ZNSt12_Vector_baseIN4CVC34ExprESaIS1_EE12_Vector_implD2Ev@Base 2.4.1
 _ZNSt12_Vector_baseIN4CVC34ExprESaIS1_EE13_M_deallocateEPS1_m@Base 2.4.1
 _ZNSt12_Vector_baseIN4CVC34ExprESaIS1_EE17_M_create_storageEm@Base 2.4.1
 _ZNSt12_Vector_baseIN4CVC34ExprESaIS1_EE19_M_get_Tp_allocatorEv@Base 2.4.1
 _ZNSt12_Vector_baseIN4CVC34ExprESaIS1_EEC1ERKS2_@Base 2.4.1
 _ZNSt12_Vector_baseIN4CVC34ExprESaIS1_EEC1EmRKS2_@Base 2.4.1
 _ZNSt12_Vector_baseIN4CVC34ExprESaIS1_EEC1Ev@Base 2.4.1
 _ZNSt12_Vector_baseIN4CVC34ExprESaIS1_EEC2ERKS2_@Base 2.4.1
 _ZNSt12_Vector_baseIN4CVC34ExprESaIS1_EEC2EmRKS2_@Base 2.4.1
 _ZNSt12_Vector_baseIN4CVC34ExprESaIS1_EEC2Ev@Base 2.4.1
 _ZNSt12_Vector_baseIN4CVC34ExprESaIS1_EED1Ev@Base 2.4.1
 _ZNSt12_Vector_baseIN4CVC34ExprESaIS1_EED2Ev@Base 2.4.1
 _ZNSt13_Rb_tree_nodeISt4pairIKSsN4CVC36CLFlagEEE9_M_valptrEv@Base 2.4.1
 _ZNSt15basic_stringbufIcSt11char_traitsIcESaIcEED0Ev@Base 2.4.1
 _ZNSt15basic_stringbufIcSt11char_traitsIcESaIcEED1Ev@Base 2.4.1
 _ZNSt15basic_stringbufIcSt11char_traitsIcESaIcEED2Ev@Base 2.4.1
 _ZNSt16reverse_iteratorIN9__gnu_cxx17__normal_iteratorIPN4CVC34ExprESt6vectorIS3_SaIS3_EEEEEC1ERKS9_@Base 2.4.1
 _ZNSt16reverse_iteratorIN9__gnu_cxx17__normal_iteratorIPN4CVC34ExprESt6vectorIS3_SaIS3_EEEEEC1ES8_@Base 2.4.1
 _ZNSt16reverse_iteratorIN9__gnu_cxx17__normal_iteratorIPN4CVC34ExprESt6vectorIS3_SaIS3_EEEEEC2ERKS9_@Base 2.4.1
 _ZNSt16reverse_iteratorIN9__gnu_cxx17__normal_iteratorIPN4CVC34ExprESt6vectorIS3_SaIS3_EEEEEC2ES8_@Base 2.4.1
 _ZNSt16reverse_iteratorIN9__gnu_cxx17__normal_iteratorIPN4CVC34ExprESt6vectorIS3_SaIS3_EEEEEpLEl@Base 2.4.1
 _ZNSt16reverse_iteratorIN9__gnu_cxx17__normal_iteratorIPN4CVC34ExprESt6vectorIS3_SaIS3_EEEEEppEv@Base 2.4.1
 _ZNSt17_Rb_tree_iteratorISt4pairIKSsN4CVC36CLFlagEEEC1EPSt13_Rb_tree_nodeIS4_E@Base 2.4.1
 _ZNSt17_Rb_tree_iteratorISt4pairIKSsN4CVC36CLFlagEEEC2EPSt13_Rb_tree_nodeIS4_E@Base 2.4.1
 _ZNSt20__copy_move_backwardILb0ELb0ESt26random_access_iterator_tagE13__copy_move_bIPN4CVC34ExprES5_EET0_T_S7_S6_@Base 2.4.1
 _ZNSt20__copy_move_backwardILb0ELb0ESt26random_access_iterator_tagE13__copy_move_bIPN4CVC37LiteralES5_EET0_T_S7_S6_@Base 2.4.1
 _ZNSt20__uninitialized_copyILb0EE13__uninit_copyIN9__gnu_cxx17__normal_iteratorIPKN4CVC34ExprESt6vectorIS5_SaIS5_EEEEPS5_EET0_T_SE_SD_@Base 2.4.1
 _ZNSt20__uninitialized_copyILb0EE13__uninit_copyIN9__gnu_cxx17__normal_iteratorIPKSt6vectorIN4CVC34ExprESaIS6_EES4_IS8_SaIS8_EEEEPS8_EET0_T_SG_SF_@Base 2.4.1
 _ZNSt20__uninitialized_copyILb0EE13__uninit_copyIN9__gnu_cxx17__normal_iteratorIPN4CVC34ExprESt6vectorIS5_SaIS5_EEEES6_EET0_T_SC_SB_@Base 2.4.1
 _ZNSt20__uninitialized_copyILb0EE13__uninit_copyIPN3SAT11CNF_Manager7VarinfoES5_EET0_T_S7_S6_@Base 2.4.1
 _ZNSt20__uninitialized_copyILb0EE13__uninit_copyIPN4CVC311TheoryQuant13multTrigsInfoES5_EET0_T_S7_S6_@Base 2.4.1
 _ZNSt20__uninitialized_copyILb0EE13__uninit_copyIPN4CVC34ExprES4_EET0_T_S6_S5_@Base 2.4.1
 _ZNSt20__uninitialized_copyILb0EE13__uninit_copyIPN4CVC37ExprMapINS2_4ExprEEES6_EET0_T_S8_S7_@Base 2.4.1
 _ZNSt20__uninitialized_copyILb0EE13__uninit_copyIPN4CVC37LiteralES4_EET0_T_S6_S5_@Base 2.4.1
 _ZNSt20__uninitialized_copyILb0EE13__uninit_copyIPN4CVC37TheoremES4_EET0_T_S6_S5_@Base 2.4.1
 _ZNSt20__uninitialized_copyILb0EE13__uninit_copyIPN4CVC37TriggerES4_EET0_T_S6_S5_@Base 2.4.1
 _ZNSt20__uninitialized_copyILb0EE13__uninit_copyIPN4CVC37dynTrigES4_EET0_T_S6_S5_@Base 2.4.1
 _ZNSt20__uninitialized_copyILb0EE13__uninit_copyIPN4CVC38UnsignedES4_EET0_T_S6_S5_@Base 2.4.1
 _ZNSt20__uninitialized_copyILb0EE13__uninit_copyIPN4Hash8hash_setIiNS2_4hashIiEESt8equal_toIiEEES9_EET0_T_SB_SA_@Base 2.4.1
 _ZNSt20__uninitialized_copyILb0EE13__uninit_copyIPSsS2_EET0_T_S4_S3_@Base 2.4.1
 _ZNSt20__uninitialized_copyILb0EE13__uninit_copyIPSt4pairIN4CVC37TheoremEiES6_EET0_T_S8_S7_@Base 2.4.1
 _ZNSt20__uninitialized_copyILb0EE13__uninit_copyIPSt4pairISsN4CVC34ExprEES6_EET0_T_S8_S7_@Base 2.4.1
 _ZNSt20__uninitialized_copyILb0EE13__uninit_copyIPSt4pairISsN4CVC34TypeEES6_EET0_T_S8_S7_@Base 2.4.1
 _ZNSt20__uninitialized_copyILb0EE13__uninit_copyIPSt6vectorIN4CVC34ExprESaIS4_EES7_EET0_T_S9_S8_@Base 2.4.1
 _ZNSt20__uninitialized_copyILb0EE13__uninit_copyIPSt6vectorIS2_IN4CVC34ExprESaIS4_EESaIS6_EES9_EET0_T_SB_SA_@Base 2.4.1
 _ZNSt20__uninitialized_copyILb0EE13__uninit_copyIPSt6vectorIS2_ISsSaISsEESaIS4_EES7_EET0_T_S9_S8_@Base 2.4.1
 _ZNSt20__uninitialized_copyILb0EE13__uninit_copyIPSt6vectorISsSaISsEES5_EET0_T_S7_S6_@Base 2.4.1
 _ZNSt20__uninitialized_copyILb0EE13__uninit_copyIPSt6vectorImSaImEES5_EET0_T_S7_S6_@Base 2.4.1
 _ZNSt20__uninitialized_copyILb0EE13__uninit_copyISt16reverse_iteratorIN9__gnu_cxx17__normal_iteratorIPN4CVC34ExprESt6vectorIS6_SaIS6_EEEEES7_EET0_T_SE_SD_@Base 2.4.1
 _ZNSt22__uninitialized_fill_nILb0EE15__uninit_fill_nIPN4Hash8hash_setIiNS2_4hashIiEESt8equal_toIiEEEmS8_EEvT_T0_RKT1_@Base 2.4.1
 _ZNSt22__uninitialized_fill_nILb0EE15__uninit_fill_nIPSt6vectorIN4CVC34ExprESaIS4_EEmS6_EEvT_T0_RKT1_@Base 2.4.1
 _ZNSt22__uninitialized_fill_nILb0EE15__uninit_fill_nIPSt6vectorISsSaISsEEmS4_EEvT_T0_RKT1_@Base 2.4.1
 _ZNSt23_Rb_tree_const_iteratorISt4pairIKSsN4CVC36CLFlagEEEC1EPKSt13_Rb_tree_nodeIS4_E@Base 2.4.1
 _ZNSt23_Rb_tree_const_iteratorISt4pairIKSsN4CVC36CLFlagEEEC2EPKSt13_Rb_tree_nodeIS4_E@Base 2.4.1
 _ZNSt3mapIN4CVC34ExprEN4Hash8hash_setIS1_NS2_4hashIS1_EESt8equal_toIS1_EEESt4lessIS1_ESaISt4pairIKS1_S8_EEEixERSC_@Base 2.4.1
 _ZNSt3mapIN4CVC34ExprENS0_11TheoryQuant13multTrigsInfoESt4lessIS1_ESaISt4pairIKS1_S3_EEEixERS7_@Base 2.4.1
 _ZNSt3mapIN4CVC34ExprENS0_2OpESt4lessIS1_ESaISt4pairIKS1_S2_EEEixERS6_@Base 2.4.1
 _ZNSt3mapIN4CVC34ExprENS0_7ExprMapIjEESt4lessIS1_ESaISt4pairIKS1_S3_EEEixERS7_@Base 2.4.1
 _ZNSt3mapIN4CVC34ExprENS0_7TheoremESt4lessIS1_ESaISt4pairIKS1_S2_EEEixERS6_@Base 2.4.1
 _ZNSt3mapIN4CVC34ExprENS0_8PolarityESt4lessIS1_ESaISt4pairIKS1_S2_EEEixERS6_@Base 2.4.1
 _ZNSt3mapIN4CVC34ExprENS0_8RationalE12MonomialLessSaISt4pairIKS1_S2_EEEixERS5_@Base 2.4.1
 _ZNSt3mapIN4CVC34ExprENS0_8RationalESt4lessIS1_ESaISt4pairIKS1_S2_EEEixERS6_@Base 2.4.1
 _ZNSt3mapIN4CVC34ExprEPNS0_5CDMapIS1_bN4Hash4hashIS1_EEEESt4lessIS1_ESaISt4pairIKS1_S7_EEEixERSB_@Base 2.4.1
 _ZNSt3mapIN4CVC34ExprEPNS0_6CDListINS0_12TheoryArith34IneqEEESt4lessIS1_ESaISt4pairIKS1_S6_EEEixERSA_@Base 2.4.1
 _ZNSt3mapIN4CVC34ExprEPNS0_6CDListINS0_14TheoryArithNew4IneqEEESt4lessIS1_ESaISt4pairIKS1_S6_EEEixERSA_@Base 2.4.1
 _ZNSt3mapIN4CVC34ExprEPNS0_6CDListINS0_14TheoryArithOld4IneqEEESt4lessIS1_ESaISt4pairIKS1_S6_EEEixERSA_@Base 2.4.1
 _ZNSt3mapIN4CVC34ExprEPNS0_6CDListINS0_7TheoremEEESt4lessIS1_ESaISt4pairIKS1_S5_EEEixERS9_@Base 2.4.1
 _ZNSt3mapIN4CVC34ExprEPNS0_6CDListIS1_EESt4lessIS1_ESaISt4pairIKS1_S4_EEEixERS8_@Base 2.4.1
 _ZNSt3mapIN4CVC34ExprEPNS0_8TheoryUF9TCMapPairESt4lessIS1_ESaISt4pairIKS1_S4_EEEixERS8_@Base 2.4.1
 _ZNSt3mapIN4CVC34ExprEPSt3setIS1_St4lessIS1_ESaIS1_EES4_SaISt4pairIKS1_S7_EEEixERS9_@Base 2.4.1
 _ZNSt3mapIN4CVC34ExprEPSt6vectorINS0_7dynTrigESaIS3_EESt4lessIS1_ESaISt4pairIKS1_S6_EEEixERSA_@Base 2.4.1
 _ZNSt3mapIN4CVC34ExprEPSt6vectorIS1_SaIS1_EESt4lessIS1_ESaISt4pairIKS1_S5_EEEixERS9_@Base 2.4.1
 _ZNSt3mapIN4CVC34ExprES1_St4lessIS1_ESaISt4pairIKS1_S1_EEEixERS5_@Base 2.4.1
 _ZNSt3mapIN4CVC34ExprESt3setISt4pairINS0_8RationalES1_ESt4lessIS5_ESaIS5_EES6_IS1_ESaIS3_IKS1_S9_EEEixERSB_@Base 2.4.1
 _ZNSt3mapIN4CVC34ExprESt4pairIS1_jESt4lessIS1_ESaIS2_IKS1_S3_EEEixERS6_@Base 2.4.1
 _ZNSt3mapIN4CVC34ExprESt6vectorINS0_7TriggerESaIS3_EESt4lessIS1_ESaISt4pairIKS1_S5_EEEixERS9_@Base 2.4.1
 _ZNSt3mapIN4CVC34ExprESt6vectorIS1_SaIS1_EESt4lessIS1_ESaISt4pairIKS1_S4_EEEixERS8_@Base 2.4.1
 _ZNSt3mapIN4CVC34ExprEbSt4lessIS1_ESaISt4pairIKS1_bEEEixERS5_@Base 2.4.1
 _ZNSt3mapIN4CVC34ExprEiSt4lessIS1_ESaISt4pairIKS1_iEEED1Ev@Base 2.4.1
 _ZNSt3mapIN4CVC34ExprEiSt4lessIS1_ESaISt4pairIKS1_iEEED2Ev@Base 2.4.1
 _ZNSt3mapIN4CVC34ExprEiSt4lessIS1_ESaISt4pairIKS1_iEEEixERS5_@Base 2.4.1
 _ZNSt3mapIN4CVC34ExprEjSt4lessIS1_ESaISt4pairIKS1_jEEEixERS5_@Base 2.4.1
 _ZNSt3mapIN4CVC34ExprEmSt4lessIS1_ESaISt4pairIKS1_mEEEixERS5_@Base 2.4.1
 _ZNSt3mapIN4CVC34TypeEPNS0_6CDListImEENS0_11TheoryQuant8TypeCompESaISt4pairIKS1_S4_EEEixERS8_@Base 2.4.1
 _ZNSt3mapIN4CVC34TypeESt6vectorImSaImEENS0_11TheoryQuant8TypeCompESaISt4pairIKS1_S4_EEEixERS8_@Base 2.4.1
 _ZNSt3mapIP9LFSCProofS1_St4lessIS1_ESaISt4pairIKS1_S1_EEED1Ev@Base 2.4.1
 _ZNSt3mapIP9LFSCProofS1_St4lessIS1_ESaISt4pairIKS1_S1_EEED2Ev@Base 2.4.1
 _ZNSt3mapIP9LFSCProofiSt4lessIS1_ESaISt4pairIKS1_iEEED1Ev@Base 2.4.1
 _ZNSt3mapIP9LFSCProofiSt4lessIS1_ESaISt4pairIKS1_iEEED2Ev@Base 2.4.1
 _ZNSt3mapISsN4CVC34TypeESt4lessISsESaISt4pairIKSsS1_EEEixERS5_@Base 2.4.1
 _ZNSt3mapISsN4CVC36CLFlagESt4lessISsESaISt4pairIKSsS1_EEE4findERS5_@Base 2.4.1
 _ZNSt3mapISsN4CVC36CLFlagESt4lessISsESaISt4pairIKSsS1_EEEixERS5_@Base 2.4.1
 _ZNSt3mapISsiSt4lessISsESaISt4pairIKSsiEEEixERS3_@Base 2.4.1
 _ZNSt3mapIi6RefPtrI9LFSCProofESt4lessIiESaISt4pairIKiS2_EEED1Ev@Base 2.4.1
 _ZNSt3mapIi6RefPtrI9LFSCProofESt4lessIiESaISt4pairIKiS2_EEED2Ev@Base 2.4.1
 _ZNSt3mapIibSt4lessIiESaISt4pairIKibEEED1Ev@Base 2.4.1
 _ZNSt3mapIibSt4lessIiESaISt4pairIKibEEED2Ev@Base 2.4.1
 _ZNSt3mapIibSt4lessIiESaISt4pairIKibEEEixERS3_@Base 2.4.1
 _ZNSt4pairIKN4CVC34ExprEN4Hash8hash_setIS1_NS3_4hashIS1_EESt8equal_toIS1_EEEED1Ev@Base 2.4.1
 _ZNSt4pairIKN4CVC34ExprEN4Hash8hash_setIS1_NS3_4hashIS1_EESt8equal_toIS1_EEEED2Ev@Base 2.4.1
 _ZNSt4pairIKN4CVC34ExprENS0_14TheoryArithNew9BoundInfoEED1Ev@Base 2.4.1
 _ZNSt4pairIKN4CVC34ExprENS0_14TheoryArithNew9BoundInfoEED2Ev@Base 2.4.1
 _ZNSt4pairIKN4CVC34ExprENS0_14TheoryArithOld20DifferenceLogicGraph11EpsRationalEED1Ev@Base 2.4.1
 _ZNSt4pairIKN4CVC34ExprENS0_14TheoryArithOld20DifferenceLogicGraph11EpsRationalEED2Ev@Base 2.4.1
 _ZNSt4pairIKN4CVC34ExprENS0_14TheoryArithOld20DifferenceLogicGraph8EdgeInfoEED1Ev@Base 2.4.1
 _ZNSt4pairIKN4CVC34ExprENS0_14TheoryArithOld20DifferenceLogicGraph8EdgeInfoEED2Ev@Base 2.4.1
 _ZNSt4pairIKN4CVC34ExprENS0_2OpEED1Ev@Base 2.4.1
 _ZNSt4pairIKN4CVC34ExprENS0_2OpEED2Ev@Base 2.4.1
 _ZNSt4pairIKN4CVC34ExprENS0_4TypeEED1Ev@Base 2.4.1
 _ZNSt4pairIKN4CVC34ExprENS0_4TypeEED2Ev@Base 2.4.1
 _ZNSt4pairIKN4CVC34ExprENS0_7ExprMapIjEEED1Ev@Base 2.4.1
 _ZNSt4pairIKN4CVC34ExprENS0_7ExprMapIjEEED2Ev@Base 2.4.1
 _ZNSt4pairIKN4CVC34ExprENS0_7TheoremEED1Ev@Base 2.4.1
 _ZNSt4pairIKN4CVC34ExprENS0_7TheoremEED2Ev@Base 2.4.1
 _ZNSt4pairIKN4CVC34ExprENS0_8RationalEED1Ev@Base 2.4.1
 _ZNSt4pairIKN4CVC34ExprENS0_8RationalEED2Ev@Base 2.4.1
 _ZNSt4pairIKN4CVC34ExprES1_ED1Ev@Base 2.4.1
 _ZNSt4pairIKN4CVC34ExprES1_ED2Ev@Base 2.4.1
 _ZNSt4pairIKN4CVC34ExprES_IS1_jEED1Ev@Base 2.4.1
 _ZNSt4pairIKN4CVC34ExprES_IS1_jEED2Ev@Base 2.4.1
 _ZNSt4pairIKN4CVC34ExprESsED1Ev@Base 2.4.1
 _ZNSt4pairIKN4CVC34ExprESsED2Ev@Base 2.4.1
 _ZNSt4pairIKN4CVC34ExprESt6vectorINS0_7TriggerESaIS4_EEED1Ev@Base 2.4.1
 _ZNSt4pairIKN4CVC34ExprESt6vectorINS0_7TriggerESaIS4_EEED2Ev@Base 2.4.1
 _ZNSt4pairIKN4CVC34ExprESt6vectorIS1_SaIS1_EEED1Ev@Base 2.4.1
 _ZNSt4pairIKN4CVC34ExprESt6vectorIS1_SaIS1_EEED2Ev@Base 2.4.1
 _ZNSt4pairIKS_IN4CVC34ExprES1_ES1_ED1Ev@Base 2.4.1
 _ZNSt4pairIKS_IN4CVC34ExprES1_ES1_ED2Ev@Base 2.4.1
 _ZNSt4pairIKSsN4CVC34ExprEED1Ev@Base 2.4.1
 _ZNSt4pairIKSsN4CVC34ExprEED2Ev@Base 2.4.1
 _ZNSt4pairIKSsN4CVC34TypeEED1Ev@Base 2.4.1
 _ZNSt4pairIKSsN4CVC34TypeEED2Ev@Base 2.4.1
 _ZNSt4pairIKSsSsED1Ev@Base 2.4.1
 _ZNSt4pairIKSsSsED2Ev@Base 2.4.1
 _ZNSt4pairIN4CVC34ExprENS0_4TypeEED1Ev@Base 2.4.1
 _ZNSt4pairIN4CVC34ExprENS0_4TypeEED2Ev@Base 2.4.1
 _ZNSt4pairIN4CVC34ExprENS0_7TheoremEED1Ev@Base 2.4.1
 _ZNSt4pairIN4CVC34ExprENS0_7TheoremEED2Ev@Base 2.4.1
 _ZNSt4pairIN4CVC34ExprES1_ED1Ev@Base 2.4.1
 _ZNSt4pairIN4CVC34ExprES1_ED2Ev@Base 2.4.1
 _ZNSt4pairIN4CVC34ExprESt6vectorIS1_SaIS1_EEED1Ev@Base 2.4.1
 _ZNSt4pairIN4CVC34ExprESt6vectorIS1_SaIS1_EEED2Ev@Base 2.4.1
 _ZNSt4pairIN4CVC38RationalENS0_4ExprEED1Ev@Base 2.4.1
 _ZNSt4pairIN4CVC38RationalENS0_4ExprEED2Ev@Base 2.4.1
 _ZNSt4pairISsN4CVC34ExprEED1Ev@Base 2.4.1
 _ZNSt4pairISsN4CVC34ExprEED2Ev@Base 2.4.1
 _ZNSt4pairISsN4CVC34TypeEED1Ev@Base 2.4.1
 _ZNSt4pairISsN4CVC34TypeEED2Ev@Base 2.4.1
 _ZNSt4pairISsSsED1Ev@Base 2.4.1
 _ZNSt4pairISsSsED2Ev@Base 2.4.1
 _ZNSt4pairISt6vectorIN4CVC34ExprESaIS2_EES4_EC1Ev@Base 2.4.1
 _ZNSt4pairISt6vectorIN4CVC34ExprESaIS2_EES4_EC2Ev@Base 2.4.1
 _ZNSt4pairISt6vectorIN4CVC34ExprESaIS2_EES4_ED1Ev@Base 2.4.1
 _ZNSt4pairISt6vectorIN4CVC34ExprESaIS2_EES4_ED2Ev@Base 2.4.1
 _ZNSt5dequeIN3SAT3VarESaIS1_EE15_M_pop_back_auxEv@Base 2.4.1
 _ZNSt5dequeIN3SAT3VarESaIS1_EE9push_backERKS1_@Base 2.4.1
 _ZNSt5dequeIN3SAT6ClauseESaIS1_EE13_M_insert_auxESt15_Deque_iteratorIS1_RS1_PS1_EmRKS1_@Base 2.4.1
 _ZNSt5dequeIN3SAT6ClauseESaIS1_EE14_M_fill_insertESt15_Deque_iteratorIS1_RS1_PS1_EmRKS1_@Base 2.4.1
 _ZNSt5dequeIN3SAT6ClauseESaIS1_EE15_M_pop_back_auxEv@Base 2.4.1
 _ZNSt5dequeIN3SAT6ClauseESaIS1_EE16_M_push_back_auxERKS1_@Base 2.4.1
 _ZNSt5dequeIN3SAT6ClauseESaIS1_EE17_M_reallocate_mapEmb@Base 2.4.1
 _ZNSt5dequeIN3SAT6ClauseESaIS1_EE19_M_destroy_data_auxESt15_Deque_iteratorIS1_RS1_PS1_ES7_@Base 2.4.1
 _ZNSt5dequeIN3SAT6ClauseESaIS1_EE23_M_new_elements_at_backEm@Base 2.4.1
 _ZNSt5dequeIN3SAT6ClauseESaIS1_EE24_M_new_elements_at_frontEm@Base 2.4.1
 _ZNSt5dequeIN3SAT6ClauseESaIS1_EE8pop_backEv@Base 2.4.1
 _ZNSt5dequeIN4CVC311ClauseOwnerESaIS1_EE16_M_push_back_auxERKS1_@Base 2.4.1
 _ZNSt5dequeIN4CVC311ClauseOwnerESaIS1_EED1Ev@Base 2.4.1
 _ZNSt5dequeIN4CVC311ClauseOwnerESaIS1_EED2Ev@Base 2.4.1
 _ZNSt5dequeIN4CVC312TheoryArith34IneqESaIS2_EE15_M_pop_back_auxEv@Base 2.4.1
 _ZNSt5dequeIN4CVC312TheoryArith34IneqESaIS2_EE16_M_push_back_auxERKS2_@Base 2.4.1
 _ZNSt5dequeIN4CVC312TheoryArith34IneqESaIS2_EE19_M_destroy_data_auxESt15_Deque_iteratorIS2_RS2_PS2_ES8_@Base 2.4.1
 _ZNSt5dequeIN4CVC314SearchImplBase8SplitterESaIS2_EE15_M_pop_back_auxEv@Base 2.4.1
 _ZNSt5dequeIN4CVC314SearchImplBase8SplitterESaIS2_EE16_M_push_back_auxERKS2_@Base 2.4.1
 _ZNSt5dequeIN4CVC314SearchImplBase8SplitterESaIS2_EE19_M_destroy_data_auxESt15_Deque_iteratorIS2_RS2_PS2_ES8_@Base 2.4.1
 _ZNSt5dequeIN4CVC314TheoryArithNew4IneqESaIS2_EE15_M_pop_back_auxEv@Base 2.4.1
 _ZNSt5dequeIN4CVC314TheoryArithNew4IneqESaIS2_EE19_M_destroy_data_auxESt15_Deque_iteratorIS2_RS2_PS2_ES8_@Base 2.4.1
 _ZNSt5dequeIN4CVC314TheoryArithOld4IneqESaIS2_EE15_M_pop_back_auxEv@Base 2.4.1
 _ZNSt5dequeIN4CVC314TheoryArithOld4IneqESaIS2_EE16_M_push_back_auxERKS2_@Base 2.4.1
 _ZNSt5dequeIN4CVC314TheoryArithOld4IneqESaIS2_EE19_M_destroy_data_auxESt15_Deque_iteratorIS2_RS2_PS2_ES8_@Base 2.4.1
 _ZNSt5dequeIN4CVC318TheoryDatatypeLazy12ProcessKindsESaIS2_EE15_M_pop_back_auxEv@Base 2.4.1
 _ZNSt5dequeIN4CVC34ExprESaIS1_EE15_M_pop_back_auxEv@Base 2.4.1
 _ZNSt5dequeIN4CVC34ExprESaIS1_EE16_M_push_back_auxERKS1_@Base 2.4.1
 _ZNSt5dequeIN4CVC34ExprESaIS1_EE19_M_destroy_data_auxESt15_Deque_iteratorIS1_RS1_PS1_ES7_@Base 2.4.1
 _ZNSt5dequeIN4CVC34ExprESaIS1_EE9pop_frontEv@Base 2.4.1
 _ZNSt5dequeIN4CVC34ExprESaIS1_EED1Ev@Base 2.4.1
 _ZNSt5dequeIN4CVC34ExprESaIS1_EED2Ev@Base 2.4.1
 _ZNSt5dequeIN4CVC37LiteralESaIS1_EE15_M_pop_back_auxEv@Base 2.4.1
 _ZNSt5dequeIN4CVC37LiteralESaIS1_EE16_M_push_back_auxERKS1_@Base 2.4.1
 _ZNSt5dequeIN4CVC37LiteralESaIS1_EE19_M_destroy_data_auxESt15_Deque_iteratorIS1_RS1_PS1_ES7_@Base 2.4.1
 _ZNSt5dequeIN4CVC37TheoremESaIS1_EE15_M_pop_back_auxEv@Base 2.4.1
 _ZNSt5dequeIN4CVC37TheoremESaIS1_EE16_M_push_back_auxERKS1_@Base 2.4.1
 _ZNSt5dequeIN4CVC37TheoremESaIS1_EE19_M_destroy_data_auxESt15_Deque_iteratorIS1_RS1_PS1_ES7_@Base 2.4.1
 _ZNSt5dequeIN4CVC37TheoremESaIS1_EE9pop_frontEv@Base 2.4.1
 _ZNSt5dequeIN4CVC37TheoremESaIS1_EEC1ERKS3_@Base 2.4.1
 _ZNSt5dequeIN4CVC37TheoremESaIS1_EEC2ERKS3_@Base 2.4.1
 _ZNSt5dequeIN4CVC37TheoremESaIS1_EED1Ev@Base 2.4.1
 _ZNSt5dequeIN4CVC37TheoremESaIS1_EED2Ev@Base 2.4.1
 _ZNSt5dequeIN4CVC37TriggerESaIS1_EE15_M_pop_back_auxEv@Base 2.4.1
 _ZNSt5dequeIN4CVC37TriggerESaIS1_EE19_M_destroy_data_auxESt15_Deque_iteratorIS1_RS1_PS1_ES7_@Base 2.4.1
 _ZNSt5dequeIN4CVC37dynTrigESaIS1_EE15_M_pop_back_auxEv@Base 2.4.1
 _ZNSt5dequeIN4CVC37dynTrigESaIS1_EE16_M_push_back_auxERKS1_@Base 2.4.1
 _ZNSt5dequeIN4CVC37dynTrigESaIS1_EE19_M_destroy_data_auxESt15_Deque_iteratorIS1_RS1_PS1_ES7_@Base 2.4.1
 _ZNSt5dequeIN4CVC38SmartCDOINS0_7TheoremEEESaIS3_EE15_M_pop_back_auxEv@Base 2.4.1
 _ZNSt5dequeIN4CVC38SmartCDOINS0_7TheoremEEESaIS3_EE16_M_push_back_auxERKS3_@Base 2.4.1
 _ZNSt5dequeIN4CVC38SmartCDOINS0_7TheoremEEESaIS3_EE19_M_destroy_data_auxESt15_Deque_iteratorIS3_RS3_PS3_ES9_@Base 2.4.1
 _ZNSt5dequeIPN4CVC36TheoryESaIS2_EE15_M_pop_back_auxEv@Base 2.4.1
 _ZNSt5dequeIPN4CVC36TheoryESaIS2_EE16_M_push_back_auxERKS2_@Base 2.4.1
 _ZNSt5dequeIPN4CVC39ExprValueESaIS2_EE16_M_push_back_auxERKS2_@Base 2.4.1
 _ZNSt5dequeIPN7MiniSat6ClauseESaIS2_EE17_M_reallocate_mapEmb@Base 2.4.1
 _ZNSt5dequeIPN7MiniSat6ClauseESaIS2_EE8_M_eraseESt15_Deque_iteratorIS2_RS2_PS2_E@Base 2.4.1
 _ZNSt5dequeIPN7MiniSat6ClauseESaIS2_EE9push_backERKS2_@Base 2.4.1
 _ZNSt5dequeIPN7MiniSat6SolverESaIS2_EE15_M_pop_back_auxEv@Base 2.4.1
 _ZNSt5dequeIPN7MiniSat6SolverESaIS2_EE16_M_push_back_auxERKS2_@Base 2.4.1
 _ZNSt5dequeISt4pairIiPN7MiniSat6ClauseEESaIS4_EE15_M_pop_back_auxEv@Base 2.4.1
 _ZNSt5dequeImSaImEE15_M_pop_back_auxEv@Base 2.4.1
 _ZNSt6vectorI6RefPtrI9LFSCProofESaIS2_EE13_M_insert_auxEN9__gnu_cxx17__normal_iteratorIPS2_S4_EERKS2_@Base 2.4.1
 _ZNSt6vectorI6RefPtrI9LFSCProofESaIS2_EE9push_backERKS2_@Base 2.4.1
 _ZNSt6vectorI6RefPtrI9LFSCProofESaIS2_EED1Ev@Base 2.4.1
 _ZNSt6vectorI6RefPtrI9LFSCProofESaIS2_EED2Ev@Base 2.4.1
 _ZNSt6vectorIN3SAT11CNF_Manager7VarinfoESaIS2_EE13_M_insert_auxEN9__gnu_cxx17__normal_iteratorIPS2_S4_EERKS2_@Base 2.4.1
 _ZNSt6vectorIN3SAT11CNF_Manager7VarinfoESaIS2_EE14_M_fill_insertEN9__gnu_cxx17__normal_iteratorIPS2_S4_EEmRKS2_@Base 2.4.1
 _ZNSt6vectorIN3SAT11CNF_Manager7VarinfoESaIS2_EE6resizeEmS2_@Base 2.4.1
 _ZNSt6vectorIN3SAT11CNF_Manager7VarinfoESaIS2_EED1Ev@Base 2.4.1
 _ZNSt6vectorIN3SAT11CNF_Manager7VarinfoESaIS2_EED2Ev@Base 2.4.1
 _ZNSt6vectorIN3SAT3LitESaIS1_EE13_M_insert_auxEN9__gnu_cxx17__normal_iteratorIPS1_S3_EERKS1_@Base 2.4.1
 _ZNSt6vectorIN3SAT3LitESaIS1_EEaSERKS3_@Base 2.4.1
 _ZNSt6vectorIN3SAT3Var3ValESaIS2_EE14_M_fill_insertEN9__gnu_cxx17__normal_iteratorIPS2_S4_EEmRKS2_@Base 2.4.1
 _ZNSt6vectorIN3SAT3Var3ValESaIS2_EE6resizeEmS2_@Base 2.4.1
 _ZNSt6vectorIN3SAT3VarESaIS1_EE13_M_insert_auxEN9__gnu_cxx17__normal_iteratorIPS1_S3_EERKS1_@Base 2.4.1
 _ZNSt6vectorIN3SAT3VarESaIS1_EEaSERKS3_@Base 2.4.1
 _ZNSt6vectorIN4CVC311TheoryQuant13multTrigsInfoESaIS2_EE13_M_insert_auxEN9__gnu_cxx17__normal_iteratorIPS2_S4_EERKS2_@Base 2.4.1
 _ZNSt6vectorIN4CVC311TheoryQuant13multTrigsInfoESaIS2_EED1Ev@Base 2.4.1
 _ZNSt6vectorIN4CVC311TheoryQuant13multTrigsInfoESaIS2_EED2Ev@Base 2.4.1
 _ZNSt6vectorIN4CVC34ExprESaIS1_EE13_M_insert_auxEN9__gnu_cxx17__normal_iteratorIPS1_S3_EERKS1_@Base 2.4.1
 _ZNSt6vectorIN4CVC34ExprESaIS1_EE14_M_fill_insertEN9__gnu_cxx17__normal_iteratorIPS1_S3_EEmRKS1_@Base 2.4.1
 _ZNSt6vectorIN4CVC34ExprESaIS1_EE15_M_range_insertIN9__gnu_cxx17__normal_iteratorIPKS1_S3_EEEEvNS6_IPS1_S3_EET_SC_St20forward_iterator_tag@Base 2.4.1
 _ZNSt6vectorIN4CVC34ExprESaIS1_EE15_M_range_insertIN9__gnu_cxx17__normal_iteratorIPS1_S3_EEEEvS8_T_S9_St20forward_iterator_tag@Base 2.4.1
 _ZNSt6vectorIN4CVC34ExprESaIS1_EE15_M_range_insertISt16reverse_iteratorIN9__gnu_cxx17__normal_iteratorIPS1_S3_EEEEEvS9_T_SB_St20forward_iterator_tag@Base 2.4.1
 _ZNSt6vectorIN4CVC34ExprESaIS1_EE15_M_range_insertISt23_Rb_tree_const_iteratorIS1_EEEvN9__gnu_cxx17__normal_iteratorIPS1_S3_EET_SB_St20forward_iterator_tag@Base 2.4.1
 _ZNSt6vectorIN4CVC34ExprESaIS1_EE18_M_insert_dispatchIN9__gnu_cxx17__normal_iteratorIPS1_S3_EEEEvS8_T_S9_St12__false_type@Base 2.4.1
 _ZNSt6vectorIN4CVC34ExprESaIS1_EE18_M_insert_dispatchISt16reverse_iteratorIN9__gnu_cxx17__normal_iteratorIPS1_S3_EEEEEvS9_T_SB_St12__false_type@Base 2.4.1
 _ZNSt6vectorIN4CVC34ExprESaIS1_EE19_M_range_initializeISt16reverse_iteratorIN9__gnu_cxx17__normal_iteratorIPS1_S3_EEEEEvT_SB_St20forward_iterator_tag@Base 2.4.1
 _ZNSt6vectorIN4CVC34ExprESaIS1_EE22_M_initialize_dispatchISt16reverse_iteratorIN9__gnu_cxx17__normal_iteratorIPS1_S3_EEEEEvT_SB_St12__false_type@Base 2.4.1
 _ZNSt6vectorIN4CVC34ExprESaIS1_EE3endEv@Base 2.4.1
 _ZNSt6vectorIN4CVC34ExprESaIS1_EE4rendEv@Base 2.4.1
 _ZNSt6vectorIN4CVC34ExprESaIS1_EE5beginEv@Base 2.4.1
 _ZNSt6vectorIN4CVC34ExprESaIS1_EE6insertEN9__gnu_cxx17__normal_iteratorIPS1_S3_EERKS1_@Base 2.4.1
 _ZNSt6vectorIN4CVC34ExprESaIS1_EE6insertIN9__gnu_cxx17__normal_iteratorIPS1_S3_EEEEvS8_T_S9_@Base 2.4.1
 _ZNSt6vectorIN4CVC34ExprESaIS1_EE6insertISt16reverse_iteratorIN9__gnu_cxx17__normal_iteratorIPS1_S3_EEEEEvS9_T_SB_@Base 2.4.1
 _ZNSt6vectorIN4CVC34ExprESaIS1_EE6rbeginEv@Base 2.4.1
 _ZNSt6vectorIN4CVC34ExprESaIS1_EE7reserveEm@Base 2.4.1
 _ZNSt6vectorIN4CVC34ExprESaIS1_EE8_M_eraseEN9__gnu_cxx17__normal_iteratorIPS1_S3_EE@Base 2.4.1
 _ZNSt6vectorIN4CVC34ExprESaIS1_EE9push_backERKS1_@Base 2.4.1
 _ZNSt6vectorIN4CVC34ExprESaIS1_EEC1ERKS3_@Base 2.4.1
 _ZNSt6vectorIN4CVC34ExprESaIS1_EEC1Ev@Base 2.4.1
 _ZNSt6vectorIN4CVC34ExprESaIS1_EEC1ISt16reverse_iteratorIN9__gnu_cxx17__normal_iteratorIPS1_S3_EEEEET_SB_RKS2_@Base 2.4.1
 _ZNSt6vectorIN4CVC34ExprESaIS1_EEC2ERKS3_@Base 2.4.1
 _ZNSt6vectorIN4CVC34ExprESaIS1_EEC2Ev@Base 2.4.1
 _ZNSt6vectorIN4CVC34ExprESaIS1_EEC2ISt16reverse_iteratorIN9__gnu_cxx17__normal_iteratorIPS1_S3_EEEEET_SB_RKS2_@Base 2.4.1
 _ZNSt6vectorIN4CVC34ExprESaIS1_EED1Ev@Base 2.4.1
 _ZNSt6vectorIN4CVC34ExprESaIS1_EED2Ev@Base 2.4.1
 _ZNSt6vectorIN4CVC34ExprESaIS1_EEaSERKS3_@Base 2.4.1
 _ZNSt6vectorIN4CVC34ExprESaIS1_EEixEm@Base 2.4.1
 _ZNSt6vectorIN4CVC34TypeESaIS1_EE13_M_insert_auxEN9__gnu_cxx17__normal_iteratorIPS1_S3_EERKS1_@Base 2.4.1
 _ZNSt6vectorIN4CVC34TypeESaIS1_EE9push_backERKS1_@Base 2.4.1
 _ZNSt6vectorIN4CVC34TypeESaIS1_EED1Ev@Base 2.4.1
 _ZNSt6vectorIN4CVC34TypeESaIS1_EED2Ev@Base 2.4.1
 _ZNSt6vectorIN4CVC35ProofESaIS1_EE13_M_insert_auxEN9__gnu_cxx17__normal_iteratorIPS1_S3_EERKS1_@Base 2.4.1
 _ZNSt6vectorIN4CVC35ProofESaIS1_EE7reserveEm@Base 2.4.1
 _ZNSt6vectorIN4CVC35ProofESaIS1_EE9push_backERKS1_@Base 2.4.1
 _ZNSt6vectorIN4CVC35ProofESaIS1_EED1Ev@Base 2.4.1
 _ZNSt6vectorIN4CVC35ProofESaIS1_EED2Ev@Base 2.4.1
 _ZNSt6vectorIN4CVC36ClauseESaIS1_EE13_M_insert_auxEN9__gnu_cxx17__normal_iteratorIPS1_S3_EERKS1_@Base 2.4.1
 _ZNSt6vectorIN4CVC36ClauseESaIS1_EED1Ev@Base 2.4.1
 _ZNSt6vectorIN4CVC36ClauseESaIS1_EED2Ev@Base 2.4.1
 _ZNSt6vectorIN4CVC37ExprMapINS0_4ExprEEESaIS3_EE13_M_insert_auxEN9__gnu_cxx17__normal_iteratorIPS3_S5_EERKS3_@Base 2.4.1
 _ZNSt6vectorIN4CVC37ExprMapINS0_4ExprEEESaIS3_EE9push_backERKS3_@Base 2.4.1
 _ZNSt6vectorIN4CVC37ExprMapINS0_4ExprEEESaIS3_EEC1ERKS5_@Base 2.4.1
 _ZNSt6vectorIN4CVC37ExprMapINS0_4ExprEEESaIS3_EEC2ERKS5_@Base 2.4.1
 _ZNSt6vectorIN4CVC37ExprMapINS0_4ExprEEESaIS3_EED1Ev@Base 2.4.1
 _ZNSt6vectorIN4CVC37ExprMapINS0_4ExprEEESaIS3_EED2Ev@Base 2.4.1
 _ZNSt6vectorIN4CVC37ExprMapINS0_4ExprEEESaIS3_EEaSERKS5_@Base 2.4.1
 _ZNSt6vectorIN4CVC37LiteralESaIS1_EE13_M_insert_auxEN9__gnu_cxx17__normal_iteratorIPS1_S3_EERKS1_@Base 2.4.1
 _ZNSt6vectorIN4CVC37LiteralESaIS1_EE7reserveEm@Base 2.4.1
 _ZNSt6vectorIN4CVC37LiteralESaIS1_EE9push_backERKS1_@Base 2.4.1
 _ZNSt6vectorIN4CVC37LiteralESaIS1_EED1Ev@Base 2.4.1
 _ZNSt6vectorIN4CVC37LiteralESaIS1_EED2Ev@Base 2.4.1
 _ZNSt6vectorIN4CVC37TheoremESaIS1_EE13_M_insert_auxEN9__gnu_cxx17__normal_iteratorIPS1_S3_EERKS1_@Base 2.4.1
 _ZNSt6vectorIN4CVC37TheoremESaIS1_EE14_M_fill_insertEN9__gnu_cxx17__normal_iteratorIPS1_S3_EEmRKS1_@Base 2.4.1
 _ZNSt6vectorIN4CVC37TheoremESaIS1_EE7reserveEm@Base 2.4.1
 _ZNSt6vectorIN4CVC37TheoremESaIS1_EE9push_backERKS1_@Base 2.4.1
 _ZNSt6vectorIN4CVC37TheoremESaIS1_EEC1EmRKS1_RKS2_@Base 2.4.1
 _ZNSt6vectorIN4CVC37TheoremESaIS1_EEC2EmRKS1_RKS2_@Base 2.4.1
 _ZNSt6vectorIN4CVC37TheoremESaIS1_EED1Ev@Base 2.4.1
 _ZNSt6vectorIN4CVC37TheoremESaIS1_EED2Ev@Base 2.4.1
 _ZNSt6vectorIN4CVC37TriggerESaIS1_EE13_M_insert_auxEN9__gnu_cxx17__normal_iteratorIPS1_S3_EERKS1_@Base 2.4.1
 _ZNSt6vectorIN4CVC37TriggerESaIS1_EE9push_backERKS1_@Base 2.4.1
 _ZNSt6vectorIN4CVC37TriggerESaIS1_EED1Ev@Base 2.4.1
 _ZNSt6vectorIN4CVC37TriggerESaIS1_EED2Ev@Base 2.4.1
 _ZNSt6vectorIN4CVC37dynTrigESaIS1_EE13_M_insert_auxEN9__gnu_cxx17__normal_iteratorIPS1_S3_EERKS1_@Base 2.4.1
 _ZNSt6vectorIN4CVC37dynTrigESaIS1_EE9push_backERKS1_@Base 2.4.1
 _ZNSt6vectorIN4CVC38RationalESaIS1_EE13_M_insert_auxEN9__gnu_cxx17__normal_iteratorIPS1_S3_EERKS1_@Base 2.4.1
 _ZNSt6vectorIN4CVC38RationalESaIS1_EED1Ev@Base 2.4.1
 _ZNSt6vectorIN4CVC38RationalESaIS1_EED2Ev@Base 2.4.1
 _ZNSt6vectorIN4CVC38UnsignedESaIS1_EE13_M_insert_auxEN9__gnu_cxx17__normal_iteratorIPS1_S3_EERKS1_@Base 2.4.1
 _ZNSt6vectorIN4CVC38UnsignedESaIS1_EED1Ev@Base 2.4.1
 _ZNSt6vectorIN4CVC38UnsignedESaIS1_EED2Ev@Base 2.4.1
 _ZNSt6vectorIN4Hash8hash_setIiNS0_4hashIiEESt8equal_toIiEEESaIS6_EE14_M_fill_insertEN9__gnu_cxx17__normal_iteratorIPS6_S8_EEmRKS6_@Base 2.4.1
 _ZNSt6vectorIN4Hash8hash_setIiNS0_4hashIiEESt8equal_toIiEEESaIS6_EED1Ev@Base 2.4.1
 _ZNSt6vectorIN4Hash8hash_setIiNS0_4hashIiEESt8equal_toIiEEESaIS6_EED2Ev@Base 2.4.1
 _ZNSt6vectorIN7MiniSat3LitESaIS1_EE13_M_insert_auxEN9__gnu_cxx17__normal_iteratorIPS1_S3_EERKS1_@Base 2.4.1
 _ZNSt6vectorIN7MiniSat3LitESaIS1_EE14_M_fill_insertEN9__gnu_cxx17__normal_iteratorIPS1_S3_EEmRKS1_@Base 2.4.1
 _ZNSt6vectorIN7MiniSat3LitESaIS1_EE9push_backERKS1_@Base 2.4.1
 _ZNSt6vectorIN7MiniSat9PushEntryESaIS1_EE13_M_insert_auxEN9__gnu_cxx17__normal_iteratorIPS1_S3_EERKS1_@Base 2.4.1
 _ZNSt6vectorIN9SatSolver3LitESaIS1_EE13_M_insert_auxEN9__gnu_cxx17__normal_iteratorIPS1_S3_EERKS1_@Base 2.4.1
 _ZNSt6vectorIP7TReturnSaIS1_EE13_M_insert_auxEN9__gnu_cxx17__normal_iteratorIPS1_S3_EERKS1_@Base 2.4.1
 _ZNSt6vectorIP9SatSolverSaIS1_EE13_M_insert_auxEN9__gnu_cxx17__normal_iteratorIPS1_S3_EERKS1_@Base 2.4.1
 _ZNSt6vectorIPN3SAT14CD_CNF_FormulaESaIS2_EE13_M_insert_auxEN9__gnu_cxx17__normal_iteratorIPS2_S4_EERKS2_@Base 2.4.1
 _ZNSt6vectorIPN3SAT16CNF_Formula_ImplESaIS2_EE13_M_insert_auxEN9__gnu_cxx17__normal_iteratorIPS2_S4_EERKS2_@Base 2.4.1
 _ZNSt6vectorIPN4CVC313MemoryManagerESaIS2_EE13_M_insert_auxEN9__gnu_cxx17__normal_iteratorIPS2_S4_EERKS2_@Base 2.4.1
 _ZNSt6vectorIPN4CVC313VariableValueESaIS2_EE13_M_insert_auxEN9__gnu_cxx17__normal_iteratorIPS2_S4_EERKS2_@Base 2.4.1
 _ZNSt6vectorIPN4CVC316ContextNotifyObjESaIS2_EE13_M_insert_auxEN9__gnu_cxx17__normal_iteratorIPS2_S4_EERKS2_@Base 2.4.1
 _ZNSt6vectorIPN4CVC320ContextMemoryManagerESaIS2_EE13_M_insert_auxEN9__gnu_cxx17__normal_iteratorIPS2_S4_EERKS2_@Base 2.4.1
 _ZNSt6vectorIPN4CVC35CDMapINS0_4ExprEbN4Hash4hashIS2_EEEESaIS7_EE13_M_insert_auxEN9__gnu_cxx17__normal_iteratorIPS7_S9_EERKS7_@Base 2.4.1
 _ZNSt6vectorIPN4CVC35CDMapINS0_4ExprEbN4Hash4hashIS2_EEEESaIS7_EEaSERKS9_@Base 2.4.1
 _ZNSt6vectorIPN4CVC36CDOmapINS0_4ExprENS0_12TheoryArith39FreeConstEN4Hash4hashIS2_EEEESaIS9_EE13_M_insert_auxEN9__gnu_cxx17__normal_iteratorIPS9_SB_EERKS9_@Base 2.4.1
 _ZNSt6vectorIPN4CVC36CDOmapINS0_4ExprENS0_14TheoryArithNew11EpsRationalEN4Hash4hashIS2_EEEESaIS9_EE13_M_insert_auxEN9__gnu_cxx17__normal_iteratorIPS9_SB_EERKS9_@Base 2.4.1
 _ZNSt6vectorIPN4CVC36CDOmapINS0_4ExprENS0_14TheoryArithNew9BoundInfoEN4Hash4hashIS2_EEEESaIS9_EE13_M_insert_auxEN9__gnu_cxx17__normal_iteratorIPS9_SB_EERKS9_@Base 2.4.1
 _ZNSt6vectorIPN4CVC36CDOmapINS0_4ExprENS0_14TheoryArithNew9FreeConstEN4Hash4hashIS2_EEEESaIS9_EE13_M_insert_auxEN9__gnu_cxx17__normal_iteratorIPS9_SB_EERKS9_@Base 2.4.1
 _ZNSt6vectorIPN4CVC36CDOmapINS0_4ExprENS0_14TheoryArithOld20DifferenceLogicGraph11EpsRationalEN4Hash4hashIS2_EEEESaISA_EE13_M_insert_auxEN9__gnu_cxx17__normal_iteratorIPSA_SC_EERKSA_@Base 2.4.1
 _ZNSt6vectorIPN4CVC36CDOmapINS0_4ExprENS0_14TheoryArithOld20DifferenceLogicGraph8EdgeInfoEN4Hash4hashIS2_EEEESaISA_EE13_M_insert_auxEN9__gnu_cxx17__normal_iteratorIPSA_SC_EERKSA_@Base 2.4.1
 _ZNSt6vectorIPN4CVC36CDOmapINS0_4ExprENS0_14TheoryArithOld9FreeConstEN4Hash4hashIS2_EEEESaIS9_EE13_M_insert_auxEN9__gnu_cxx17__normal_iteratorIPS9_SB_EERKS9_@Base 2.4.1
 _ZNSt6vectorIPN4CVC36CDOmapINS0_4ExprENS0_3VCL13UserAssertionEN4Hash4hashIS2_EEEESaIS9_EE13_M_insert_auxEN9__gnu_cxx17__normal_iteratorIPS9_SB_EERKS9_@Base 2.4.1
 _ZNSt6vectorIPN4CVC36CDOmapINS0_4ExprENS0_7LiteralEN4Hash4hashIS2_EEEESaIS8_EE13_M_insert_auxEN9__gnu_cxx17__normal_iteratorIPS8_SA_EERKS8_@Base 2.4.1
 _ZNSt6vectorIPN4CVC36CDOmapINS0_4ExprENS0_7TheoremEN4Hash4hashIS2_EEEESaIS8_EE13_M_insert_auxEN9__gnu_cxx17__normal_iteratorIPS8_SA_EERKS8_@Base 2.4.1
 _ZNSt6vectorIPN4CVC36CDOmapINS0_4ExprENS0_8RationalEN4Hash4hashIS2_EEEESaIS8_EE13_M_insert_auxEN9__gnu_cxx17__normal_iteratorIPS8_SA_EERKS8_@Base 2.4.1
 _ZNSt6vectorIPN4CVC36CDOmapINS0_4ExprENS0_8SmartCDOINS0_8UnsignedEEEN4Hash4hashIS2_EEEESaISA_EE13_M_insert_auxEN9__gnu_cxx17__normal_iteratorIPSA_SC_EERKSA_@Base 2.4.1
 _ZNSt6vectorIPN4CVC36CDOmapINS0_4ExprEPNS0_6CDListINS0_7dynTrigEEEN4Hash4hashIS2_EEEESaISB_EE13_M_insert_auxEN9__gnu_cxx17__normal_iteratorIPSB_SD_EERKSB_@Base 2.4.1
 _ZNSt6vectorIPN4CVC36CDOmapINS0_4ExprES2_N4Hash4hashIS2_EEEESaIS7_EE13_M_insert_auxEN9__gnu_cxx17__normal_iteratorIPS7_S9_EERKS7_@Base 2.4.1
 _ZNSt6vectorIPN4CVC36CDOmapINS0_4ExprES_IS2_SaIS2_EEN4Hash4hashIS2_EEEESaIS9_EE13_M_insert_auxEN9__gnu_cxx17__normal_iteratorIPS9_SB_EERKS9_@Base 2.4.1
 _ZNSt6vectorIPN4CVC36CDOmapINS0_4ExprESt3setIS_IS2_SaIS2_EESt4lessIS5_ESaIS5_EEN4Hash4hashIS2_EEEESaISE_EE13_M_insert_auxEN9__gnu_cxx17__normal_iteratorIPSE_SG_EERKSE_@Base 2.4.1
 _ZNSt6vectorIPN4CVC36CDOmapINS0_4ExprEbN4Hash4hashIS2_EEEESaIS7_EE13_M_insert_auxEN9__gnu_cxx17__normal_iteratorIPS7_S9_EERKS7_@Base 2.4.1
 _ZNSt6vectorIPN4CVC36CDOmapINS0_4ExprEiN4Hash4hashIS2_EEEESaIS7_EE13_M_insert_auxEN9__gnu_cxx17__normal_iteratorIPS7_S9_EERKS7_@Base 2.4.1
 _ZNSt6vectorIPN4CVC36CDOmapISsbN4Hash4hashISsEEEESaIS6_EE13_M_insert_auxEN9__gnu_cxx17__normal_iteratorIPS6_S8_EERKS6_@Base 2.4.1
 _ZNSt6vectorIPN4CVC36TheoryESaIS2_EE13_M_insert_auxEN9__gnu_cxx17__normal_iteratorIPS2_S4_EERKS2_@Base 2.4.1
 _ZNSt6vectorIPN4CVC36TheoryESaIS2_EE9push_backERKS2_@Base 2.4.1
 _ZNSt6vectorIPN4CVC37CircuitESaIS2_EE13_M_insert_auxEN9__gnu_cxx17__normal_iteratorIPS2_S4_EERKS2_@Base 2.4.1
 _ZNSt6vectorIPN4CVC37ContextESaIS2_EE13_M_insert_auxEN9__gnu_cxx17__normal_iteratorIPS2_S4_EERKS2_@Base 2.4.1
 _ZNSt6vectorIPN4CVC37ExprMapIPNS0_6CDListINS0_4ExprEEEEESaIS7_EE13_M_insert_auxEN9__gnu_cxx17__normal_iteratorIPS7_S9_EERKS7_@Base 2.4.1
 _ZNSt6vectorIPN4CVC37ExprMapIPNS0_6CDListINS0_4ExprEEEEESaIS7_EE9push_backERKS7_@Base 2.4.1
 _ZNSt6vectorIPN4CVC37ExprMapIPNS0_6CDListINS0_4ExprEEEEESaIS7_EEaSERKS9_@Base 2.4.1
 _ZNSt6vectorIPN4CVC39ExprValueESaIS2_EE13_M_insert_auxEN9__gnu_cxx17__normal_iteratorIPS2_S4_EERKS2_@Base 2.4.1
 _ZNSt6vectorIPN7MiniSat6ClauseESaIS2_EE13_M_insert_auxEN9__gnu_cxx17__normal_iteratorIPS2_S4_EERKS2_@Base 2.4.1
 _ZNSt6vectorIPN7MiniSat6ClauseESaIS2_EE14_M_fill_insertEN9__gnu_cxx17__normal_iteratorIPS2_S4_EEmRKS2_@Base 2.4.1
 _ZNSt6vectorIPN7MiniSat6ClauseESaIS2_EE8_M_eraseEN9__gnu_cxx17__normal_iteratorIPS2_S4_EES8_@Base 2.4.1
 _ZNSt6vectorIPN7MiniSat6ClauseESaIS2_EEaSERKS4_@Base 2.4.1
 _ZNSt6vectorIPSt5dequeIN4CVC311ClauseOwnerESaIS2_EESaIS5_EE13_M_insert_auxEN9__gnu_cxx17__normal_iteratorIPS5_S7_EERKS5_@Base 2.4.1
 _ZNSt6vectorIPcSaIS0_EE13_M_insert_auxEN9__gnu_cxx17__normal_iteratorIPS0_S2_EERKS0_@Base 2.4.1
 _ZNSt6vectorIPcSaIS0_EED1Ev@Base 2.4.1
 _ZNSt6vectorIPcSaIS0_EED2Ev@Base 2.4.1
 _ZNSt6vectorIS_IN3SAT3LitESaIS1_EESaIS3_EE13_M_insert_auxEN9__gnu_cxx17__normal_iteratorIPS3_S5_EERKS3_@Base 2.4.1
 _ZNSt6vectorIS_IN4CVC34ExprESaIS1_EESaIS3_EE13_M_insert_auxEN9__gnu_cxx17__normal_iteratorIPS3_S5_EERKS3_@Base 2.4.1
 _ZNSt6vectorIS_IN4CVC34ExprESaIS1_EESaIS3_EE14_M_fill_insertEN9__gnu_cxx17__normal_iteratorIPS3_S5_EEmRKS3_@Base 2.4.1
 _ZNSt6vectorIS_IN4CVC34ExprESaIS1_EESaIS3_EEC1ERKS5_@Base 2.4.1
 _ZNSt6vectorIS_IN4CVC34ExprESaIS1_EESaIS3_EEC2ERKS5_@Base 2.4.1
 _ZNSt6vectorIS_IN4CVC34ExprESaIS1_EESaIS3_EED1Ev@Base 2.4.1
 _ZNSt6vectorIS_IN4CVC34ExprESaIS1_EESaIS3_EED2Ev@Base 2.4.1
 _ZNSt6vectorIS_IN4CVC34ExprESaIS1_EESaIS3_EEaSERKS5_@Base 2.4.1
 _ZNSt6vectorIS_IPN7MiniSat6ClauseESaIS2_EESaIS4_EE14_M_fill_insertEN9__gnu_cxx17__normal_iteratorIPS4_S6_EEmRKS4_@Base 2.4.1
 _ZNSt6vectorIS_IPN7MiniSat6ClauseESaIS2_EESaIS4_EED1Ev@Base 2.4.1
 _ZNSt6vectorIS_IPN7MiniSat6ClauseESaIS2_EESaIS4_EED2Ev@Base 2.4.1
 _ZNSt6vectorIS_IS_IN4CVC34ExprESaIS1_EESaIS3_EESaIS5_EE13_M_insert_auxEN9__gnu_cxx17__normal_iteratorIPS5_S7_EERKS5_@Base 2.4.1
 _ZNSt6vectorIS_IS_IN4CVC34ExprESaIS1_EESaIS3_EESaIS5_EEC1EmRKS5_RKS6_@Base 2.4.1
 _ZNSt6vectorIS_IS_IN4CVC34ExprESaIS1_EESaIS3_EESaIS5_EEC2EmRKS5_RKS6_@Base 2.4.1
 _ZNSt6vectorIS_IS_IN4CVC34ExprESaIS1_EESaIS3_EESaIS5_EED1Ev@Base 2.4.1
 _ZNSt6vectorIS_IS_IN4CVC34ExprESaIS1_EESaIS3_EESaIS5_EED2Ev@Base 2.4.1
 _ZNSt6vectorIS_IS_ISsSaISsEESaIS1_EESaIS3_EE13_M_insert_auxEN9__gnu_cxx17__normal_iteratorIPS3_S5_EERKS3_@Base 2.4.1
 _ZNSt6vectorIS_IS_ISsSaISsEESaIS1_EESaIS3_EEC1EmRKS3_RKS4_@Base 2.4.1
 _ZNSt6vectorIS_IS_ISsSaISsEESaIS1_EESaIS3_EEC2EmRKS3_RKS4_@Base 2.4.1
 _ZNSt6vectorIS_IS_ISsSaISsEESaIS1_EESaIS3_EED1Ev@Base 2.4.1
 _ZNSt6vectorIS_IS_ISsSaISsEESaIS1_EESaIS3_EED2Ev@Base 2.4.1
 _ZNSt6vectorIS_ISsSaISsEESaIS1_EE13_M_insert_auxEN9__gnu_cxx17__normal_iteratorIPS1_S3_EERKS1_@Base 2.4.1
 _ZNSt6vectorIS_ISsSaISsEESaIS1_EE14_M_fill_insertEN9__gnu_cxx17__normal_iteratorIPS1_S3_EEmRKS1_@Base 2.4.1
 _ZNSt6vectorIS_ISsSaISsEESaIS1_EEC1ERKS3_@Base 2.4.1
 _ZNSt6vectorIS_ISsSaISsEESaIS1_EEC1EmRKS1_RKS2_@Base 2.4.1
 _ZNSt6vectorIS_ISsSaISsEESaIS1_EEC2ERKS3_@Base 2.4.1
 _ZNSt6vectorIS_ISsSaISsEESaIS1_EEC2EmRKS1_RKS2_@Base 2.4.1
 _ZNSt6vectorIS_ISsSaISsEESaIS1_EED1Ev@Base 2.4.1
 _ZNSt6vectorIS_ISsSaISsEESaIS1_EED2Ev@Base 2.4.1
 _ZNSt6vectorIS_ISsSaISsEESaIS1_EEaSERKS3_@Base 2.4.1
 _ZNSt6vectorIS_ImSaImEESaIS1_EE13_M_insert_auxEN9__gnu_cxx17__normal_iteratorIPS1_S3_EERKS1_@Base 2.4.1
 _ZNSt6vectorIS_ImSaImEESaIS1_EE9push_backERKS1_@Base 2.4.1
 _ZNSt6vectorIS_ImSaImEESaIS1_EED1Ev@Base 2.4.1
 _ZNSt6vectorIS_ImSaImEESaIS1_EED2Ev@Base 2.4.1
 _ZNSt6vectorIS_ImSaImEESaIS1_EEaSERKS3_@Base 2.4.1
 _ZNSt6vectorISsSaISsEE13_M_insert_auxEN9__gnu_cxx17__normal_iteratorIPSsS1_EERKSs@Base 2.4.1
 _ZNSt6vectorISsSaISsEE9push_backERKSs@Base 2.4.1
 _ZNSt6vectorISsSaISsEEC1ERKS1_@Base 2.4.1
 _ZNSt6vectorISsSaISsEEC2ERKS1_@Base 2.4.1
 _ZNSt6vectorISsSaISsEED1Ev@Base 2.4.1
 _ZNSt6vectorISsSaISsEED2Ev@Base 2.4.1
 _ZNSt6vectorISsSaISsEEaSERKS1_@Base 2.4.1
 _ZNSt6vectorISt23_Rb_tree_const_iteratorIN4CVC39SearchSat15LitPriorityPairEESaIS4_EE13_M_insert_auxEN9__gnu_cxx17__normal_iteratorIPS4_S6_EERKS4_@Base 2.4.1
 _ZNSt6vectorISt3setIN4CVC34ExprESt4lessIS2_ESaIS2_EESaIS6_EED1Ev@Base 2.4.1
 _ZNSt6vectorISt3setIN4CVC34ExprESt4lessIS2_ESaIS2_EESaIS6_EED2Ev@Base 2.4.1
 _ZNSt6vectorISt4pairIN4CVC34ExprES2_ESaIS3_EE13_M_insert_auxEN9__gnu_cxx17__normal_iteratorIPS3_S5_EERKS3_@Base 2.4.1
 _ZNSt6vectorISt4pairIN4CVC34ExprES2_ESaIS3_EED1Ev@Base 2.4.1
 _ZNSt6vectorISt4pairIN4CVC34ExprES2_ESaIS3_EED2Ev@Base 2.4.1
 _ZNSt6vectorISt4pairIN4CVC36ClauseEiESaIS3_EE13_M_insert_auxEN9__gnu_cxx17__normal_iteratorIPS3_S5_EERKS3_@Base 2.4.1
 _ZNSt6vectorISt4pairIN4CVC36ClauseEiESaIS3_EE9push_backERKS3_@Base 2.4.1
 _ZNSt6vectorISt4pairIN4CVC36ClauseEiESaIS3_EED1Ev@Base 2.4.1
 _ZNSt6vectorISt4pairIN4CVC36ClauseEiESaIS3_EED2Ev@Base 2.4.1
 _ZNSt6vectorISt4pairIN4CVC37TheoremEiESaIS3_EE13_M_insert_auxEN9__gnu_cxx17__normal_iteratorIPS3_S5_EERKS3_@Base 2.4.1
 _ZNSt6vectorISt4pairIN4CVC37TheoremEiESaIS3_EED1Ev@Base 2.4.1
 _ZNSt6vectorISt4pairIN4CVC37TheoremEiESaIS3_EED2Ev@Base 2.4.1
 _ZNSt6vectorISt4pairIN7MiniSat3LitEiESaIS3_EE13_M_insert_auxEN9__gnu_cxx17__normal_iteratorIPS3_S5_EERKS3_@Base 2.4.1
 _ZNSt6vectorISt4pairISsN4CVC34ExprEESaIS3_EE13_M_insert_auxEN9__gnu_cxx17__normal_iteratorIPS3_S5_EERKS3_@Base 2.4.1
 _ZNSt6vectorISt4pairISsN4CVC34ExprEESaIS3_EED1Ev@Base 2.4.1
 _ZNSt6vectorISt4pairISsN4CVC34ExprEESaIS3_EED2Ev@Base 2.4.1
 _ZNSt6vectorISt4pairISsN4CVC34TypeEESaIS3_EE13_M_insert_auxEN9__gnu_cxx17__normal_iteratorIPS3_S5_EERKS3_@Base 2.4.1
 _ZNSt6vectorISt4pairISsN4CVC34TypeEESaIS3_EED1Ev@Base 2.4.1
 _ZNSt6vectorISt4pairISsN4CVC34TypeEESaIS3_EED2Ev@Base 2.4.1
 _ZNSt6vectorISt4pairISsbESaIS1_EE13_M_insert_auxEN9__gnu_cxx17__normal_iteratorIPS1_S3_EERKS1_@Base 2.4.1
 _ZNSt6vectorISt4pairISsbESaIS1_EEC1ERKS3_@Base 2.4.1
 _ZNSt6vectorISt4pairISsbESaIS1_EEC2ERKS3_@Base 2.4.1
 _ZNSt6vectorISt4pairISsbESaIS1_EED1Ev@Base 2.4.1
 _ZNSt6vectorISt4pairISsbESaIS1_EED2Ev@Base 2.4.1
 _ZNSt6vectorISt4pairISsbESaIS1_EEaSERKS3_@Base 2.4.1
 _ZNSt6vectorIaSaIaEE14_M_fill_insertEN9__gnu_cxx17__normal_iteratorIPaS1_EEmRKa@Base 2.4.1
 _ZNSt6vectorIbSaIbEE13_M_insert_auxESt13_Bit_iteratorb@Base 2.4.1
 _ZNSt6vectorIcSaIcEE14_M_fill_insertEN9__gnu_cxx17__normal_iteratorIPcS1_EEmRKc@Base 2.4.1
 _ZNSt6vectorIdSaIdEE14_M_fill_insertEN9__gnu_cxx17__normal_iteratorIPdS1_EEmRKd@Base 2.4.1
 _ZNSt6vectorIdSaIdEEaSERKS1_@Base 2.4.1
 _ZNSt6vectorIiSaIiEE13_M_insert_auxEN9__gnu_cxx17__normal_iteratorIPiS1_EERKi@Base 2.4.1
 _ZNSt6vectorIiSaIiEE14_M_fill_insertEN9__gnu_cxx17__normal_iteratorIPiS1_EEmRKi@Base 2.4.1
 _ZNSt6vectorIiSaIiEE9push_backERKi@Base 2.4.1
 _ZNSt6vectorIjSaIjEE13_M_insert_auxEN9__gnu_cxx17__normal_iteratorIPjS1_EERKj@Base 2.4.1
 _ZNSt6vectorIjSaIjEE9push_backERKj@Base 2.4.1
 _ZNSt6vectorImSaImEE13_M_insert_auxEN9__gnu_cxx17__normal_iteratorIPmS1_EERKm@Base 2.4.1
 _ZNSt6vectorImSaImEE14_M_fill_insertEN9__gnu_cxx17__normal_iteratorIPmS1_EEmRKm@Base 2.4.1
 _ZNSt6vectorImSaImEE8_M_eraseEN9__gnu_cxx17__normal_iteratorIPmS1_EE@Base 2.4.1
 _ZNSt6vectorImSaImEEC1ERKS1_@Base 2.4.1
 _ZNSt6vectorImSaImEEC2ERKS1_@Base 2.4.1
 _ZNSt6vectorImSaImEEaSERKS1_@Base 2.4.1
 _ZNSt8_Rb_treeIN4CVC314TheoryArithNew13ExprBoundInfoES2_St9_IdentityIS2_ESt4lessIS2_ESaIS2_EE10_M_insert_EPSt18_Rb_tree_node_baseSA_RKS2_@Base 2.4.1
 _ZNSt8_Rb_treeIN4CVC314TheoryArithNew13ExprBoundInfoES2_St9_IdentityIS2_ESt4lessIS2_ESaIS2_EE8_M_eraseEPSt13_Rb_tree_nodeIS2_E@Base 2.4.1
 _ZNSt8_Rb_treeIN4CVC33VCL13UserAssertionES2_St9_IdentityIS2_ESt4lessIS2_ESaIS2_EE16_M_insert_uniqueERKS2_@Base 2.4.1
 _ZNSt8_Rb_treeIN4CVC33VCL13UserAssertionES2_St9_IdentityIS2_ESt4lessIS2_ESaIS2_EE8_M_eraseEPSt13_Rb_tree_nodeIS2_E@Base 2.4.1
 _ZNSt8_Rb_treeIN4CVC34ExprES1_St9_IdentityIS1_ESt4lessIS1_ESaIS1_EE10_M_insert_EPSt18_Rb_tree_node_baseS9_RKS1_@Base 2.4.1
 _ZNSt8_Rb_treeIN4CVC34ExprES1_St9_IdentityIS1_ESt4lessIS1_ESaIS1_EE11equal_rangeERKS1_@Base 2.4.1
 _ZNSt8_Rb_treeIN4CVC34ExprES1_St9_IdentityIS1_ESt4lessIS1_ESaIS1_EE15_M_insert_equalERKS1_@Base 2.4.1
 _ZNSt8_Rb_treeIN4CVC34ExprES1_St9_IdentityIS1_ESt4lessIS1_ESaIS1_EE16_M_insert_uniqueERKS1_@Base 2.4.1
 _ZNSt8_Rb_treeIN4CVC34ExprES1_St9_IdentityIS1_ESt4lessIS1_ESaIS1_EE23_M_get_insert_equal_posERKS1_@Base 2.4.1
 _ZNSt8_Rb_treeIN4CVC34ExprES1_St9_IdentityIS1_ESt4lessIS1_ESaIS1_EE24_M_get_insert_unique_posERKS1_@Base 2.4.1
 _ZNSt8_Rb_treeIN4CVC34ExprES1_St9_IdentityIS1_ESt4lessIS1_ESaIS1_EE28_M_get_insert_hint_equal_posESt23_Rb_tree_const_iteratorIS1_ERKS1_@Base 2.4.1
 _ZNSt8_Rb_treeIN4CVC34ExprES1_St9_IdentityIS1_ESt4lessIS1_ESaIS1_EE29_M_get_insert_hint_unique_posESt23_Rb_tree_const_iteratorIS1_ERKS1_@Base 2.4.1
 _ZNSt8_Rb_treeIN4CVC34ExprES1_St9_IdentityIS1_ESt4lessIS1_ESaIS1_EE4findERKS1_@Base 2.4.1
 _ZNSt8_Rb_treeIN4CVC34ExprES1_St9_IdentityIS1_ESt4lessIS1_ESaIS1_EE4swapERS7_@Base 2.4.1
 _ZNSt8_Rb_treeIN4CVC34ExprES1_St9_IdentityIS1_ESt4lessIS1_ESaIS1_EE5eraseERKS1_@Base 2.4.1
 _ZNSt8_Rb_treeIN4CVC34ExprES1_St9_IdentityIS1_ESt4lessIS1_ESaIS1_EE7_M_copyEPKSt13_Rb_tree_nodeIS1_EPS9_@Base 2.4.1
 _ZNSt8_Rb_treeIN4CVC34ExprES1_St9_IdentityIS1_ESt4lessIS1_ESaIS1_EE8_M_eraseEPSt13_Rb_tree_nodeIS1_E@Base 2.4.1
 _ZNSt8_Rb_treeIN4CVC34ExprES1_St9_IdentityIS1_ESt4lessIS1_ESaIS1_EEC1ERKS7_@Base 2.4.1
 _ZNSt8_Rb_treeIN4CVC34ExprES1_St9_IdentityIS1_ESt4lessIS1_ESaIS1_EEC2ERKS7_@Base 2.4.1
 _ZNSt8_Rb_treeIN4CVC34ExprESt4pairIKS1_N4Hash8hash_setIS1_NS4_4hashIS1_EESt8equal_toIS1_EEEESt10_Select1stISB_ESt4lessIS1_ESaISB_EE10_M_insert_EPSt18_Rb_tree_node_baseSJ_RKSB_@Base 2.4.1
 _ZNSt8_Rb_treeIN4CVC34ExprESt4pairIKS1_N4Hash8hash_setIS1_NS4_4hashIS1_EESt8equal_toIS1_EEEESt10_Select1stISB_ESt4lessIS1_ESaISB_EE24_M_get_insert_unique_posERS3_@Base 2.4.1
 _ZNSt8_Rb_treeIN4CVC34ExprESt4pairIKS1_N4Hash8hash_setIS1_NS4_4hashIS1_EESt8equal_toIS1_EEEESt10_Select1stISB_ESt4lessIS1_ESaISB_EE29_M_get_insert_hint_unique_posESt23_Rb_tree_const_iteratorISB_ERS3_@Base 2.4.1
 _ZNSt8_Rb_treeIN4CVC34ExprESt4pairIKS1_N4Hash8hash_setIS1_NS4_4hashIS1_EESt8equal_toIS1_EEEESt10_Select1stISB_ESt4lessIS1_ESaISB_EE8_M_eraseEPSt13_Rb_tree_nodeISB_E@Base 2.4.1
 _ZNSt8_Rb_treeIN4CVC34ExprESt4pairIKS1_NS0_11TheoryQuant13multTrigsInfoEESt10_Select1stIS6_ESt4lessIS1_ESaIS6_EE10_M_insert_EPSt18_Rb_tree_node_baseSE_RKS6_@Base 2.4.1
 _ZNSt8_Rb_treeIN4CVC34ExprESt4pairIKS1_NS0_11TheoryQuant13multTrigsInfoEESt10_Select1stIS6_ESt4lessIS1_ESaIS6_EE24_M_get_insert_unique_posERS3_@Base 2.4.1
 _ZNSt8_Rb_treeIN4CVC34ExprESt4pairIKS1_NS0_11TheoryQuant13multTrigsInfoEESt10_Select1stIS6_ESt4lessIS1_ESaIS6_EE29_M_get_insert_hint_unique_posESt23_Rb_tree_const_iteratorIS6_ERS3_@Base 2.4.1
 _ZNSt8_Rb_treeIN4CVC34ExprESt4pairIKS1_NS0_11TheoryQuant13multTrigsInfoEESt10_Select1stIS6_ESt4lessIS1_ESaIS6_EE8_M_eraseEPSt13_Rb_tree_nodeIS6_E@Base 2.4.1
 _ZNSt8_Rb_treeIN4CVC34ExprESt4pairIKS1_NS0_2OpEESt10_Select1stIS5_ESt4lessIS1_ESaIS5_EE17_M_insert_unique_ESt23_Rb_tree_const_iteratorIS5_ERKS5_@Base 2.4.1
 _ZNSt8_Rb_treeIN4CVC34ExprESt4pairIKS1_NS0_2OpEESt10_Select1stIS5_ESt4lessIS1_ESaIS5_EE24_M_get_insert_unique_posERS3_@Base 2.4.1
 _ZNSt8_Rb_treeIN4CVC34ExprESt4pairIKS1_NS0_2OpEESt10_Select1stIS5_ESt4lessIS1_ESaIS5_EE29_M_get_insert_hint_unique_posESt23_Rb_tree_const_iteratorIS5_ERS3_@Base 2.4.1
 _ZNSt8_Rb_treeIN4CVC34ExprESt4pairIKS1_NS0_2OpEESt10_Select1stIS5_ESt4lessIS1_ESaIS5_EE8_M_eraseEPSt13_Rb_tree_nodeIS5_E@Base 2.4.1
 _ZNSt8_Rb_treeIN4CVC34ExprESt4pairIKS1_NS0_4TypeEESt10_Select1stIS5_ESt4lessIS1_ESaIS5_EE16_M_insert_uniqueERKS5_@Base 2.4.1
 _ZNSt8_Rb_treeIN4CVC34ExprESt4pairIKS1_NS0_4TypeEESt10_Select1stIS5_ESt4lessIS1_ESaIS5_EE8_M_eraseEPSt13_Rb_tree_nodeIS5_E@Base 2.4.1
 _ZNSt8_Rb_treeIN4CVC34ExprESt4pairIKS1_NS0_7ExprMapIjEEESt10_Select1stIS6_ESt4lessIS1_ESaIS6_EE10_M_insert_EPSt18_Rb_tree_node_baseSE_RKS6_@Base 2.4.1
 _ZNSt8_Rb_treeIN4CVC34ExprESt4pairIKS1_NS0_7ExprMapIjEEESt10_Select1stIS6_ESt4lessIS1_ESaIS6_EE24_M_get_insert_unique_posERS3_@Base 2.4.1
 _ZNSt8_Rb_treeIN4CVC34ExprESt4pairIKS1_NS0_7ExprMapIjEEESt10_Select1stIS6_ESt4lessIS1_ESaIS6_EE29_M_get_insert_hint_unique_posESt23_Rb_tree_const_iteratorIS6_ERS3_@Base 2.4.1
 _ZNSt8_Rb_treeIN4CVC34ExprESt4pairIKS1_NS0_7ExprMapIjEEESt10_Select1stIS6_ESt4lessIS1_ESaIS6_EE8_M_eraseEPSt13_Rb_tree_nodeIS6_E@Base 2.4.1
 _ZNSt8_Rb_treeIN4CVC34ExprESt4pairIKS1_NS0_7TheoremEESt10_Select1stIS5_ESt4lessIS1_ESaIS5_EE10_M_insert_EPSt18_Rb_tree_node_baseSD_RKS5_@Base 2.4.1
 _ZNSt8_Rb_treeIN4CVC34ExprESt4pairIKS1_NS0_7TheoremEESt10_Select1stIS5_ESt4lessIS1_ESaIS5_EE24_M_get_insert_unique_posERS3_@Base 2.4.1
 _ZNSt8_Rb_treeIN4CVC34ExprESt4pairIKS1_NS0_7TheoremEESt10_Select1stIS5_ESt4lessIS1_ESaIS5_EE29_M_get_insert_hint_unique_posESt23_Rb_tree_const_iteratorIS5_ERS3_@Base 2.4.1
 _ZNSt8_Rb_treeIN4CVC34ExprESt4pairIKS1_NS0_7TheoremEESt10_Select1stIS5_ESt4lessIS1_ESaIS5_EE4findERS3_@Base 2.4.1
 _ZNSt8_Rb_treeIN4CVC34ExprESt4pairIKS1_NS0_7TheoremEESt10_Select1stIS5_ESt4lessIS1_ESaIS5_EE8_M_eraseEPSt13_Rb_tree_nodeIS5_E@Base 2.4.1
 _ZNSt8_Rb_treeIN4CVC34ExprESt4pairIKS1_NS0_8PolarityEESt10_Select1stIS5_ESt4lessIS1_ESaIS5_EE17_M_insert_unique_ESt23_Rb_tree_const_iteratorIS5_ERKS5_@Base 2.4.1
 _ZNSt8_Rb_treeIN4CVC34ExprESt4pairIKS1_NS0_8PolarityEESt10_Select1stIS5_ESt4lessIS1_ESaIS5_EE24_M_get_insert_unique_posERS3_@Base 2.4.1
 _ZNSt8_Rb_treeIN4CVC34ExprESt4pairIKS1_NS0_8PolarityEESt10_Select1stIS5_ESt4lessIS1_ESaIS5_EE29_M_get_insert_hint_unique_posESt23_Rb_tree_const_iteratorIS5_ERS3_@Base 2.4.1
 _ZNSt8_Rb_treeIN4CVC34ExprESt4pairIKS1_NS0_8PolarityEESt10_Select1stIS5_ESt4lessIS1_ESaIS5_EE8_M_eraseEPSt13_Rb_tree_nodeIS5_E@Base 2.4.1
 _ZNSt8_Rb_treeIN4CVC34ExprESt4pairIKS1_NS0_8RationalEESt10_Select1stIS5_E12MonomialLessSaIS5_EE10_M_insert_EPSt18_Rb_tree_node_baseSC_RKS5_@Base 2.4.1
 _ZNSt8_Rb_treeIN4CVC34ExprESt4pairIKS1_NS0_8RationalEESt10_Select1stIS5_E12MonomialLessSaIS5_EE24_M_get_insert_unique_posERS3_@Base 2.4.1
 _ZNSt8_Rb_treeIN4CVC34ExprESt4pairIKS1_NS0_8RationalEESt10_Select1stIS5_E12MonomialLessSaIS5_EE29_M_get_insert_hint_unique_posESt23_Rb_tree_const_iteratorIS5_ERS3_@Base 2.4.1
 _ZNSt8_Rb_treeIN4CVC34ExprESt4pairIKS1_NS0_8RationalEESt10_Select1stIS5_E12MonomialLessSaIS5_EE4findERS3_@Base 2.4.1
 _ZNSt8_Rb_treeIN4CVC34ExprESt4pairIKS1_NS0_8RationalEESt10_Select1stIS5_E12MonomialLessSaIS5_EE8_M_eraseEPSt13_Rb_tree_nodeIS5_E@Base 2.4.1
 _ZNSt8_Rb_treeIN4CVC34ExprESt4pairIKS1_NS0_8RationalEESt10_Select1stIS5_ESt4lessIS1_ESaIS5_EE10_M_insert_EPSt18_Rb_tree_node_baseSD_RKS5_@Base 2.4.1
 _ZNSt8_Rb_treeIN4CVC34ExprESt4pairIKS1_NS0_8RationalEESt10_Select1stIS5_ESt4lessIS1_ESaIS5_EE24_M_get_insert_unique_posERS3_@Base 2.4.1
 _ZNSt8_Rb_treeIN4CVC34ExprESt4pairIKS1_NS0_8RationalEESt10_Select1stIS5_ESt4lessIS1_ESaIS5_EE29_M_get_insert_hint_unique_posESt23_Rb_tree_const_iteratorIS5_ERS3_@Base 2.4.1
 _ZNSt8_Rb_treeIN4CVC34ExprESt4pairIKS1_NS0_8RationalEESt10_Select1stIS5_ESt4lessIS1_ESaIS5_EE4findERS3_@Base 2.4.1
 _ZNSt8_Rb_treeIN4CVC34ExprESt4pairIKS1_NS0_8RationalEESt10_Select1stIS5_ESt4lessIS1_ESaIS5_EE8_M_eraseEPSt13_Rb_tree_nodeIS5_E@Base 2.4.1
 _ZNSt8_Rb_treeIN4CVC34ExprESt4pairIKS1_P7TReturnESt10_Select1stIS6_ESt4lessIS1_ESaIS6_EE17_M_insert_unique_ESt23_Rb_tree_const_iteratorIS6_ERKS6_@Base 2.4.1
 _ZNSt8_Rb_treeIN4CVC34ExprESt4pairIKS1_P7TReturnESt10_Select1stIS6_ESt4lessIS1_ESaIS6_EE24_M_get_insert_unique_posERS3_@Base 2.4.1
 _ZNSt8_Rb_treeIN4CVC34ExprESt4pairIKS1_P7TReturnESt10_Select1stIS6_ESt4lessIS1_ESaIS6_EE29_M_get_insert_hint_unique_posESt23_Rb_tree_const_iteratorIS6_ERS3_@Base 2.4.1
 _ZNSt8_Rb_treeIN4CVC34ExprESt4pairIKS1_P7TReturnESt10_Select1stIS6_ESt4lessIS1_ESaIS6_EE4findERS3_@Base 2.4.1
 _ZNSt8_Rb_treeIN4CVC34ExprESt4pairIKS1_P7TReturnESt10_Select1stIS6_ESt4lessIS1_ESaIS6_EE8_M_eraseEPSt13_Rb_tree_nodeIS6_E@Base 2.4.1
 _ZNSt8_Rb_treeIN4CVC34ExprESt4pairIKS1_PN4Hash8hash_mapIS1_NS0_7TheoremENS4_4hashIS1_EESt8equal_toIS1_EEEESt10_Select1stISD_ESt4lessIS1_ESaISD_EE17_M_insert_unique_ESt23_Rb_tree_const_iteratorISD_ERKSD_@Base 2.4.1
 _ZNSt8_Rb_treeIN4CVC34ExprESt4pairIKS1_PN4Hash8hash_mapIS1_NS0_7TheoremENS4_4hashIS1_EESt8equal_toIS1_EEEESt10_Select1stISD_ESt4lessIS1_ESaISD_EE24_M_get_insert_unique_posERS3_@Base 2.4.1
 _ZNSt8_Rb_treeIN4CVC34ExprESt4pairIKS1_PN4Hash8hash_mapIS1_NS0_7TheoremENS4_4hashIS1_EESt8equal_toIS1_EEEESt10_Select1stISD_ESt4lessIS1_ESaISD_EE29_M_get_insert_hint_unique_posESt23_Rb_tree_const_iteratorISD_ERS3_@Base 2.4.1
 _ZNSt8_Rb_treeIN4CVC34ExprESt4pairIKS1_PN4Hash8hash_mapIS1_NS0_7TheoremENS4_4hashIS1_EESt8equal_toIS1_EEEESt10_Select1stISD_ESt4lessIS1_ESaISD_EE8_M_eraseEPSt13_Rb_tree_nodeISD_E@Base 2.4.1
 _ZNSt8_Rb_treeIN4CVC34ExprESt4pairIKS1_PN4Hash8hash_mapIS1_bNS4_4hashIS1_EESt8equal_toIS1_EEEESt10_Select1stISC_ESt4lessIS1_ESaISC_EE17_M_insert_unique_ESt23_Rb_tree_const_iteratorISC_ERKSC_@Base 2.4.1
 _ZNSt8_Rb_treeIN4CVC34ExprESt4pairIKS1_PN4Hash8hash_mapIS1_bNS4_4hashIS1_EESt8equal_toIS1_EEEESt10_Select1stISC_ESt4lessIS1_ESaISC_EE24_M_get_insert_unique_posERS3_@Base 2.4.1
 _ZNSt8_Rb_treeIN4CVC34ExprESt4pairIKS1_PN4Hash8hash_mapIS1_bNS4_4hashIS1_EESt8equal_toIS1_EEEESt10_Select1stISC_ESt4lessIS1_ESaISC_EE29_M_get_insert_hint_unique_posESt23_Rb_tree_const_iteratorISC_ERS3_@Base 2.4.1
 _ZNSt8_Rb_treeIN4CVC34ExprESt4pairIKS1_PN4Hash8hash_mapIS1_bNS4_4hashIS1_EESt8equal_toIS1_EEEESt10_Select1stISC_ESt4lessIS1_ESaISC_EE4findERS3_@Base 2.4.1
 _ZNSt8_Rb_treeIN4CVC34ExprESt4pairIKS1_PN4Hash8hash_mapIS1_bNS4_4hashIS1_EESt8equal_toIS1_EEEESt10_Select1stISC_ESt4lessIS1_ESaISC_EE8_M_eraseEPSt13_Rb_tree_nodeISC_E@Base 2.4.1
 _ZNSt8_Rb_treeIN4CVC34ExprESt4pairIKS1_PNS0_3CDOImEEESt10_Select1stIS7_ESt4lessIS1_ESaIS7_EE8_M_eraseEPSt13_Rb_tree_nodeIS7_E@Base 2.4.1
 _ZNSt8_Rb_treeIN4CVC34ExprESt4pairIKS1_PNS0_5CDMapIS1_PNS0_6CDListINS0_7dynTrigEEEN4Hash4hashIS1_EEEEESt10_Select1stISE_ESt4lessIS1_ESaISE_EE17_M_insert_unique_ESt23_Rb_tree_const_iteratorISE_ERKSE_@Base 2.4.1
 _ZNSt8_Rb_treeIN4CVC34ExprESt4pairIKS1_PNS0_5CDMapIS1_PNS0_6CDListINS0_7dynTrigEEEN4Hash4hashIS1_EEEEESt10_Select1stISE_ESt4lessIS1_ESaISE_EE24_M_get_insert_unique_posERS3_@Base 2.4.1
 _ZNSt8_Rb_treeIN4CVC34ExprESt4pairIKS1_PNS0_5CDMapIS1_PNS0_6CDListINS0_7dynTrigEEEN4Hash4hashIS1_EEEEESt10_Select1stISE_ESt4lessIS1_ESaISE_EE29_M_get_insert_hint_unique_posESt23_Rb_tree_const_iteratorISE_ERS3_@Base 2.4.1
 _ZNSt8_Rb_treeIN4CVC34ExprESt4pairIKS1_PNS0_5CDMapIS1_PNS0_6CDListINS0_7dynTrigEEEN4Hash4hashIS1_EEEEESt10_Select1stISE_ESt4lessIS1_ESaISE_EE4findERS3_@Base 2.4.1
 _ZNSt8_Rb_treeIN4CVC34ExprESt4pairIKS1_PNS0_5CDMapIS1_PNS0_6CDListINS0_7dynTrigEEEN4Hash4hashIS1_EEEEESt10_Select1stISE_ESt4lessIS1_ESaISE_EE8_M_eraseEPSt13_Rb_tree_nodeISE_E@Base 2.4.1
 _ZNSt8_Rb_treeIN4CVC34ExprESt4pairIKS1_PNS0_5CDMapIS1_bN4Hash4hashIS1_EEEEESt10_Select1stISA_ESt4lessIS1_ESaISA_EE17_M_insert_unique_ESt23_Rb_tree_const_iteratorISA_ERKSA_@Base 2.4.1
 _ZNSt8_Rb_treeIN4CVC34ExprESt4pairIKS1_PNS0_5CDMapIS1_bN4Hash4hashIS1_EEEEESt10_Select1stISA_ESt4lessIS1_ESaISA_EE24_M_get_insert_unique_posERS3_@Base 2.4.1
 _ZNSt8_Rb_treeIN4CVC34ExprESt4pairIKS1_PNS0_5CDMapIS1_bN4Hash4hashIS1_EEEEESt10_Select1stISA_ESt4lessIS1_ESaISA_EE29_M_get_insert_hint_unique_posESt23_Rb_tree_const_iteratorISA_ERS3_@Base 2.4.1
 _ZNSt8_Rb_treeIN4CVC34ExprESt4pairIKS1_PNS0_5CDMapIS1_bN4Hash4hashIS1_EEEEESt10_Select1stISA_ESt4lessIS1_ESaISA_EE4findERS3_@Base 2.4.1
 _ZNSt8_Rb_treeIN4CVC34ExprESt4pairIKS1_PNS0_5CDMapIS1_bN4Hash4hashIS1_EEEEESt10_Select1stISA_ESt4lessIS1_ESaISA_EE8_M_eraseEPSt13_Rb_tree_nodeISA_E@Base 2.4.1
 _ZNSt8_Rb_treeIN4CVC34ExprESt4pairIKS1_PNS0_6CDListINS0_12TheoryArith34IneqEEEESt10_Select1stIS9_ESt4lessIS1_ESaIS9_EE17_M_insert_unique_ESt23_Rb_tree_const_iteratorIS9_ERKS9_@Base 2.4.1
 _ZNSt8_Rb_treeIN4CVC34ExprESt4pairIKS1_PNS0_6CDListINS0_12TheoryArith34IneqEEEESt10_Select1stIS9_ESt4lessIS1_ESaIS9_EE24_M_get_insert_unique_posERS3_@Base 2.4.1
 _ZNSt8_Rb_treeIN4CVC34ExprESt4pairIKS1_PNS0_6CDListINS0_12TheoryArith34IneqEEEESt10_Select1stIS9_ESt4lessIS1_ESaIS9_EE29_M_get_insert_hint_unique_posESt23_Rb_tree_const_iteratorIS9_ERS3_@Base 2.4.1
 _ZNSt8_Rb_treeIN4CVC34ExprESt4pairIKS1_PNS0_6CDListINS0_12TheoryArith34IneqEEEESt10_Select1stIS9_ESt4lessIS1_ESaIS9_EE4findERS3_@Base 2.4.1
 _ZNSt8_Rb_treeIN4CVC34ExprESt4pairIKS1_PNS0_6CDListINS0_12TheoryArith34IneqEEEESt10_Select1stIS9_ESt4lessIS1_ESaIS9_EE8_M_eraseEPSt13_Rb_tree_nodeIS9_E@Base 2.4.1
 _ZNSt8_Rb_treeIN4CVC34ExprESt4pairIKS1_PNS0_6CDListINS0_14TheoryArithNew4IneqEEEESt10_Select1stIS9_ESt4lessIS1_ESaIS9_EE17_M_insert_unique_ESt23_Rb_tree_const_iteratorIS9_ERKS9_@Base 2.4.1
 _ZNSt8_Rb_treeIN4CVC34ExprESt4pairIKS1_PNS0_6CDListINS0_14TheoryArithNew4IneqEEEESt10_Select1stIS9_ESt4lessIS1_ESaIS9_EE24_M_get_insert_unique_posERS3_@Base 2.4.1
 _ZNSt8_Rb_treeIN4CVC34ExprESt4pairIKS1_PNS0_6CDListINS0_14TheoryArithNew4IneqEEEESt10_Select1stIS9_ESt4lessIS1_ESaIS9_EE29_M_get_insert_hint_unique_posESt23_Rb_tree_const_iteratorIS9_ERS3_@Base 2.4.1
 _ZNSt8_Rb_treeIN4CVC34ExprESt4pairIKS1_PNS0_6CDListINS0_14TheoryArithNew4IneqEEEESt10_Select1stIS9_ESt4lessIS1_ESaIS9_EE4findERS3_@Base 2.4.1
 _ZNSt8_Rb_treeIN4CVC34ExprESt4pairIKS1_PNS0_6CDListINS0_14TheoryArithNew4IneqEEEESt10_Select1stIS9_ESt4lessIS1_ESaIS9_EE8_M_eraseEPSt13_Rb_tree_nodeIS9_E@Base 2.4.1
 _ZNSt8_Rb_treeIN4CVC34ExprESt4pairIKS1_PNS0_6CDListINS0_14TheoryArithOld4IneqEEEESt10_Select1stIS9_ESt4lessIS1_ESaIS9_EE17_M_insert_unique_ESt23_Rb_tree_const_iteratorIS9_ERKS9_@Base 2.4.1
 _ZNSt8_Rb_treeIN4CVC34ExprESt4pairIKS1_PNS0_6CDListINS0_14TheoryArithOld4IneqEEEESt10_Select1stIS9_ESt4lessIS1_ESaIS9_EE24_M_get_insert_unique_posERS3_@Base 2.4.1
 _ZNSt8_Rb_treeIN4CVC34ExprESt4pairIKS1_PNS0_6CDListINS0_14TheoryArithOld4IneqEEEESt10_Select1stIS9_ESt4lessIS1_ESaIS9_EE29_M_get_insert_hint_unique_posESt23_Rb_tree_const_iteratorIS9_ERS3_@Base 2.4.1
 _ZNSt8_Rb_treeIN4CVC34ExprESt4pairIKS1_PNS0_6CDListINS0_14TheoryArithOld4IneqEEEESt10_Select1stIS9_ESt4lessIS1_ESaIS9_EE4findERS3_@Base 2.4.1
 _ZNSt8_Rb_treeIN4CVC34ExprESt4pairIKS1_PNS0_6CDListINS0_14TheoryArithOld4IneqEEEESt10_Select1stIS9_ESt4lessIS1_ESaIS9_EE8_M_eraseEPSt13_Rb_tree_nodeIS9_E@Base 2.4.1
 _ZNSt8_Rb_treeIN4CVC34ExprESt4pairIKS1_PNS0_6CDListINS0_7TheoremEEEESt10_Select1stIS8_ESt4lessIS1_ESaIS8_EE17_M_insert_unique_ESt23_Rb_tree_const_iteratorIS8_ERKS8_@Base 2.4.1
 _ZNSt8_Rb_treeIN4CVC34ExprESt4pairIKS1_PNS0_6CDListINS0_7TheoremEEEESt10_Select1stIS8_ESt4lessIS1_ESaIS8_EE24_M_get_insert_unique_posERS3_@Base 2.4.1
 _ZNSt8_Rb_treeIN4CVC34ExprESt4pairIKS1_PNS0_6CDListINS0_7TheoremEEEESt10_Select1stIS8_ESt4lessIS1_ESaIS8_EE29_M_get_insert_hint_unique_posESt23_Rb_tree_const_iteratorIS8_ERS3_@Base 2.4.1
 _ZNSt8_Rb_treeIN4CVC34ExprESt4pairIKS1_PNS0_6CDListINS0_7TheoremEEEESt10_Select1stIS8_ESt4lessIS1_ESaIS8_EE4findERS3_@Base 2.4.1
 _ZNSt8_Rb_treeIN4CVC34ExprESt4pairIKS1_PNS0_6CDListIS1_EEESt10_Select1stIS7_ESt4lessIS1_ESaIS7_EE17_M_insert_unique_ESt23_Rb_tree_const_iteratorIS7_ERKS7_@Base 2.4.1
 _ZNSt8_Rb_treeIN4CVC34ExprESt4pairIKS1_PNS0_6CDListIS1_EEESt10_Select1stIS7_ESt4lessIS1_ESaIS7_EE24_M_get_insert_unique_posERS3_@Base 2.4.1
 _ZNSt8_Rb_treeIN4CVC34ExprESt4pairIKS1_PNS0_6CDListIS1_EEESt10_Select1stIS7_ESt4lessIS1_ESaIS7_EE29_M_get_insert_hint_unique_posESt23_Rb_tree_const_iteratorIS7_ERS3_@Base 2.4.1
 _ZNSt8_Rb_treeIN4CVC34ExprESt4pairIKS1_PNS0_6CDListIS1_EEESt10_Select1stIS7_ESt4lessIS1_ESaIS7_EE4findERS3_@Base 2.4.1
 _ZNSt8_Rb_treeIN4CVC34ExprESt4pairIKS1_PNS0_6CDListIS1_EEESt10_Select1stIS7_ESt4lessIS1_ESaIS7_EE8_M_eraseEPSt13_Rb_tree_nodeIS7_E@Base 2.4.1
 _ZNSt8_Rb_treeIN4CVC34ExprESt4pairIKS1_PNS0_6CDListISt6vectorIS1_SaIS1_EEEEESt10_Select1stISA_ESt4lessIS1_ESaISA_EE8_M_eraseEPSt13_Rb_tree_nodeISA_E@Base 2.4.1
 _ZNSt8_Rb_treeIN4CVC34ExprESt4pairIKS1_PNS0_7ExprMapIPSt6vectorINS0_7dynTrigESaIS6_EEEEESt10_Select1stISC_ESt4lessIS1_ESaISC_EE17_M_insert_unique_ESt23_Rb_tree_const_iteratorISC_ERKSC_@Base 2.4.1
 _ZNSt8_Rb_treeIN4CVC34ExprESt4pairIKS1_PNS0_7ExprMapIPSt6vectorINS0_7dynTrigESaIS6_EEEEESt10_Select1stISC_ESt4lessIS1_ESaISC_EE24_M_get_insert_unique_posERS3_@Base 2.4.1
 _ZNSt8_Rb_treeIN4CVC34ExprESt4pairIKS1_PNS0_7ExprMapIPSt6vectorINS0_7dynTrigESaIS6_EEEEESt10_Select1stISC_ESt4lessIS1_ESaISC_EE29_M_get_insert_hint_unique_posESt23_Rb_tree_const_iteratorISC_ERS3_@Base 2.4.1
 _ZNSt8_Rb_treeIN4CVC34ExprESt4pairIKS1_PNS0_7ExprMapIPSt6vectorINS0_7dynTrigESaIS6_EEEEESt10_Select1stISC_ESt4lessIS1_ESaISC_EE4findERS3_@Base 2.4.1
 _ZNSt8_Rb_treeIN4CVC34ExprESt4pairIKS1_PNS0_7ExprMapIPSt6vectorINS0_7dynTrigESaIS6_EEEEESt10_Select1stISC_ESt4lessIS1_ESaISC_EE8_M_eraseEPSt13_Rb_tree_nodeISC_E@Base 2.4.1
 _ZNSt8_Rb_treeIN4CVC34ExprESt4pairIKS1_PNS0_8TheoryUF9TCMapPairEESt10_Select1stIS7_ESt4lessIS1_ESaIS7_EE17_M_insert_unique_ESt23_Rb_tree_const_iteratorIS7_ERKS7_@Base 2.4.1
 _ZNSt8_Rb_treeIN4CVC34ExprESt4pairIKS1_PNS0_8TheoryUF9TCMapPairEESt10_Select1stIS7_ESt4lessIS1_ESaIS7_EE24_M_get_insert_unique_posERS3_@Base 2.4.1
 _ZNSt8_Rb_treeIN4CVC34ExprESt4pairIKS1_PNS0_8TheoryUF9TCMapPairEESt10_Select1stIS7_ESt4lessIS1_ESaIS7_EE29_M_get_insert_hint_unique_posESt23_Rb_tree_const_iteratorIS7_ERS3_@Base 2.4.1
 _ZNSt8_Rb_treeIN4CVC34ExprESt4pairIKS1_PNS0_8TheoryUF9TCMapPairEESt10_Select1stIS7_ESt4lessIS1_ESaIS7_EE8_M_eraseEPSt13_Rb_tree_nodeIS7_E@Base 2.4.1
 _ZNSt8_Rb_treeIN4CVC34ExprESt4pairIKS1_PSt3setIS1_St4lessIS1_ESaIS1_EEESt10_Select1stISA_ES6_SaISA_EE10_M_insert_EPSt18_Rb_tree_node_baseSG_RKSA_@Base 2.4.1
 _ZNSt8_Rb_treeIN4CVC34ExprESt4pairIKS1_PSt3setIS1_St4lessIS1_ESaIS1_EEESt10_Select1stISA_ES6_SaISA_EE11equal_rangeERS3_@Base 2.4.1
 _ZNSt8_Rb_treeIN4CVC34ExprESt4pairIKS1_PSt3setIS1_St4lessIS1_ESaIS1_EEESt10_Select1stISA_ES6_SaISA_EE16_M_insert_uniqueERKSA_@Base 2.4.1
 _ZNSt8_Rb_treeIN4CVC34ExprESt4pairIKS1_PSt3setIS1_St4lessIS1_ESaIS1_EEESt10_Select1stISA_ES6_SaISA_EE17_M_insert_unique_ESt23_Rb_tree_const_iteratorISA_ERKSA_@Base 2.4.1
 _ZNSt8_Rb_treeIN4CVC34ExprESt4pairIKS1_PSt3setIS1_St4lessIS1_ESaIS1_EEESt10_Select1stISA_ES6_SaISA_EE24_M_get_insert_unique_posERS3_@Base 2.4.1
 _ZNSt8_Rb_treeIN4CVC34ExprESt4pairIKS1_PSt3setIS1_St4lessIS1_ESaIS1_EEESt10_Select1stISA_ES6_SaISA_EE29_M_get_insert_hint_unique_posESt23_Rb_tree_const_iteratorISA_ERS3_@Base 2.4.1
 _ZNSt8_Rb_treeIN4CVC34ExprESt4pairIKS1_PSt3setIS1_St4lessIS1_ESaIS1_EEESt10_Select1stISA_ES6_SaISA_EE4findERS3_@Base 2.4.1
 _ZNSt8_Rb_treeIN4CVC34ExprESt4pairIKS1_PSt3setIS1_St4lessIS1_ESaIS1_EEESt10_Select1stISA_ES6_SaISA_EE8_M_eraseEPSt13_Rb_tree_nodeISA_E@Base 2.4.1
 _ZNSt8_Rb_treeIN4CVC34ExprESt4pairIKS1_PSt6vectorINS0_7dynTrigESaIS5_EEESt10_Select1stIS9_ESt4lessIS1_ESaIS9_EE17_M_insert_unique_ESt23_Rb_tree_const_iteratorIS9_ERKS9_@Base 2.4.1
 _ZNSt8_Rb_treeIN4CVC34ExprESt4pairIKS1_PSt6vectorINS0_7dynTrigESaIS5_EEESt10_Select1stIS9_ESt4lessIS1_ESaIS9_EE24_M_get_insert_unique_posERS3_@Base 2.4.1
 _ZNSt8_Rb_treeIN4CVC34ExprESt4pairIKS1_PSt6vectorINS0_7dynTrigESaIS5_EEESt10_Select1stIS9_ESt4lessIS1_ESaIS9_EE29_M_get_insert_hint_unique_posESt23_Rb_tree_const_iteratorIS9_ERS3_@Base 2.4.1
 _ZNSt8_Rb_treeIN4CVC34ExprESt4pairIKS1_PSt6vectorINS0_7dynTrigESaIS5_EEESt10_Select1stIS9_ESt4lessIS1_ESaIS9_EE8_M_eraseEPSt13_Rb_tree_nodeIS9_E@Base 2.4.1
 _ZNSt8_Rb_treeIN4CVC34ExprESt4pairIKS1_PSt6vectorIS1_SaIS1_EEESt10_Select1stIS8_ESt4lessIS1_ESaIS8_EE10_M_insert_EPSt18_Rb_tree_node_baseSG_RKS8_@Base 2.4.1
 _ZNSt8_Rb_treeIN4CVC34ExprESt4pairIKS1_PSt6vectorIS1_SaIS1_EEESt10_Select1stIS8_ESt4lessIS1_ESaIS8_EE16_M_insert_uniqueERKS8_@Base 2.4.1
 _ZNSt8_Rb_treeIN4CVC34ExprESt4pairIKS1_PSt6vectorIS1_SaIS1_EEESt10_Select1stIS8_ESt4lessIS1_ESaIS8_EE24_M_get_insert_unique_posERS3_@Base 2.4.1
 _ZNSt8_Rb_treeIN4CVC34ExprESt4pairIKS1_PSt6vectorIS1_SaIS1_EEESt10_Select1stIS8_ESt4lessIS1_ESaIS8_EE29_M_get_insert_hint_unique_posESt23_Rb_tree_const_iteratorIS8_ERS3_@Base 2.4.1
 _ZNSt8_Rb_treeIN4CVC34ExprESt4pairIKS1_PSt6vectorIS1_SaIS1_EEESt10_Select1stIS8_ESt4lessIS1_ESaIS8_EE4findERS3_@Base 2.4.1
 _ZNSt8_Rb_treeIN4CVC34ExprESt4pairIKS1_PSt6vectorIS1_SaIS1_EEESt10_Select1stIS8_ESt4lessIS1_ESaIS8_EE8_M_eraseEPSt13_Rb_tree_nodeIS8_E@Base 2.4.1
 _ZNSt8_Rb_treeIN4CVC34ExprESt4pairIKS1_S1_ESt10_Select1stIS4_ESt4lessIS1_ESaIS4_EE16_M_insert_uniqueERKS4_@Base 2.4.1
 _ZNSt8_Rb_treeIN4CVC34ExprESt4pairIKS1_S1_ESt10_Select1stIS4_ESt4lessIS1_ESaIS4_EE17_M_insert_unique_ESt23_Rb_tree_const_iteratorIS4_ERKS4_@Base 2.4.1
 _ZNSt8_Rb_treeIN4CVC34ExprESt4pairIKS1_S1_ESt10_Select1stIS4_ESt4lessIS1_ESaIS4_EE24_M_get_insert_unique_posERS3_@Base 2.4.1
 _ZNSt8_Rb_treeIN4CVC34ExprESt4pairIKS1_S1_ESt10_Select1stIS4_ESt4lessIS1_ESaIS4_EE29_M_get_insert_hint_unique_posESt23_Rb_tree_const_iteratorIS4_ERS3_@Base 2.4.1
 _ZNSt8_Rb_treeIN4CVC34ExprESt4pairIKS1_S1_ESt10_Select1stIS4_ESt4lessIS1_ESaIS4_EE4findERS3_@Base 2.4.1
 _ZNSt8_Rb_treeIN4CVC34ExprESt4pairIKS1_S1_ESt10_Select1stIS4_ESt4lessIS1_ESaIS4_EE7_M_copyEPKSt13_Rb_tree_nodeIS4_EPSC_@Base 2.4.1
 _ZNSt8_Rb_treeIN4CVC34ExprESt4pairIKS1_S1_ESt10_Select1stIS4_ESt4lessIS1_ESaIS4_EE8_M_eraseEPSt13_Rb_tree_nodeIS4_E@Base 2.4.1
 _ZNSt8_Rb_treeIN4CVC34ExprESt4pairIKS1_S1_ESt10_Select1stIS4_ESt4lessIS1_ESaIS4_EEC1ERKSA_@Base 2.4.1
 _ZNSt8_Rb_treeIN4CVC34ExprESt4pairIKS1_S1_ESt10_Select1stIS4_ESt4lessIS1_ESaIS4_EEC2ERKSA_@Base 2.4.1
 _ZNSt8_Rb_treeIN4CVC34ExprESt4pairIKS1_S1_ESt10_Select1stIS4_ESt4lessIS1_ESaIS4_EEaSERKSA_@Base 2.4.1
 _ZNSt8_Rb_treeIN4CVC34ExprESt4pairIKS1_S2_IS1_jEESt10_Select1stIS5_ESt4lessIS1_ESaIS5_EE17_M_insert_unique_ESt23_Rb_tree_const_iteratorIS5_ERKS5_@Base 2.4.1
 _ZNSt8_Rb_treeIN4CVC34ExprESt4pairIKS1_S2_IS1_jEESt10_Select1stIS5_ESt4lessIS1_ESaIS5_EE24_M_get_insert_unique_posERS3_@Base 2.4.1
 _ZNSt8_Rb_treeIN4CVC34ExprESt4pairIKS1_S2_IS1_jEESt10_Select1stIS5_ESt4lessIS1_ESaIS5_EE29_M_get_insert_hint_unique_posESt23_Rb_tree_const_iteratorIS5_ERS3_@Base 2.4.1
 _ZNSt8_Rb_treeIN4CVC34ExprESt4pairIKS1_S2_IS1_jEESt10_Select1stIS5_ESt4lessIS1_ESaIS5_EE8_M_eraseEPSt13_Rb_tree_nodeIS5_E@Base 2.4.1
 _ZNSt8_Rb_treeIN4CVC34ExprESt4pairIKS1_SsESt10_Select1stIS4_ESt4lessIS1_ESaIS4_EE10_M_insert_EPSt18_Rb_tree_node_baseSC_RKS4_@Base 2.4.1
 _ZNSt8_Rb_treeIN4CVC34ExprESt4pairIKS1_SsESt10_Select1stIS4_ESt4lessIS1_ESaIS4_EE11equal_rangeERS3_@Base 2.4.1
 _ZNSt8_Rb_treeIN4CVC34ExprESt4pairIKS1_SsESt10_Select1stIS4_ESt4lessIS1_ESaIS4_EE24_M_get_insert_unique_posERS3_@Base 2.4.1
 _ZNSt8_Rb_treeIN4CVC34ExprESt4pairIKS1_SsESt10_Select1stIS4_ESt4lessIS1_ESaIS4_EE29_M_get_insert_hint_unique_posESt23_Rb_tree_const_iteratorIS4_ERS3_@Base 2.4.1
 _ZNSt8_Rb_treeIN4CVC34ExprESt4pairIKS1_SsESt10_Select1stIS4_ESt4lessIS1_ESaIS4_EE8_M_eraseEPSt13_Rb_tree_nodeIS4_E@Base 2.4.1
 _ZNSt8_Rb_treeIN4CVC34ExprESt4pairIKS1_St3setIS2_INS0_8RationalES1_ESt4lessIS6_ESaIS6_EEESt10_Select1stISB_ES7_IS1_ESaISB_EE10_M_insert_EPSt18_Rb_tree_node_baseSI_RKSB_@Base 2.4.1
 _ZNSt8_Rb_treeIN4CVC34ExprESt4pairIKS1_St3setIS2_INS0_8RationalES1_ESt4lessIS6_ESaIS6_EEESt10_Select1stISB_ES7_IS1_ESaISB_EE24_M_get_insert_unique_posERS3_@Base 2.4.1
 _ZNSt8_Rb_treeIN4CVC34ExprESt4pairIKS1_St3setIS2_INS0_8RationalES1_ESt4lessIS6_ESaIS6_EEESt10_Select1stISB_ES7_IS1_ESaISB_EE29_M_get_insert_hint_unique_posESt23_Rb_tree_const_iteratorISB_ERS3_@Base 2.4.1
 _ZNSt8_Rb_treeIN4CVC34ExprESt4pairIKS1_St3setIS2_INS0_8RationalES1_ESt4lessIS6_ESaIS6_EEESt10_Select1stISB_ES7_IS1_ESaISB_EE4findERS3_@Base 2.4.1
 _ZNSt8_Rb_treeIN4CVC34ExprESt4pairIKS1_St3setIS2_INS0_8RationalES1_ESt4lessIS6_ESaIS6_EEESt10_Select1stISB_ES7_IS1_ESaISB_EE8_M_eraseEPSt13_Rb_tree_nodeISB_E@Base 2.4.1
 _ZNSt8_Rb_treeIN4CVC34ExprESt4pairIKS1_St3setISt6vectorIS1_SaIS1_EESt4lessIS7_ESaIS7_EEESt10_Select1stISC_ES8_IS1_ESaISC_EE8_M_eraseEPSt13_Rb_tree_nodeISC_E@Base 2.4.1
 _ZNSt8_Rb_treeIN4CVC34ExprESt4pairIKS1_St6vectorINS0_7TriggerESaIS5_EEESt10_Select1stIS8_ESt4lessIS1_ESaIS8_EE10_M_insert_EPSt18_Rb_tree_node_baseSG_RKS8_@Base 2.4.1
 _ZNSt8_Rb_treeIN4CVC34ExprESt4pairIKS1_St6vectorINS0_7TriggerESaIS5_EEESt10_Select1stIS8_ESt4lessIS1_ESaIS8_EE24_M_get_insert_unique_posERS3_@Base 2.4.1
 _ZNSt8_Rb_treeIN4CVC34ExprESt4pairIKS1_St6vectorINS0_7TriggerESaIS5_EEESt10_Select1stIS8_ESt4lessIS1_ESaIS8_EE29_M_get_insert_hint_unique_posESt23_Rb_tree_const_iteratorIS8_ERS3_@Base 2.4.1
 _ZNSt8_Rb_treeIN4CVC34ExprESt4pairIKS1_St6vectorINS0_7TriggerESaIS5_EEESt10_Select1stIS8_ESt4lessIS1_ESaIS8_EE8_M_eraseEPSt13_Rb_tree_nodeIS8_E@Base 2.4.1
 _ZNSt8_Rb_treeIN4CVC34ExprESt4pairIKS1_St6vectorIS1_SaIS1_EEESt10_Select1stIS7_ESt4lessIS1_ESaIS7_EE10_M_insert_EPSt18_Rb_tree_node_baseSF_RKS7_@Base 2.4.1
 _ZNSt8_Rb_treeIN4CVC34ExprESt4pairIKS1_St6vectorIS1_SaIS1_EEESt10_Select1stIS7_ESt4lessIS1_ESaIS7_EE24_M_get_insert_unique_posERS3_@Base 2.4.1
 _ZNSt8_Rb_treeIN4CVC34ExprESt4pairIKS1_St6vectorIS1_SaIS1_EEESt10_Select1stIS7_ESt4lessIS1_ESaIS7_EE29_M_get_insert_hint_unique_posESt23_Rb_tree_const_iteratorIS7_ERS3_@Base 2.4.1
 _ZNSt8_Rb_treeIN4CVC34ExprESt4pairIKS1_St6vectorIS1_SaIS1_EEESt10_Select1stIS7_ESt4lessIS1_ESaIS7_EE8_M_eraseEPSt13_Rb_tree_nodeIS7_E@Base 2.4.1
 _ZNSt8_Rb_treeIN4CVC34ExprESt4pairIKS1_bESt10_Select1stIS4_ESt4lessIS1_ESaIS4_EE11equal_rangeERS3_@Base 2.4.1
 _ZNSt8_Rb_treeIN4CVC34ExprESt4pairIKS1_bESt10_Select1stIS4_ESt4lessIS1_ESaIS4_EE17_M_insert_unique_ESt23_Rb_tree_const_iteratorIS4_ERKS4_@Base 2.4.1
 _ZNSt8_Rb_treeIN4CVC34ExprESt4pairIKS1_bESt10_Select1stIS4_ESt4lessIS1_ESaIS4_EE24_M_get_insert_unique_posERS3_@Base 2.4.1
 _ZNSt8_Rb_treeIN4CVC34ExprESt4pairIKS1_bESt10_Select1stIS4_ESt4lessIS1_ESaIS4_EE29_M_get_insert_hint_unique_posESt23_Rb_tree_const_iteratorIS4_ERS3_@Base 2.4.1
 _ZNSt8_Rb_treeIN4CVC34ExprESt4pairIKS1_bESt10_Select1stIS4_ESt4lessIS1_ESaIS4_EE4findERS3_@Base 2.4.1
 _ZNSt8_Rb_treeIN4CVC34ExprESt4pairIKS1_bESt10_Select1stIS4_ESt4lessIS1_ESaIS4_EE5eraseERS3_@Base 2.4.1
 _ZNSt8_Rb_treeIN4CVC34ExprESt4pairIKS1_bESt10_Select1stIS4_ESt4lessIS1_ESaIS4_EE8_M_eraseEPSt13_Rb_tree_nodeIS4_E@Base 2.4.1
 _ZNSt8_Rb_treeIN4CVC34ExprESt4pairIKS1_iESt10_Select1stIS4_ESt4lessIS1_ESaIS4_EE10_M_insert_EPSt18_Rb_tree_node_baseSC_RKS4_@Base 2.4.1
 _ZNSt8_Rb_treeIN4CVC34ExprESt4pairIKS1_iESt10_Select1stIS4_ESt4lessIS1_ESaIS4_EE11equal_rangeERS3_@Base 2.4.1
 _ZNSt8_Rb_treeIN4CVC34ExprESt4pairIKS1_iESt10_Select1stIS4_ESt4lessIS1_ESaIS4_EE17_M_insert_unique_ESt23_Rb_tree_const_iteratorIS4_ERKS4_@Base 2.4.1
 _ZNSt8_Rb_treeIN4CVC34ExprESt4pairIKS1_iESt10_Select1stIS4_ESt4lessIS1_ESaIS4_EE24_M_get_insert_unique_posERS3_@Base 2.4.1
 _ZNSt8_Rb_treeIN4CVC34ExprESt4pairIKS1_iESt10_Select1stIS4_ESt4lessIS1_ESaIS4_EE29_M_get_insert_hint_unique_posESt23_Rb_tree_const_iteratorIS4_ERS3_@Base 2.4.1
 _ZNSt8_Rb_treeIN4CVC34ExprESt4pairIKS1_iESt10_Select1stIS4_ESt4lessIS1_ESaIS4_EE4findERS3_@Base 2.4.1
 _ZNSt8_Rb_treeIN4CVC34ExprESt4pairIKS1_iESt10_Select1stIS4_ESt4lessIS1_ESaIS4_EE5eraseERS3_@Base 2.4.1
 _ZNSt8_Rb_treeIN4CVC34ExprESt4pairIKS1_iESt10_Select1stIS4_ESt4lessIS1_ESaIS4_EE8_M_eraseEPSt13_Rb_tree_nodeIS4_E@Base 2.4.1
 _ZNSt8_Rb_treeIN4CVC34ExprESt4pairIKS1_jESt10_Select1stIS4_ESt4lessIS1_ESaIS4_EE17_M_insert_unique_ESt23_Rb_tree_const_iteratorIS4_ERKS4_@Base 2.4.1
 _ZNSt8_Rb_treeIN4CVC34ExprESt4pairIKS1_jESt10_Select1stIS4_ESt4lessIS1_ESaIS4_EE24_M_get_insert_unique_posERS3_@Base 2.4.1
 _ZNSt8_Rb_treeIN4CVC34ExprESt4pairIKS1_jESt10_Select1stIS4_ESt4lessIS1_ESaIS4_EE29_M_get_insert_hint_unique_posESt23_Rb_tree_const_iteratorIS4_ERS3_@Base 2.4.1
 _ZNSt8_Rb_treeIN4CVC34ExprESt4pairIKS1_jESt10_Select1stIS4_ESt4lessIS1_ESaIS4_EE7_M_copyEPKSt13_Rb_tree_nodeIS4_EPSC_@Base 2.4.1
 _ZNSt8_Rb_treeIN4CVC34ExprESt4pairIKS1_jESt10_Select1stIS4_ESt4lessIS1_ESaIS4_EE8_M_eraseEPSt13_Rb_tree_nodeIS4_E@Base 2.4.1
 _ZNSt8_Rb_treeIN4CVC34ExprESt4pairIKS1_mESt10_Select1stIS4_ESt4lessIS1_ESaIS4_EE17_M_insert_unique_ESt23_Rb_tree_const_iteratorIS4_ERKS4_@Base 2.4.1
 _ZNSt8_Rb_treeIN4CVC34ExprESt4pairIKS1_mESt10_Select1stIS4_ESt4lessIS1_ESaIS4_EE24_M_get_insert_unique_posERS3_@Base 2.4.1
 _ZNSt8_Rb_treeIN4CVC34ExprESt4pairIKS1_mESt10_Select1stIS4_ESt4lessIS1_ESaIS4_EE29_M_get_insert_hint_unique_posESt23_Rb_tree_const_iteratorIS4_ERS3_@Base 2.4.1
 _ZNSt8_Rb_treeIN4CVC34ExprESt4pairIKS1_mESt10_Select1stIS4_ESt4lessIS1_ESaIS4_EE8_M_eraseEPSt13_Rb_tree_nodeIS4_E@Base 2.4.1
 _ZNSt8_Rb_treeIN4CVC34TypeESt4pairIKS1_PNS0_6CDListImEEESt10_Select1stIS7_ENS0_11TheoryQuant8TypeCompESaIS7_EE10_M_insert_EPSt18_Rb_tree_node_baseSF_RKS7_@Base 2.4.1
 _ZNSt8_Rb_treeIN4CVC34TypeESt4pairIKS1_PNS0_6CDListImEEESt10_Select1stIS7_ENS0_11TheoryQuant8TypeCompESaIS7_EE24_M_get_insert_unique_posERS3_@Base 2.4.1
 _ZNSt8_Rb_treeIN4CVC34TypeESt4pairIKS1_PNS0_6CDListImEEESt10_Select1stIS7_ENS0_11TheoryQuant8TypeCompESaIS7_EE29_M_get_insert_hint_unique_posESt23_Rb_tree_const_iteratorIS7_ERS3_@Base 2.4.1
 _ZNSt8_Rb_treeIN4CVC34TypeESt4pairIKS1_PNS0_6CDListImEEESt10_Select1stIS7_ENS0_11TheoryQuant8TypeCompESaIS7_EE8_M_eraseEPSt13_Rb_tree_nodeIS7_E@Base 2.4.1
 _ZNSt8_Rb_treeIN4CVC34TypeESt4pairIKS1_St6vectorINS0_4ExprESaIS5_EEESt10_Select1stIS8_ENS0_11TheoryQuant8TypeCompESaIS8_EE10_M_insert_EPSt18_Rb_tree_node_baseSG_RKS8_@Base 2.4.1
 _ZNSt8_Rb_treeIN4CVC34TypeESt4pairIKS1_St6vectorINS0_4ExprESaIS5_EEESt10_Select1stIS8_ENS0_11TheoryQuant8TypeCompESaIS8_EE24_M_get_insert_unique_posERS3_@Base 2.4.1
 _ZNSt8_Rb_treeIN4CVC34TypeESt4pairIKS1_St6vectorINS0_4ExprESaIS5_EEESt10_Select1stIS8_ENS0_11TheoryQuant8TypeCompESaIS8_EE29_M_get_insert_hint_unique_posESt23_Rb_tree_const_iteratorIS8_ERS3_@Base 2.4.1
 _ZNSt8_Rb_treeIN4CVC34TypeESt4pairIKS1_St6vectorINS0_4ExprESaIS5_EEESt10_Select1stIS8_ENS0_11TheoryQuant8TypeCompESaIS8_EE8_M_eraseEPSt13_Rb_tree_nodeIS8_E@Base 2.4.1
 _ZNSt8_Rb_treeIN4CVC34TypeESt4pairIKS1_St6vectorImSaImEEESt10_Select1stIS7_ENS0_11TheoryQuant8TypeCompESaIS7_EE10_M_insert_EPSt18_Rb_tree_node_baseSF_RKS7_@Base 2.4.1
 _ZNSt8_Rb_treeIN4CVC34TypeESt4pairIKS1_St6vectorImSaImEEESt10_Select1stIS7_ENS0_11TheoryQuant8TypeCompESaIS7_EE24_M_get_insert_unique_posERS3_@Base 2.4.1
 _ZNSt8_Rb_treeIN4CVC34TypeESt4pairIKS1_St6vectorImSaImEEESt10_Select1stIS7_ENS0_11TheoryQuant8TypeCompESaIS7_EE29_M_get_insert_hint_unique_posESt23_Rb_tree_const_iteratorIS7_ERS3_@Base 2.4.1
 _ZNSt8_Rb_treeIN4CVC34TypeESt4pairIKS1_St6vectorImSaImEEESt10_Select1stIS7_ENS0_11TheoryQuant8TypeCompESaIS7_EE8_M_eraseEPSt13_Rb_tree_nodeIS7_E@Base 2.4.1
 _ZNSt8_Rb_treeIN4CVC37TheoremESt4pairIKS1_bESt10_Select1stIS4_ENS0_11TheoremLessESaIS4_EE17_M_insert_unique_ESt23_Rb_tree_const_iteratorIS4_ERKS4_@Base 2.4.1
 _ZNSt8_Rb_treeIN4CVC37TheoremESt4pairIKS1_bESt10_Select1stIS4_ENS0_11TheoremLessESaIS4_EE24_M_get_insert_unique_posERS3_@Base 2.4.1
 _ZNSt8_Rb_treeIN4CVC37TheoremESt4pairIKS1_bESt10_Select1stIS4_ENS0_11TheoremLessESaIS4_EE29_M_get_insert_hint_unique_posESt23_Rb_tree_const_iteratorIS4_ERS3_@Base 2.4.1
 _ZNSt8_Rb_treeIN4CVC37TheoremESt4pairIKS1_bESt10_Select1stIS4_ENS0_11TheoremLessESaIS4_EE8_M_eraseEPSt13_Rb_tree_nodeIS4_E@Base 2.4.1
 _ZNSt8_Rb_treeIN4CVC38RationalES1_St9_IdentityIS1_ESt4lessIS1_ESaIS1_EE10_M_insert_EPSt18_Rb_tree_node_baseS9_RKS1_@Base 2.4.1
 _ZNSt8_Rb_treeIN4CVC38RationalES1_St9_IdentityIS1_ESt4lessIS1_ESaIS1_EE24_M_get_insert_unique_posERKS1_@Base 2.4.1
 _ZNSt8_Rb_treeIN4CVC38RationalES1_St9_IdentityIS1_ESt4lessIS1_ESaIS1_EE29_M_get_insert_hint_unique_posESt23_Rb_tree_const_iteratorIS1_ERKS1_@Base 2.4.1
 _ZNSt8_Rb_treeIN4CVC38RationalES1_St9_IdentityIS1_ESt4lessIS1_ESaIS1_EE8_M_eraseEPSt13_Rb_tree_nodeIS1_E@Base 2.4.1
 _ZNSt8_Rb_treeIN4CVC39SearchSat15LitPriorityPairES2_St9_IdentityIS2_ESt4lessIS2_ESaIS2_EE24_M_get_insert_unique_posERKS2_@Base 2.4.1
 _ZNSt8_Rb_treeIN4CVC39SearchSat15LitPriorityPairES2_St9_IdentityIS2_ESt4lessIS2_ESaIS2_EE8_M_eraseEPSt13_Rb_tree_nodeIS2_E@Base 2.4.1
 _ZNSt8_Rb_treeIN7MiniSat3LitES1_St9_IdentityIS1_ESt4lessIS1_ESaIS1_EE16_M_insert_uniqueERKS1_@Base 2.4.1
 _ZNSt8_Rb_treeIN7MiniSat3LitES1_St9_IdentityIS1_ESt4lessIS1_ESaIS1_EE4findERKS1_@Base 2.4.1
 _ZNSt8_Rb_treeIN7MiniSat3LitES1_St9_IdentityIS1_ESt4lessIS1_ESaIS1_EE5eraseERKS1_@Base 2.4.1
 _ZNSt8_Rb_treeIN7MiniSat3LitES1_St9_IdentityIS1_ESt4lessIS1_ESaIS1_EE8_M_eraseEPSt13_Rb_tree_nodeIS1_E@Base 2.4.1
 _ZNSt8_Rb_treeIP7TReturnSt4pairIKS1_bESt10_Select1stIS4_ESt4lessIS1_ESaIS4_EE24_M_get_insert_unique_posERS3_@Base 2.4.1
 _ZNSt8_Rb_treeIP7TReturnSt4pairIKS1_bESt10_Select1stIS4_ESt4lessIS1_ESaIS4_EE29_M_get_insert_hint_unique_posESt23_Rb_tree_const_iteratorIS4_ERS3_@Base 2.4.1
 _ZNSt8_Rb_treeIP7TReturnSt4pairIKS1_bESt10_Select1stIS4_ESt4lessIS1_ESaIS4_EE8_M_eraseEPSt13_Rb_tree_nodeIS4_E@Base 2.4.1
 _ZNSt8_Rb_treeIP9LFSCProofSt4pairIKS1_S1_ESt10_Select1stIS4_ESt4lessIS1_ESaIS4_EE24_M_get_insert_unique_posERS3_@Base 2.4.1
 _ZNSt8_Rb_treeIP9LFSCProofSt4pairIKS1_S1_ESt10_Select1stIS4_ESt4lessIS1_ESaIS4_EE29_M_get_insert_hint_unique_posESt23_Rb_tree_const_iteratorIS4_ERS3_@Base 2.4.1
 _ZNSt8_Rb_treeIP9LFSCProofSt4pairIKS1_S1_ESt10_Select1stIS4_ESt4lessIS1_ESaIS4_EE8_M_eraseEPSt13_Rb_tree_nodeIS4_E@Base 2.4.1
 _ZNSt8_Rb_treeIP9LFSCProofSt4pairIKS1_iESt10_Select1stIS4_ESt4lessIS1_ESaIS4_EE24_M_get_insert_unique_posERS3_@Base 2.4.1
 _ZNSt8_Rb_treeIP9LFSCProofSt4pairIKS1_iESt10_Select1stIS4_ESt4lessIS1_ESaIS4_EE29_M_get_insert_hint_unique_posESt23_Rb_tree_const_iteratorIS4_ERS3_@Base 2.4.1
 _ZNSt8_Rb_treeIP9LFSCProofSt4pairIKS1_iESt10_Select1stIS4_ESt4lessIS1_ESaIS4_EE4findERS3_@Base 2.4.1
 _ZNSt8_Rb_treeIP9LFSCProofSt4pairIKS1_iESt10_Select1stIS4_ESt4lessIS1_ESaIS4_EE8_M_eraseEPSt13_Rb_tree_nodeIS4_E@Base 2.4.1
 _ZNSt8_Rb_treeISsSsSt9_IdentityISsESt4lessISsESaISsEE8_M_eraseEPSt13_Rb_tree_nodeISsE@Base 2.4.1
 _ZNSt8_Rb_treeISsSt4pairIKSsN4CVC34ExprEESt10_Select1stIS4_ESt4lessISsESaIS4_EE10_M_insert_EPSt18_Rb_tree_node_baseSC_RKS4_@Base 2.4.1
 _ZNSt8_Rb_treeISsSt4pairIKSsN4CVC34ExprEESt10_Select1stIS4_ESt4lessISsESaIS4_EE24_M_get_insert_unique_posERS1_@Base 2.4.1
 _ZNSt8_Rb_treeISsSt4pairIKSsN4CVC34ExprEESt10_Select1stIS4_ESt4lessISsESaIS4_EE29_M_get_insert_hint_unique_posESt23_Rb_tree_const_iteratorIS4_ERS1_@Base 2.4.1
 _ZNSt8_Rb_treeISsSt4pairIKSsN4CVC34ExprEESt10_Select1stIS4_ESt4lessISsESaIS4_EE8_M_eraseEPSt13_Rb_tree_nodeIS4_E@Base 2.4.1
 _ZNSt8_Rb_treeISsSt4pairIKSsN4CVC34TypeEESt10_Select1stIS4_ESt4lessISsESaIS4_EE10_M_insert_EPSt18_Rb_tree_node_baseSC_RKS4_@Base 2.4.1
 _ZNSt8_Rb_treeISsSt4pairIKSsN4CVC34TypeEESt10_Select1stIS4_ESt4lessISsESaIS4_EE24_M_get_insert_unique_posERS1_@Base 2.4.1
 _ZNSt8_Rb_treeISsSt4pairIKSsN4CVC34TypeEESt10_Select1stIS4_ESt4lessISsESaIS4_EE29_M_get_insert_hint_unique_posESt23_Rb_tree_const_iteratorIS4_ERS1_@Base 2.4.1
 _ZNSt8_Rb_treeISsSt4pairIKSsN4CVC34TypeEESt10_Select1stIS4_ESt4lessISsESaIS4_EE4findERS1_@Base 2.4.1
 _ZNSt8_Rb_treeISsSt4pairIKSsN4CVC34TypeEESt10_Select1stIS4_ESt4lessISsESaIS4_EE8_M_eraseEPSt13_Rb_tree_nodeIS4_E@Base 2.4.1
 _ZNSt8_Rb_treeISsSt4pairIKSsN4CVC36CLFlagEESt10_Select1stIS4_ESt4lessISsESaIS4_EE14_M_lower_boundEPSt13_Rb_tree_nodeIS4_ESD_RS1_@Base 2.4.1
 _ZNSt8_Rb_treeISsSt4pairIKSsN4CVC36CLFlagEESt10_Select1stIS4_ESt4lessISsESaIS4_EE24_M_get_insert_unique_posERS1_@Base 2.4.1
 _ZNSt8_Rb_treeISsSt4pairIKSsN4CVC36CLFlagEESt10_Select1stIS4_ESt4lessISsESaIS4_EE29_M_get_insert_hint_unique_posESt23_Rb_tree_const_iteratorIS4_ERS1_@Base 2.4.1
 _ZNSt8_Rb_treeISsSt4pairIKSsN4CVC36CLFlagEESt10_Select1stIS4_ESt4lessISsESaIS4_EE3endEv@Base 2.4.1
 _ZNSt8_Rb_treeISsSt4pairIKSsN4CVC36CLFlagEESt10_Select1stIS4_ESt4lessISsESaIS4_EE4findERS1_@Base 2.4.1
 _ZNSt8_Rb_treeISsSt4pairIKSsN4CVC36CLFlagEESt10_Select1stIS4_ESt4lessISsESaIS4_EE6_M_endEv@Base 2.4.1
 _ZNSt8_Rb_treeISsSt4pairIKSsN4CVC36CLFlagEESt10_Select1stIS4_ESt4lessISsESaIS4_EE6_S_keyEPKSt13_Rb_tree_nodeIS4_E@Base 2.4.1
 _ZNSt8_Rb_treeISsSt4pairIKSsN4CVC36CLFlagEESt10_Select1stIS4_ESt4lessISsESaIS4_EE6_S_keyEPKSt18_Rb_tree_node_base@Base 2.4.1
 _ZNSt8_Rb_treeISsSt4pairIKSsN4CVC36CLFlagEESt10_Select1stIS4_ESt4lessISsESaIS4_EE7_M_copyEPKSt13_Rb_tree_nodeIS4_EPSC_@Base 2.4.1
 _ZNSt8_Rb_treeISsSt4pairIKSsN4CVC36CLFlagEESt10_Select1stIS4_ESt4lessISsESaIS4_EE7_S_leftEPKSt18_Rb_tree_node_base@Base 2.4.1
 _ZNSt8_Rb_treeISsSt4pairIKSsN4CVC36CLFlagEESt10_Select1stIS4_ESt4lessISsESaIS4_EE7_S_leftEPSt18_Rb_tree_node_base@Base 2.4.1
 _ZNSt8_Rb_treeISsSt4pairIKSsN4CVC36CLFlagEESt10_Select1stIS4_ESt4lessISsESaIS4_EE8_M_beginEv@Base 2.4.1
 _ZNSt8_Rb_treeISsSt4pairIKSsN4CVC36CLFlagEESt10_Select1stIS4_ESt4lessISsESaIS4_EE8_M_eraseEPSt13_Rb_tree_nodeIS4_E@Base 2.4.1
 _ZNSt8_Rb_treeISsSt4pairIKSsN4CVC36CLFlagEESt10_Select1stIS4_ESt4lessISsESaIS4_EE8_S_rightEPKSt18_Rb_tree_node_base@Base 2.4.1
 _ZNSt8_Rb_treeISsSt4pairIKSsN4CVC36CLFlagEESt10_Select1stIS4_ESt4lessISsESaIS4_EE8_S_rightEPSt18_Rb_tree_node_base@Base 2.4.1
 _ZNSt8_Rb_treeISsSt4pairIKSsN4CVC36CLFlagEESt10_Select1stIS4_ESt4lessISsESaIS4_EE8_S_valueEPKSt13_Rb_tree_nodeIS4_E@Base 2.4.1
 _ZNSt8_Rb_treeISsSt4pairIKSsN4CVC36CLFlagEESt10_Select1stIS4_ESt4lessISsESaIS4_EE8_S_valueEPKSt18_Rb_tree_node_base@Base 2.4.1
 _ZNSt8_Rb_treeISsSt4pairIKSsbESt10_Select1stIS2_ESt4lessISsESaIS2_EE8_M_eraseEPSt13_Rb_tree_nodeIS2_E@Base 2.4.1
 _ZNSt8_Rb_treeISsSt4pairIKSsiESt10_Select1stIS2_ESt4lessISsESaIS2_EE17_M_insert_unique_ESt23_Rb_tree_const_iteratorIS2_ERKS2_@Base 2.4.1
 _ZNSt8_Rb_treeISsSt4pairIKSsiESt10_Select1stIS2_ESt4lessISsESaIS2_EE24_M_get_insert_unique_posERS1_@Base 2.4.1
 _ZNSt8_Rb_treeISsSt4pairIKSsiESt10_Select1stIS2_ESt4lessISsESaIS2_EE29_M_get_insert_hint_unique_posESt23_Rb_tree_const_iteratorIS2_ERS1_@Base 2.4.1
 _ZNSt8_Rb_treeISsSt4pairIKSsiESt10_Select1stIS2_ESt4lessISsESaIS2_EE8_M_eraseEPSt13_Rb_tree_nodeIS2_E@Base 2.4.1
 _ZNSt8_Rb_treeISt4pairIN4CVC34ExprES2_ES0_IKS3_S2_ESt10_Select1stIS5_ESt4lessIS3_ESaIS5_EE16_M_insert_uniqueERKS5_@Base 2.4.1
 _ZNSt8_Rb_treeISt4pairIN4CVC34ExprES2_ES0_IKS3_S2_ESt10_Select1stIS5_ESt4lessIS3_ESaIS5_EE4findERS4_@Base 2.4.1
 _ZNSt8_Rb_treeISt4pairIN4CVC34ExprES2_ES0_IKS3_S2_ESt10_Select1stIS5_ESt4lessIS3_ESaIS5_EE7_M_copyEPKSt13_Rb_tree_nodeIS5_EPSD_@Base 2.4.1
 _ZNSt8_Rb_treeISt4pairIN4CVC34ExprES2_ES0_IKS3_S2_ESt10_Select1stIS5_ESt4lessIS3_ESaIS5_EE8_M_eraseEPSt13_Rb_tree_nodeIS5_E@Base 2.4.1
 _ZNSt8_Rb_treeISt4pairIN4CVC38RationalENS1_4ExprEES4_St9_IdentityIS4_ESt4lessIS4_ESaIS4_EE16_M_insert_uniqueERKS4_@Base 2.4.1
 _ZNSt8_Rb_treeISt4pairIN4CVC38RationalENS1_4ExprEES4_St9_IdentityIS4_ESt4lessIS4_ESaIS4_EE7_M_copyEPKSt13_Rb_tree_nodeIS4_EPSC_@Base 2.4.1
 _ZNSt8_Rb_treeISt4pairIN4CVC38RationalENS1_4ExprEES4_St9_IdentityIS4_ESt4lessIS4_ESaIS4_EE8_M_eraseEPSt13_Rb_tree_nodeIS4_E@Base 2.4.1
 _ZNSt8_Rb_treeISt6vectorIN4CVC34ExprESaIS2_EES4_St9_IdentityIS4_ESt4lessIS4_ESaIS4_EE16_M_insert_uniqueERKS4_@Base 2.4.1
 _ZNSt8_Rb_treeISt6vectorIN4CVC34ExprESaIS2_EES4_St9_IdentityIS4_ESt4lessIS4_ESaIS4_EE7_M_copyEPKSt13_Rb_tree_nodeIS4_EPSC_@Base 2.4.1
 _ZNSt8_Rb_treeISt6vectorIN4CVC34ExprESaIS2_EES4_St9_IdentityIS4_ESt4lessIS4_ESaIS4_EE8_M_eraseEPSt13_Rb_tree_nodeIS4_E@Base 2.4.1
 _ZNSt8_Rb_treeIiSt4pairIKi6RefPtrI9LFSCProofEESt10_Select1stIS5_ESt4lessIiESaIS5_EE24_M_get_insert_unique_posERS1_@Base 2.4.1
 _ZNSt8_Rb_treeIiSt4pairIKi6RefPtrI9LFSCProofEESt10_Select1stIS5_ESt4lessIiESaIS5_EE29_M_get_insert_hint_unique_posESt23_Rb_tree_const_iteratorIS5_ERS1_@Base 2.4.1
 _ZNSt8_Rb_treeIiSt4pairIKi6RefPtrI9LFSCProofEESt10_Select1stIS5_ESt4lessIiESaIS5_EE8_M_eraseEPSt13_Rb_tree_nodeIS5_E@Base 2.4.1
 _ZNSt8_Rb_treeIiSt4pairIKiPSt3setIN4CVC34ExprESt4lessIS4_ESaIS4_EEESt10_Select1stISA_ES5_IiESaISA_EE10_M_insert_EPSt18_Rb_tree_node_baseSH_RKSA_@Base 2.4.1
 _ZNSt8_Rb_treeIiSt4pairIKiPSt3setIN4CVC34ExprESt4lessIS4_ESaIS4_EEESt10_Select1stISA_ES5_IiESaISA_EE24_M_get_insert_unique_posERS1_@Base 2.4.1
 _ZNSt8_Rb_treeIiSt4pairIKiPSt3setIN4CVC34ExprESt4lessIS4_ESaIS4_EEESt10_Select1stISA_ES5_IiESaISA_EE29_M_get_insert_hint_unique_posESt23_Rb_tree_const_iteratorISA_ERS1_@Base 2.4.1
 _ZNSt8_Rb_treeIiSt4pairIKiPSt3setIN4CVC34ExprESt4lessIS4_ESaIS4_EEESt10_Select1stISA_ES5_IiESaISA_EE8_M_eraseEPSt13_Rb_tree_nodeISA_E@Base 2.4.1
 _ZNSt8_Rb_treeIiSt4pairIKiPSt6vectorIN4CVC34ExprESaIS4_EEESt10_Select1stIS8_ESt4lessIiESaIS8_EE10_M_insert_EPSt18_Rb_tree_node_baseSG_RKS8_@Base 2.4.1
 _ZNSt8_Rb_treeIiSt4pairIKiPSt6vectorIN4CVC34ExprESaIS4_EEESt10_Select1stIS8_ESt4lessIiESaIS8_EE16_M_insert_uniqueERKS8_@Base 2.4.1
 _ZNSt8_Rb_treeIiSt4pairIKiPSt6vectorIN4CVC34ExprESaIS4_EEESt10_Select1stIS8_ESt4lessIiESaIS8_EE24_M_get_insert_unique_posERS1_@Base 2.4.1
 _ZNSt8_Rb_treeIiSt4pairIKiPSt6vectorIN4CVC34ExprESaIS4_EEESt10_Select1stIS8_ESt4lessIiESaIS8_EE29_M_get_insert_hint_unique_posESt23_Rb_tree_const_iteratorIS8_ERS1_@Base 2.4.1
 _ZNSt8_Rb_treeIiSt4pairIKiPSt6vectorIN4CVC34ExprESaIS4_EEESt10_Select1stIS8_ESt4lessIiESaIS8_EE4findERS1_@Base 2.4.1
 _ZNSt8_Rb_treeIiSt4pairIKiPSt6vectorIN4CVC34ExprESaIS4_EEESt10_Select1stIS8_ESt4lessIiESaIS8_EE8_M_eraseEPSt13_Rb_tree_nodeIS8_E@Base 2.4.1
 _ZNSt8_Rb_treeIiSt4pairIKibESt10_Select1stIS2_ESt4lessIiESaIS2_EE24_M_get_insert_unique_posERS1_@Base 2.4.1
 _ZNSt8_Rb_treeIiSt4pairIKibESt10_Select1stIS2_ESt4lessIiESaIS2_EE29_M_get_insert_hint_unique_posESt23_Rb_tree_const_iteratorIS2_ERS1_@Base 2.4.1
 _ZNSt8_Rb_treeIiSt4pairIKibESt10_Select1stIS2_ESt4lessIiESaIS2_EE8_M_eraseEPSt13_Rb_tree_nodeIS2_E@Base 2.4.1
 _ZNSt8_Rb_treeIiiSt9_IdentityIiESt4lessIiESaIiEE16_M_insert_uniqueERKi@Base 2.4.1
 _ZNSt8_Rb_treeIiiSt9_IdentityIiESt4lessIiESaIiEE5eraseERKi@Base 2.4.1
 _ZNSt8_Rb_treeIiiSt9_IdentityIiESt4lessIiESaIiEE8_M_eraseEPSt13_Rb_tree_nodeIiE@Base 2.4.1
 _ZNSt8_Rb_treeImSt4pairIKmN4CVC34ExprEESt10_Select1stIS4_ESt4lessImESaIS4_EE8_M_eraseEPSt13_Rb_tree_nodeIS4_E@Base 2.4.1
 _ZNSt8_Rb_treeImSt4pairIKmiESt10_Select1stIS2_ESt4lessImESaIS2_EE8_M_eraseEPSt13_Rb_tree_nodeIS2_E@Base 2.4.1
 _ZNSt8fdoutbuf6xsputnEPKcl@Base 2.4.1
 _ZNSt8fdoutbuf8overflowEi@Base 2.4.1
 _ZNSt8fdoutbufD0Ev@Base 2.4.1
 _ZNSt8fdoutbufD1Ev@Base 2.4.1
 _ZNSt8fdoutbufD2Ev@Base 2.4.1
 _ZNSt8iteratorISt18input_iterator_tagN4CVC34ExprElPS2_RS2_EC1Ev@Base 2.4.1
 _ZNSt8iteratorISt18input_iterator_tagN4CVC34ExprElPS2_RS2_EC2Ev@Base 2.4.1
 _ZNSt8iteratorISt26random_access_iterator_tagN4CVC34ExprElPS2_RS2_EC1Ev@Base 2.4.1
 _ZNSt8iteratorISt26random_access_iterator_tagN4CVC34ExprElPS2_RS2_EC2Ev@Base 2.4.1
 _ZNSt9fdostreamD0Ev@Base 2.4.1
 _ZNSt9fdostreamD1Ev@Base 2.4.1
 _ZSt10_ConstructIN4CVC34ExprES1_EvPT_RKT0_@Base 2.4.1
 _ZSt10__distanceIN9__gnu_cxx17__normal_iteratorIPN4CVC34ExprESt6vectorIS3_SaIS3_EEEEENSt15iterator_traitsIT_E15difference_typeESA_SA_St26random_access_iterator_tag@Base 2.4.1
 _ZSt10__distanceISt16reverse_iteratorIN9__gnu_cxx17__normal_iteratorIPN4CVC34ExprESt6vectorIS4_SaIS4_EEEEEENSt15iterator_traitsIT_E15difference_typeESC_SC_St26random_access_iterator_tag@Base 2.4.1
 _ZSt10__pop_heapIN9__gnu_cxx17__normal_iteratorIPSt4pairISsN4CVC34ExprEESt6vectorIS5_SaIS5_EEEENS0_5__ops15_Iter_comp_iterINS3_11StrPairLessIS4_EEEEEvT_SG_SG_T0_@Base 2.4.1
 _ZSt10__pop_heapIN9__gnu_cxx17__normal_iteratorIPSt4pairISsN4CVC34TypeEESt6vectorIS5_SaIS5_EEEENS0_5__ops15_Iter_comp_iterINS3_11StrPairLessIS4_EEEEEvT_SG_SG_T0_@Base 2.4.1
 _ZSt11__addressofIKSt4pairIKSsN4CVC36CLFlagEEEPT_RS6_@Base 2.4.1
 _ZSt11__addressofIN4CVC34ExprEEPT_RS2_@Base 2.4.1
 _ZSt11__addressofISt4pairIKSsN4CVC36CLFlagEEEPT_RS5_@Base 2.4.1
 _ZSt11__make_heapIN9__gnu_cxx17__normal_iteratorIPN4CVC34ExprESt6vectorIS3_SaIS3_EEEENS0_5__ops15_Iter_less_iterEEvT_SB_T0_@Base 2.4.1
 _ZSt11__make_heapIN9__gnu_cxx17__normal_iteratorIPSt4pairISsN4CVC34ExprEESt6vectorIS5_SaIS5_EEEENS0_5__ops15_Iter_comp_iterINS3_11StrPairLessIS4_EEEEEvT_SG_T0_@Base 2.4.1
 _ZSt11__make_heapIN9__gnu_cxx17__normal_iteratorIPSt4pairISsN4CVC34TypeEESt6vectorIS5_SaIS5_EEEENS0_5__ops15_Iter_comp_iterINS3_11StrPairLessIS4_EEEEEvT_SG_T0_@Base 2.4.1
 _ZSt12__miter_baseIN9__gnu_cxx17__normal_iteratorIPN4CVC34ExprESt6vectorIS3_SaIS3_EEEEENSt11_Miter_baseIT_E13iterator_typeESA_@Base 2.4.1
 _ZSt12__miter_baseIPN4CVC34ExprEENSt11_Miter_baseIT_E13iterator_typeES4_@Base 2.4.1
 _ZSt12__miter_baseISt16reverse_iteratorIN9__gnu_cxx17__normal_iteratorIPN4CVC34ExprESt6vectorIS4_SaIS4_EEEEEENSt11_Miter_baseIT_E13iterator_typeESC_@Base 2.4.1
 _ZSt12__move_mergeIN9__gnu_cxx17__normal_iteratorIPN4CVC37LiteralESt6vectorIS3_SaIS3_EEEES4_NS0_5__ops15_Iter_comp_iterIPFbRKS3_SC_EEEET0_T_SH_SH_SH_SG_T1_@Base 2.4.1
 _ZSt12__move_mergeIPN4CVC37LiteralEN9__gnu_cxx17__normal_iteratorIS2_St6vectorIS1_SaIS1_EEEENS3_5__ops15_Iter_comp_iterIPFbRKS1_SC_EEEET0_T_SH_SH_SH_SG_T1_@Base 2.4.1
 _ZSt12__niter_baseIN9__gnu_cxx17__normal_iteratorIPN4CVC34ExprESt6vectorIS3_SaIS3_EEEEENSt11_Niter_baseIT_E13iterator_typeESA_@Base 2.4.1
 _ZSt12__niter_baseIPN4CVC34ExprEENSt11_Niter_baseIT_E13iterator_typeES4_@Base 2.4.1
 _ZSt12__niter_baseISt16reverse_iteratorIN9__gnu_cxx17__normal_iteratorIPN4CVC34ExprESt6vectorIS4_SaIS4_EEEEEENSt11_Niter_baseIT_E13iterator_typeESC_@Base 2.4.1
 _ZSt13__adjust_heapIN9__gnu_cxx17__normal_iteratorIPN4CVC34ExprESt6vectorIS3_SaIS3_EEEElS3_NS0_5__ops15_Iter_less_iterEEvT_T0_SC_T1_T2_@Base 2.4.1
 _ZSt13__adjust_heapIN9__gnu_cxx17__normal_iteratorIPN4CVC37TheoremESt6vectorIS3_SaIS3_EEEElS3_NS0_5__ops15_Iter_less_iterEEvT_T0_SC_T1_T2_@Base 2.4.1
 _ZSt13__adjust_heapIN9__gnu_cxx17__normal_iteratorIPN7MiniSat3LitESt6vectorIS3_SaIS3_EEEElS3_NS0_5__ops15_Iter_comp_iterI14lastToFirst_ltEEEvT_T0_SE_T1_T2_@Base 2.4.1
 _ZSt13__adjust_heapIN9__gnu_cxx17__normal_iteratorIPN7MiniSat3LitESt6vectorIS3_SaIS3_EEEElS3_NS0_5__ops15_Iter_less_iterEEvT_T0_SC_T1_T2_@Base 2.4.1
 _ZSt13__adjust_heapIN9__gnu_cxx17__normal_iteratorIPPN7MiniSat6ClauseESt6vectorIS4_SaIS4_EEEElS4_NS0_5__ops15_Iter_comp_iterI11reduceDB_ltEEEvT_T0_SF_T1_T2_@Base 2.4.1
 _ZSt13__adjust_heapIN9__gnu_cxx17__normal_iteratorIPSt4pairISsN4CVC34ExprEESt6vectorIS5_SaIS5_EEEElS5_NS0_5__ops15_Iter_comp_iterINS3_11StrPairLessIS4_EEEEEvT_T0_SH_T1_T2_@Base 2.4.1
 _ZSt13__adjust_heapIN9__gnu_cxx17__normal_iteratorIPSt4pairISsN4CVC34TypeEESt6vectorIS5_SaIS5_EEEElS5_NS0_5__ops15_Iter_comp_iterINS3_11StrPairLessIS4_EEEEEvT_T0_SH_T1_T2_@Base 2.4.1
 _ZSt13__adjust_heapIN9__gnu_cxx17__normal_iteratorIPiSt6vectorIiSaIiEEEEliNS0_5__ops15_Iter_less_iterEEvT_T0_SA_T1_T2_@Base 2.4.1
 _ZSt13__adjust_heapIN9__gnu_cxx17__normal_iteratorIPmSt6vectorImSaImEEEElmNS0_5__ops15_Iter_less_iterEEvT_T0_SA_T1_T2_@Base 2.4.1
 _ZSt13__copy_move_aILb0EPN4CVC34ExprES2_ET1_T0_S4_S3_@Base 2.4.1
 _ZSt13__copy_move_aILb0ESt16reverse_iteratorIN9__gnu_cxx17__normal_iteratorIPN4CVC34ExprESt6vectorIS4_SaIS4_EEEEES5_ET1_T0_SC_SB_@Base 2.4.1
 _ZSt13__heap_selectIN9__gnu_cxx17__normal_iteratorIPSt4pairISsN4CVC34ExprEESt6vectorIS5_SaIS5_EEEENS0_5__ops15_Iter_comp_iterINS3_11StrPairLessIS4_EEEEEvT_SG_SG_T0_@Base 2.4.1
 _ZSt13__heap_selectIN9__gnu_cxx17__normal_iteratorIPSt4pairISsN4CVC34TypeEESt6vectorIS5_SaIS5_EEEENS0_5__ops15_Iter_comp_iterINS3_11StrPairLessIS4_EEEEEvT_SG_SG_T0_@Base 2.4.1
 _ZSt13__lower_boundIN9__gnu_cxx17__normal_iteratorIPN4CVC37LiteralESt6vectorIS3_SaIS3_EEEES3_NS0_5__ops14_Iter_comp_valIPFbRKS3_SC_EEEET_SG_SG_RKT0_T1_@Base 2.4.1
 _ZSt13__stable_sortIN9__gnu_cxx17__normal_iteratorIPN4CVC37LiteralESt6vectorIS3_SaIS3_EEEENS0_5__ops15_Iter_comp_iterIPFbRKS3_SC_EEEEvT_SG_T0_@Base 2.4.1
 _ZSt13__upper_boundIN9__gnu_cxx17__normal_iteratorIPN4CVC37LiteralESt6vectorIS3_SaIS3_EEEES3_NS0_5__ops14_Val_comp_iterIPFbRKS3_SC_EEEET_SG_SG_RKT0_T1_@Base 2.4.1
 _ZSt13copy_backwardIPN4CVC34ExprES2_ET0_T_S4_S3_@Base 2.4.1
 _ZSt14__copy_move_a2ILb0EN9__gnu_cxx17__normal_iteratorIPN4CVC34ExprESt6vectorIS3_SaIS3_EEEES8_ET1_T0_SA_S9_@Base 2.4.1
 _ZSt14__copy_move_a2ILb0ESt16reverse_iteratorIN9__gnu_cxx17__normal_iteratorIPN4CVC34ExprESt6vectorIS4_SaIS4_EEEEES9_ET1_T0_SC_SB_@Base 2.4.1
 _ZSt16__insertion_sortIN9__gnu_cxx17__normal_iteratorIPN4CVC34ExprESt6vectorIS3_SaIS3_EEEENS0_5__ops15_Iter_less_iterEEvT_SB_T0_@Base 2.4.1
 _ZSt16__insertion_sortIN9__gnu_cxx17__normal_iteratorIPN4CVC37LiteralESt6vectorIS3_SaIS3_EEEENS0_5__ops15_Iter_comp_iterIPFbRKS3_SC_EEEEvT_SG_T0_@Base 2.4.1
 _ZSt16__insertion_sortIN9__gnu_cxx17__normal_iteratorIPN4CVC37TheoremESt6vectorIS3_SaIS3_EEEENS0_5__ops15_Iter_less_iterEEvT_SB_T0_@Base 2.4.1
 _ZSt16__insertion_sortIN9__gnu_cxx17__normal_iteratorIPN7MiniSat3LitESt6vectorIS3_SaIS3_EEEENS0_5__ops15_Iter_comp_iterI14lastToFirst_ltEEEvT_SD_T0_@Base 2.4.1
 _ZSt16__insertion_sortIN9__gnu_cxx17__normal_iteratorIPN7MiniSat3LitESt6vectorIS3_SaIS3_EEEENS0_5__ops15_Iter_less_iterEEvT_SB_T0_@Base 2.4.1
 _ZSt16__insertion_sortIN9__gnu_cxx17__normal_iteratorIPPN7MiniSat6ClauseESt6vectorIS4_SaIS4_EEEENS0_5__ops15_Iter_comp_iterI11reduceDB_ltEEEvT_SE_T0_@Base 2.4.1
 _ZSt16__insertion_sortIN9__gnu_cxx17__normal_iteratorIPSt4pairISsN4CVC34ExprEESt6vectorIS5_SaIS5_EEEENS0_5__ops15_Iter_comp_iterINS3_11StrPairLessIS4_EEEEEvT_SG_T0_@Base 2.4.1
 _ZSt16__insertion_sortIN9__gnu_cxx17__normal_iteratorIPSt4pairISsN4CVC34TypeEESt6vectorIS5_SaIS5_EEEENS0_5__ops15_Iter_comp_iterINS3_11StrPairLessIS4_EEEEEvT_SG_T0_@Base 2.4.1
 _ZSt16__insertion_sortIN9__gnu_cxx17__normal_iteratorIPiSt6vectorIiSaIiEEEENS0_5__ops15_Iter_less_iterEEvT_S9_T0_@Base 2.4.1
 _ZSt16__insertion_sortIN9__gnu_cxx17__normal_iteratorIPmSt6vectorImSaImEEEENS0_5__ops15_Iter_less_iterEEvT_S9_T0_@Base 2.4.1
 _ZSt16__introsort_loopIN9__gnu_cxx17__normal_iteratorIPN7MiniSat3LitESt6vectorIS3_SaIS3_EEEElNS0_5__ops15_Iter_comp_iterI14lastToFirst_ltEEEvT_SD_T0_T1_@Base 2.4.1
 _ZSt16__introsort_loopIN9__gnu_cxx17__normal_iteratorIPPN7MiniSat6ClauseESt6vectorIS4_SaIS4_EEEElNS0_5__ops15_Iter_comp_iterI11reduceDB_ltEEEvT_SE_T0_T1_@Base 2.4.1
 _ZSt16__introsort_loopIN9__gnu_cxx17__normal_iteratorIPSt4pairISsN4CVC34ExprEESt6vectorIS5_SaIS5_EEEElNS0_5__ops15_Iter_comp_iterINS3_11StrPairLessIS4_EEEEEvT_SG_T0_T1_@Base 2.4.1
 _ZSt16__introsort_loopIN9__gnu_cxx17__normal_iteratorIPSt4pairISsN4CVC34TypeEESt6vectorIS5_SaIS5_EEEElNS0_5__ops15_Iter_comp_iterINS3_11StrPairLessIS4_EEEEEvT_SG_T0_T1_@Base 2.4.1
 _ZSt16__merge_adaptiveIN9__gnu_cxx17__normal_iteratorIPN4CVC37LiteralESt6vectorIS3_SaIS3_EEEElS4_NS0_5__ops15_Iter_comp_iterIPFbRKS3_SC_EEEEvT_SG_SG_T0_SH_T1_SH_T2_@Base 2.4.1
 _ZSt16__set_differenceISt23_Rb_tree_const_iteratorIN4CVC34ExprEES3_St15insert_iteratorISt8multisetIS2_St4lessIS2_ESaIS2_EEEN9__gnu_cxx5__ops15_Iter_less_iterEET1_T_SF_T0_SG_SE_T2_@Base 2.4.1
 _ZSt18uninitialized_copyIN9__gnu_cxx17__normal_iteratorIPKN4CVC34ExprESt6vectorIS3_SaIS3_EEEEPS3_ET0_T_SC_SB_@Base 2.4.1
 _ZSt18uninitialized_copyIN9__gnu_cxx17__normal_iteratorIPN4CVC34ExprESt6vectorIS3_SaIS3_EEEES4_ET0_T_SA_S9_@Base 2.4.1
 _ZSt18uninitialized_copyIPN4CVC34ExprES2_ET0_T_S4_S3_@Base 2.4.1
 _ZSt18uninitialized_copyISt16reverse_iteratorIN9__gnu_cxx17__normal_iteratorIPN4CVC34ExprESt6vectorIS4_SaIS4_EEEEES5_ET0_T_SC_SB_@Base 2.4.1
 _ZSt19__iterator_categoryIN9__gnu_cxx17__normal_iteratorIPN4CVC34ExprESt6vectorIS3_SaIS3_EEEEENSt15iterator_traitsIT_E17iterator_categoryERKSA_@Base 2.4.1
 _ZSt19__iterator_categoryISt16reverse_iteratorIN9__gnu_cxx17__normal_iteratorIPN4CVC34ExprESt6vectorIS4_SaIS4_EEEEEENSt15iterator_traitsIT_E17iterator_categoryERKSC_@Base 2.4.1
 _ZSt21__inplace_stable_sortIN9__gnu_cxx17__normal_iteratorIPN4CVC37LiteralESt6vectorIS3_SaIS3_EEEENS0_5__ops15_Iter_comp_iterIPFbRKS3_SC_EEEEvT_SG_T0_@Base 2.4.1
 _ZSt22__copy_move_backward_aILb0EPN4CVC34ExprES2_ET1_T0_S4_S3_@Base 2.4.1
 _ZSt22__merge_without_bufferIN9__gnu_cxx17__normal_iteratorIPN4CVC37LiteralESt6vectorIS3_SaIS3_EEEElNS0_5__ops15_Iter_comp_iterIPFbRKS3_SC_EEEEvT_SG_SG_T0_SH_T1_@Base 2.4.1
 _ZSt22__move_median_to_firstIN9__gnu_cxx17__normal_iteratorIPPN7MiniSat6ClauseESt6vectorIS4_SaIS4_EEEENS0_5__ops15_Iter_comp_iterI11reduceDB_ltEEEvT_SE_SE_SE_T0_@Base 2.4.1
 _ZSt22__stable_sort_adaptiveIN9__gnu_cxx17__normal_iteratorIPN4CVC37LiteralESt6vectorIS3_SaIS3_EEEES4_lNS0_5__ops15_Iter_comp_iterIPFbRKS3_SC_EEEEvT_SG_T0_T1_T2_@Base 2.4.1
 _ZSt22__uninitialized_copy_aIN9__gnu_cxx17__normal_iteratorIPKN4CVC34ExprESt6vectorIS3_SaIS3_EEEEPS3_S3_ET0_T_SC_SB_RSaIT1_E@Base 2.4.1
 _ZSt22__uninitialized_copy_aIN9__gnu_cxx17__normal_iteratorIPN4CVC34ExprESt6vectorIS3_SaIS3_EEEES4_S3_ET0_T_SA_S9_RSaIT1_E@Base 2.4.1
 _ZSt22__uninitialized_copy_aIPN4CVC34ExprES2_S1_ET0_T_S4_S3_RSaIT1_E@Base 2.4.1
 _ZSt22__uninitialized_copy_aISt16reverse_iteratorIN9__gnu_cxx17__normal_iteratorIPN4CVC34ExprESt6vectorIS4_SaIS4_EEEEES5_S4_ET0_T_SC_SB_RSaIT1_E@Base 2.4.1
 _ZSt22__uninitialized_move_aIPN4CVC34ExprES2_SaIS1_EET0_T_S5_S4_RT1_@Base 2.4.1
 _ZSt23__copy_move_backward_a2ILb0EPN4CVC34ExprES2_ET1_T0_S4_S3_@Base 2.4.1
 _ZSt24__merge_sort_with_bufferIN9__gnu_cxx17__normal_iteratorIPN4CVC37LiteralESt6vectorIS3_SaIS3_EEEES4_NS0_5__ops15_Iter_comp_iterIPFbRKS3_SC_EEEEvT_SG_T0_T1_@Base 2.4.1
 _ZSt25__unguarded_linear_insertIN9__gnu_cxx17__normal_iteratorIPN7MiniSat3LitESt6vectorIS3_SaIS3_EEEENS0_5__ops14_Val_comp_iterI14lastToFirst_ltEEEvT_T0_@Base 2.4.1
 _ZSt25__unguarded_linear_insertIN9__gnu_cxx17__normal_iteratorIPSt4pairISsN4CVC34ExprEESt6vectorIS5_SaIS5_EEEENS0_5__ops14_Val_comp_iterINS3_11StrPairLessIS4_EEEEEvT_T0_@Base 2.4.1
 _ZSt25__unguarded_linear_insertIN9__gnu_cxx17__normal_iteratorIPSt4pairISsN4CVC34TypeEESt6vectorIS5_SaIS5_EEEENS0_5__ops14_Val_comp_iterINS3_11StrPairLessIS4_EEEEEvT_T0_@Base 2.4.1
 _ZSt34__uninitialized_move_if_noexcept_aIPN4CVC34ExprES2_SaIS1_EET0_T_S5_S4_RT1_@Base 2.4.1
 _ZSt3maxImERKT_S2_S2_@Base 2.4.1
 _ZSt4copyIN9__gnu_cxx17__normal_iteratorIPN4CVC34ExprESt6vectorIS3_SaIS3_EEEES8_ET0_T_SA_S9_@Base 2.4.1
 _ZSt4copyISt16reverse_iteratorIN9__gnu_cxx17__normal_iteratorIPN4CVC34ExprESt6vectorIS4_SaIS4_EEEEES9_ET0_T_SC_SB_@Base 2.4.1
 _ZSt4endlRN4CVC310ExprStreamE@Base 2.4.1
 _ZSt4fillIN3SAT6ClauseEEvRKSt15_Deque_iteratorIT_RS3_PS3_ES8_RKS3_@Base 2.4.1
 _ZSt4swapIN4CVC34ExprEEvRT_S3_@Base 2.4.1
 _ZSt4swapIN4CVC37LiteralEEvRT_S3_@Base 2.4.1
 _ZSt4swapISt4pairISsN4CVC34ExprEEEvRT_S5_@Base 2.4.1
 _ZSt4swapISt4pairISsN4CVC34TypeEEEvRT_S5_@Base 2.4.1
 _ZSt7advanceIN9__gnu_cxx17__normal_iteratorIPN4CVC34ExprESt6vectorIS3_SaIS3_EEEEmEvRT_T0_@Base 2.4.1
 _ZSt7advanceISt16reverse_iteratorIN9__gnu_cxx17__normal_iteratorIPN4CVC34ExprESt6vectorIS4_SaIS4_EEEEEmEvRT_T0_@Base 2.4.1
 _ZSt8_DestroyIN4CVC34ExprEEvPT_@Base 2.4.1
 _ZSt8_DestroyIPN4CVC34ExprEEvT_S3_@Base 2.4.1
 _ZSt8_DestroyIPN4CVC34ExprES1_EvT_S3_RSaIT0_E@Base 2.4.1
 _ZSt8_DestroyISt15_Deque_iteratorIN3SAT6ClauseERS2_PS2_EEvT_S6_@Base 2.4.1
 _ZSt8__rotateIN9__gnu_cxx17__normal_iteratorIPN4CVC37LiteralESt6vectorIS3_SaIS3_EEEEEvT_S9_S9_St26random_access_iterator_tag@Base 2.4.1
 _ZSt8distanceIN9__gnu_cxx17__normal_iteratorIPN4CVC34ExprESt6vectorIS3_SaIS3_EEEEENSt15iterator_traitsIT_E15difference_typeESA_SA_@Base 2.4.1
 _ZSt8distanceISt16reverse_iteratorIN9__gnu_cxx17__normal_iteratorIPN4CVC34ExprESt6vectorIS4_SaIS4_EEEEEENSt15iterator_traitsIT_E15difference_typeESC_SC_@Base 2.4.1
 _ZSt9__advanceIN9__gnu_cxx17__normal_iteratorIPN4CVC34ExprESt6vectorIS3_SaIS3_EEEElEvRT_T0_St26random_access_iterator_tag@Base 2.4.1
 _ZSt9__advanceISt16reverse_iteratorIN9__gnu_cxx17__normal_iteratorIPN4CVC34ExprESt6vectorIS4_SaIS4_EEEEElEvRT_T0_St26random_access_iterator_tag@Base 2.4.1
 _ZSt9__find_ifIN9__gnu_cxx17__normal_iteratorIPiSt6vectorIiSaIiEEEENS0_5__ops16_Iter_equals_valIKiEEET_SB_SB_T0_St26random_access_iterator_tag@Base 2.4.1
 _ZSteqIN9__gnu_cxx17__normal_iteratorIPN4CVC34ExprESt6vectorIS3_SaIS3_EEEEEbRKSt16reverse_iteratorIT_ESD_@Base 2.4.1
 _ZSteqIcSt11char_traitsIcESaIcEEbRKSbIT_T0_T1_EPKS3_@Base 2.4.1
 _ZStltIcSt11char_traitsIcESaIcEEbRKSbIT_T0_T1_ES8_@Base 2.4.1
 _ZStmiIN9__gnu_cxx17__normal_iteratorIPN4CVC34ExprESt6vectorIS3_SaIS3_EEEEENSt16reverse_iteratorIT_E15difference_typeERKSB_SE_@Base 2.4.1
 _ZStneIN9__gnu_cxx17__normal_iteratorIPN4CVC34ExprESt6vectorIS3_SaIS3_EEEEEbRKSt16reverse_iteratorIT_ESD_@Base 2.4.1
 _ZStplIcSt11char_traitsIcESaIcEESbIT_T0_T1_EPKS3_RKS6_@Base 2.4.1
 _ZStplIcSt11char_traitsIcESaIcEESbIT_T0_T1_ERKS6_PKS3_@Base 2.4.1
 _ZStplIcSt11char_traitsIcESaIcEESbIT_T0_T1_ERKS6_S8_@Base 2.4.1
 _ZStplIcSt11char_traitsIcESaIcEESbIT_T0_T1_ES3_RKS6_@Base 2.4.1
 _ZTI10LFSCAssume@Base 2.4.1
 _ZTI10LFSCLraAdd@Base 2.4.1
 _ZTI10LFSCLraSub@Base 2.4.1
 _ZTI11LFSCBoolRes@Base 2.4.1
 _ZTI11LFSCConvert@Base 2.4.1
 _ZTI11LFSCLraMulC@Base 2.4.1
 _ZTI11LFSCLraPoly@Base 2.4.1
 _ZTI11LFSCPrinter@Base 2.4.1
 _ZTI12LFSCClausify@Base 2.4.1
 _ZTI12LFSCLraAxiom@Base 2.4.1
 _ZTI12LFSCPfLambda@Base 2.4.1
 _ZTI13LFSCLraContra@Base 2.4.1
 _ZTI13LFSCProofExpr@Base 2.4.1
 _ZTI16LFSCProofGeneric@Base 2.4.1
 _ZTI3Obj@Base 2.4.1
 _ZTI7LFSCLem@Base 2.4.1
 _ZTI7LFSCObj@Base 2.4.1
 _ZTI7TReturn@Base 2.4.1
 _ZTI9LFSCPfLet@Base 2.4.1
 _ZTI9LFSCPfVar@Base 2.4.1
 _ZTI9LFSCProof@Base 2.4.1
 _ZTIN3SAT10DPLLTBasicE@Base 2.4.1
 _ZTIN3SAT11CNF_FormulaE@Base 2.4.1
 _ZTIN3SAT11CNF_Manager11CNFCallbackE@Base 2.4.1
 _ZTIN3SAT12DPLLTMiniSatE@Base 2.4.1
 _ZTIN3SAT14CD_CNF_FormulaE@Base 2.4.1
 _ZTIN3SAT16CNF_Formula_ImplE@Base 2.4.1
 _ZTIN3SAT5DPLLT7DeciderE@Base 2.4.1
 _ZTIN3SAT5DPLLT9TheoryAPIE@Base 2.4.1
 _ZTIN3SAT5DPLLTE@Base 2.4.1
 _ZTIN4CVC310ContextObjE@Base 2.4.1
 _ZTIN4CVC310ExprSkolemE@Base 2.4.1
 _ZTIN4CVC310ExprStringE@Base 2.4.1
 _ZTIN4CVC310ExprSymbolE@Base 2.4.1
 _ZTIN4CVC310TheoryCore10CoreSatAPIE@Base 2.4.1
 _ZTIN4CVC310TheoryCore13CoreNotifyObjE@Base 2.4.1
 _ZTIN4CVC310TheoryCoreE@Base 2.4.1
 _ZTIN4CVC311BVConstExprE@Base 2.4.1
 _ZTIN4CVC311CLExceptionE@Base 2.4.1
 _ZTIN4CVC311ExprClosureE@Base 2.4.1
 _ZTIN4CVC311ExprManager12TypeComputerE@Base 2.4.1
 _ZTIN4CVC311ExprNodeTmpE@Base 2.4.1
 _ZTIN4CVC311TheoryArithE@Base 2.4.1
 _ZTIN4CVC311TheoryArrayE@Base 2.4.1
 _ZTIN4CVC311TheoryQuantE@Base 2.4.1
 _ZTIN4CVC312ExprApplyTmpE@Base 2.4.1
 _ZTIN4CVC312ExprBoundVarE@Base 2.4.1
 _ZTIN4CVC312ExprRationalE@Base 2.4.1
 _ZTIN4CVC312SearchEngineE@Base 2.4.1
 _ZTIN4CVC312SearchSimpleE@Base 2.4.1
 _ZTIN4CVC312TheoremValueE@Base 2.4.1
 _ZTIN4CVC312TheoryArith3E@Base 2.4.1
 _ZTIN4CVC312UFProofRulesE@Base 2.4.1
 _ZTIN4CVC313EvalExceptionE@Base 2.4.1
 _ZTIN4CVC313MemoryManagerE@Base 2.4.1
 _ZTIN4CVC313PrettyPrinterE@Base 2.4.1
 _ZTIN4CVC313TheoryRecordsE@Base 2.4.1
 _ZTIN4CVC314ArithExceptionE@Base 2.4.1
 _ZTIN4CVC314CoreProofRulesE@Base 2.4.1
 _ZTIN4CVC314DecisionEngineE@Base 2.4.1
 _ZTIN4CVC314RWTheoremValueE@Base 2.4.1
 _ZTIN4CVC314ResetExceptionE@Base 2.4.1
 _ZTIN4CVC314SearchImplBaseE@Base 2.4.1
 _ZTIN4CVC314SoundExceptionE@Base 2.4.1
 _ZTIN4CVC314TheoryArithNewE@Base 2.4.1
 _ZTIN4CVC314TheoryArithOldE@Base 2.4.1
 _ZTIN4CVC314TheoryDatatypeE@Base 2.4.1
 _ZTIN4CVC314TheorySimulateE@Base 2.4.1
 _ZTIN4CVC315ArithProofRulesE@Base 2.4.1
 _ZTIN4CVC315ArrayProofRulesE@Base 2.4.1
 _ZTIN4CVC315ParserExceptionE@Base 2.4.1
 _ZTIN4CVC315QuantProofRulesE@Base 2.4.1
 _ZTIN4CVC315RegTheoremValueE@Base 2.4.1
 _ZTIN4CVC315SmtlibExceptionE@Base 2.4.1
 _ZTIN4CVC315TheoremProducerE@Base 2.4.1
 _ZTIN4CVC315TheoryBitvectorE@Base 2.4.1
 _ZTIN4CVC315ValidityCheckerE@Base 2.4.1
 _ZTIN4CVC316CommonProofRulesE@Base 2.4.1
 _ZTIN4CVC316ContextNotifyObjE@Base 2.4.1
 _ZTIN4CVC316SearchEngineFast21ConflictClauseManagerE@Base 2.4.1
 _ZTIN4CVC316SearchEngineFastE@Base 2.4.1
 _ZTIN4CVC316SearchSatDeciderE@Base 2.4.1
 _ZTIN4CVC316TypeComputerCoreE@Base 2.4.1
 _ZTIN4CVC317DecisionEngineDFSE@Base 2.4.1
 _ZTIN4CVC317PrettyPrinterCoreE@Base 2.4.1
 _ZTIN4CVC317RecordsProofRulesE@Base 2.4.1
 _ZTIN4CVC317SearchEngineRulesE@Base 2.4.1
 _ZTIN4CVC317UFTheoremProducerE@Base 2.4.1
 _ZTIN4CVC318DatatypeProofRulesE@Base 2.4.1
 _ZTIN4CVC318SearchSatTheoryAPIE@Base 2.4.1
 _ZTIN4CVC318SimulateProofRulesE@Base 2.4.1
 _ZTIN4CVC318TheoryDatatypeLazyE@Base 2.4.1
 _ZTIN4CVC318TypecheckExceptionE@Base 2.4.1
 _ZTIN4CVC319BitvectorProofRulesE@Base 2.4.1
 _ZTIN4CVC319CNF_TheoremProducerE@Base 2.4.1
 _ZTIN4CVC319CoreSatAPI_implBaseE@Base 2.4.1
 _ZTIN4CVC319CoreTheoremProducerE@Base 2.4.1
 _ZTIN4CVC319MemoryManagerChunksE@Base 2.4.1
 _ZTIN4CVC319MemoryManagerMallocE@Base 2.4.1
 _ZTIN4CVC319SearchSatCoreSatAPIE@Base 2.4.1
 _ZTIN4CVC320ArithTheoremProducerE@Base 2.4.1
 _ZTIN4CVC320ArrayTheoremProducerE@Base 2.4.1
 _ZTIN4CVC320ContextMemoryManagerE@Base 2.4.1
 _ZTIN4CVC320ExprManagerNotifyObjE@Base 2.4.1
 _ZTIN4CVC320QuantTheoremProducerE@Base 2.4.1
 _ZTIN4CVC320SearchSatCNFCallbackE@Base 2.4.1
 _ZTIN4CVC321ArithTheoremProducer3E@Base 2.4.1
 _ZTIN4CVC321CommonTheoremProducerE@Base 2.4.1
 _ZTIN4CVC322RecordsTheoremProducerE@Base 2.4.1
 _ZTIN4CVC323ArithTheoremProducerOldE@Base 2.4.1
 _ZTIN4CVC323DatatypeTheoremProducerE@Base 2.4.1
 _ZTIN4CVC323SimulateTheoremProducerE@Base 2.4.1
 _ZTIN4CVC324BitvectorTheoremProducerE@Base 2.4.1
 _ZTIN4CVC324VariableManagerNotifyObjE@Base 2.4.1
 _ZTIN4CVC327SearchEngineTheoremProducerE@Base 2.4.1
 _ZTIN4CVC33CDOINS_11QueryResultEEE@Base 2.4.1
 _ZTIN4CVC33CDOINS_4ExprEEE@Base 2.4.1
 _ZTIN4CVC33CDOINS_6ClauseEEE@Base 2.4.1
 _ZTIN4CVC33CDOINS_7TheoremEEE@Base 2.4.1
 _ZTIN4CVC33CDOINS_8RationalEEE@Base 2.4.1
 _ZTIN4CVC33CDOINS_8UnsignedEEE@Base 2.4.1
 _ZTIN4CVC33CDOISt23_Rb_tree_const_iteratorINS_9SearchSat15LitPriorityPairEEEE@Base 2.4.1
 _ZTIN4CVC33CDOIbEE@Base 2.4.1
 _ZTIN4CVC33CDOIiEE@Base 2.4.1
 _ZTIN4CVC33CDOIjEE@Base 2.4.1
 _ZTIN4CVC33CDOImEE@Base 2.4.1
 _ZTIN4CVC33VCLE@Base 2.4.1
 _ZTIN4CVC35CDMapINS_4ExprENS_12TheoryArith39FreeConstEN4Hash4hashIS1_EEEE@Base 2.4.1
 _ZTIN4CVC35CDMapINS_4ExprENS_14TheoryArithNew11EpsRationalEN4Hash4hashIS1_EEEE@Base 2.4.1
 _ZTIN4CVC35CDMapINS_4ExprENS_14TheoryArithNew9BoundInfoEN4Hash4hashIS1_EEEE@Base 2.4.1
 _ZTIN4CVC35CDMapINS_4ExprENS_14TheoryArithNew9FreeConstEN4Hash4hashIS1_EEEE@Base 2.4.1
 _ZTIN4CVC35CDMapINS_4ExprENS_14TheoryArithOld20DifferenceLogicGraph11EpsRationalEN4Hash4hashIS1_EEEE@Base 2.4.1
 _ZTIN4CVC35CDMapINS_4ExprENS_14TheoryArithOld20DifferenceLogicGraph8EdgeInfoEN4Hash4hashIS1_EEEE@Base 2.4.1
 _ZTIN4CVC35CDMapINS_4ExprENS_14TheoryArithOld9FreeConstEN4Hash4hashIS1_EEEE@Base 2.4.1
 _ZTIN4CVC35CDMapINS_4ExprENS_3VCL13UserAssertionEN4Hash4hashIS1_EEEE@Base 2.4.1
 _ZTIN4CVC35CDMapINS_4ExprENS_7LiteralEN4Hash4hashIS1_EEEE@Base 2.4.1
 _ZTIN4CVC35CDMapINS_4ExprENS_7TheoremEN4Hash4hashIS1_EEEE@Base 2.4.1
 _ZTIN4CVC35CDMapINS_4ExprENS_8RationalEN4Hash4hashIS1_EEEE@Base 2.4.1
 _ZTIN4CVC35CDMapINS_4ExprENS_8SmartCDOINS_8UnsignedEEEN4Hash4hashIS1_EEEE@Base 2.4.1
 _ZTIN4CVC35CDMapINS_4ExprEPNS_6CDListINS_7dynTrigEEEN4Hash4hashIS1_EEEE@Base 2.4.1
 _ZTIN4CVC35CDMapINS_4ExprES1_N4Hash4hashIS1_EEEE@Base 2.4.1
 _ZTIN4CVC35CDMapINS_4ExprESt3setISt6vectorIS1_SaIS1_EESt4lessIS5_ESaIS5_EEN4Hash4hashIS1_EEEE@Base 2.4.1
 _ZTIN4CVC35CDMapINS_4ExprESt6vectorIS1_SaIS1_EEN4Hash4hashIS1_EEEE@Base 2.4.1
 _ZTIN4CVC35CDMapINS_4ExprEbN4Hash4hashIS1_EEEE@Base 2.4.1
 _ZTIN4CVC35CDMapINS_4ExprEiN4Hash4hashIS1_EEEE@Base 2.4.1
 _ZTIN4CVC35CDMapISsbN4Hash4hashISsEEEE@Base 2.4.1
 _ZTIN4CVC36CDListIN3SAT6ClauseEEE@Base 2.4.1
 _ZTIN4CVC36CDListINS_11ClauseOwnerEEE@Base 2.4.1
 _ZTIN4CVC36CDListINS_12TheoryArith34IneqEEE@Base 2.4.1
 _ZTIN4CVC36CDListINS_14SearchImplBase8SplitterEEE@Base 2.4.1
 _ZTIN4CVC36CDListINS_14TheoryArithNew4IneqEEE@Base 2.4.1
 _ZTIN4CVC36CDListINS_14TheoryArithOld4IneqEEE@Base 2.4.1
 _ZTIN4CVC36CDListINS_18TheoryDatatypeLazy12ProcessKindsEEE@Base 2.4.1
 _ZTIN4CVC36CDListINS_4ExprEEE@Base 2.4.1
 _ZTIN4CVC36CDListINS_7LiteralEEE@Base 2.4.1
 _ZTIN4CVC36CDListINS_7TheoremEEE@Base 2.4.1
 _ZTIN4CVC36CDListINS_7TriggerEEE@Base 2.4.1
 _ZTIN4CVC36CDListINS_7dynTrigEEE@Base 2.4.1
 _ZTIN4CVC36CDListINS_8SmartCDOINS_7TheoremEEEEE@Base 2.4.1
 _ZTIN4CVC36CDListIPNS_6TheoryEEE@Base 2.4.1
 _ZTIN4CVC36CDListImEE@Base 2.4.1
 _ZTIN4CVC36CDOmapINS_4ExprENS_12TheoryArith39FreeConstEN4Hash4hashIS1_EEEE@Base 2.4.1
 _ZTIN4CVC36CDOmapINS_4ExprENS_14TheoryArithNew11EpsRationalEN4Hash4hashIS1_EEEE@Base 2.4.1
 _ZTIN4CVC36CDOmapINS_4ExprENS_14TheoryArithNew9BoundInfoEN4Hash4hashIS1_EEEE@Base 2.4.1
 _ZTIN4CVC36CDOmapINS_4ExprENS_14TheoryArithNew9FreeConstEN4Hash4hashIS1_EEEE@Base 2.4.1
 _ZTIN4CVC36CDOmapINS_4ExprENS_14TheoryArithOld20DifferenceLogicGraph11EpsRationalEN4Hash4hashIS1_EEEE@Base 2.4.1
 _ZTIN4CVC36CDOmapINS_4ExprENS_14TheoryArithOld20DifferenceLogicGraph8EdgeInfoEN4Hash4hashIS1_EEEE@Base 2.4.1
 _ZTIN4CVC36CDOmapINS_4ExprENS_14TheoryArithOld9FreeConstEN4Hash4hashIS1_EEEE@Base 2.4.1
 _ZTIN4CVC36CDOmapINS_4ExprENS_3VCL13UserAssertionEN4Hash4hashIS1_EEEE@Base 2.4.1
 _ZTIN4CVC36CDOmapINS_4ExprENS_7LiteralEN4Hash4hashIS1_EEEE@Base 2.4.1
 _ZTIN4CVC36CDOmapINS_4ExprENS_7TheoremEN4Hash4hashIS1_EEEE@Base 2.4.1
 _ZTIN4CVC36CDOmapINS_4ExprENS_8RationalEN4Hash4hashIS1_EEEE@Base 2.4.1
 _ZTIN4CVC36CDOmapINS_4ExprENS_8SmartCDOINS_8UnsignedEEEN4Hash4hashIS1_EEEE@Base 2.4.1
 _ZTIN4CVC36CDOmapINS_4ExprEPNS_6CDListINS_7dynTrigEEEN4Hash4hashIS1_EEEE@Base 2.4.1
 _ZTIN4CVC36CDOmapINS_4ExprES1_N4Hash4hashIS1_EEEE@Base 2.4.1
 _ZTIN4CVC36CDOmapINS_4ExprESt3setISt6vectorIS1_SaIS1_EESt4lessIS5_ESaIS5_EEN4Hash4hashIS1_EEEE@Base 2.4.1
 _ZTIN4CVC36CDOmapINS_4ExprESt6vectorIS1_SaIS1_EEN4Hash4hashIS1_EEEE@Base 2.4.1
 _ZTIN4CVC36CDOmapINS_4ExprEbN4Hash4hashIS1_EEEE@Base 2.4.1
 _ZTIN4CVC36CDOmapINS_4ExprEiN4Hash4hashIS1_EEEE@Base 2.4.1
 _ZTIN4CVC36CDOmapISsbN4Hash4hashISsEEEE@Base 2.4.1
 _ZTIN4CVC36TheoryE@Base 2.4.1
 _ZTIN4CVC37CDFlagsE@Base 2.4.1
 _ZTIN4CVC37ExprVarE@Base 2.4.1
 _ZTIN4CVC38ExprNodeE@Base 2.4.1
 _ZTIN4CVC38Rational4ImplE@Base 2.4.1
 _ZTIN4CVC38SmartCDOINS_7TheoremEE6RefCDOIS1_E12RefNotifyObjE@Base 2.4.1
 _ZTIN4CVC38SmartCDOINS_8UnsignedEE6RefCDOIS1_E12RefNotifyObjE@Base 2.4.1
 _ZTIN4CVC38Theorem3E@Base 2.4.1
 _ZTIN4CVC38TheoryUFE@Base 2.4.1
 _ZTIN4CVC38Unsigned4ImplE@Base 2.4.1
 _ZTIN4CVC39CDMapDataE@Base 2.4.1
 _ZTIN4CVC39CNF_RulesE@Base 2.4.1
 _ZTIN4CVC39ExceptionE@Base 2.4.1
 _ZTIN4CVC39ExprApplyE@Base 2.4.1
 _ZTIN4CVC39ExprValueE@Base 2.4.1
 _ZTIN4CVC39SearchSat8RestorerE@Base 2.4.1
 _ZTIN4CVC39SearchSatE@Base 2.4.1
 _ZTIPN4CVC39ExceptionE@Base 2.4.1
 _ZTISt8fdoutbuf@Base 2.4.1
 _ZTISt9fdostream@Base 2.4.1
 _ZTS10LFSCAssume@Base 2.4.1
 _ZTS10LFSCLraAdd@Base 2.4.1
 _ZTS10LFSCLraSub@Base 2.4.1
 _ZTS11LFSCBoolRes@Base 2.4.1
 _ZTS11LFSCConvert@Base 2.4.1
 _ZTS11LFSCLraMulC@Base 2.4.1
 _ZTS11LFSCLraPoly@Base 2.4.1
 _ZTS11LFSCPrinter@Base 2.4.1
 _ZTS12LFSCClausify@Base 2.4.1
 _ZTS12LFSCLraAxiom@Base 2.4.1
 _ZTS12LFSCPfLambda@Base 2.4.1
 _ZTS13LFSCLraContra@Base 2.4.1
 _ZTS13LFSCProofExpr@Base 2.4.1
 _ZTS16LFSCProofGeneric@Base 2.4.1
 _ZTS3Obj@Base 2.4.1
 _ZTS7LFSCLem@Base 2.4.1
 _ZTS7LFSCObj@Base 2.4.1
 _ZTS7TReturn@Base 2.4.1
 _ZTS9LFSCPfLet@Base 2.4.1
 _ZTS9LFSCPfVar@Base 2.4.1
 _ZTS9LFSCProof@Base 2.4.1
 _ZTSN3SAT10DPLLTBasicE@Base 2.4.1
 _ZTSN3SAT11CNF_FormulaE@Base 2.4.1
 _ZTSN3SAT11CNF_Manager11CNFCallbackE@Base 2.4.1
 _ZTSN3SAT12DPLLTMiniSatE@Base 2.4.1
 _ZTSN3SAT14CD_CNF_FormulaE@Base 2.4.1
 _ZTSN3SAT16CNF_Formula_ImplE@Base 2.4.1
 _ZTSN3SAT5DPLLT7DeciderE@Base 2.4.1
 _ZTSN3SAT5DPLLT9TheoryAPIE@Base 2.4.1
 _ZTSN3SAT5DPLLTE@Base 2.4.1
 _ZTSN4CVC310ContextObjE@Base 2.4.1
 _ZTSN4CVC310ExprSkolemE@Base 2.4.1
 _ZTSN4CVC310ExprStringE@Base 2.4.1
 _ZTSN4CVC310ExprSymbolE@Base 2.4.1
 _ZTSN4CVC310TheoryCore10CoreSatAPIE@Base 2.4.1
 _ZTSN4CVC310TheoryCore13CoreNotifyObjE@Base 2.4.1
 _ZTSN4CVC310TheoryCoreE@Base 2.4.1
 _ZTSN4CVC311BVConstExprE@Base 2.4.1
 _ZTSN4CVC311CLExceptionE@Base 2.4.1
 _ZTSN4CVC311ExprClosureE@Base 2.4.1
 _ZTSN4CVC311ExprManager12TypeComputerE@Base 2.4.1
 _ZTSN4CVC311ExprNodeTmpE@Base 2.4.1
 _ZTSN4CVC311TheoryArithE@Base 2.4.1
 _ZTSN4CVC311TheoryArrayE@Base 2.4.1
 _ZTSN4CVC311TheoryQuantE@Base 2.4.1
 _ZTSN4CVC312ExprApplyTmpE@Base 2.4.1
 _ZTSN4CVC312ExprBoundVarE@Base 2.4.1
 _ZTSN4CVC312ExprRationalE@Base 2.4.1
 _ZTSN4CVC312SearchEngineE@Base 2.4.1
 _ZTSN4CVC312SearchSimpleE@Base 2.4.1
 _ZTSN4CVC312TheoremValueE@Base 2.4.1
 _ZTSN4CVC312TheoryArith3E@Base 2.4.1
 _ZTSN4CVC312UFProofRulesE@Base 2.4.1
 _ZTSN4CVC313EvalExceptionE@Base 2.4.1
 _ZTSN4CVC313MemoryManagerE@Base 2.4.1
 _ZTSN4CVC313PrettyPrinterE@Base 2.4.1
 _ZTSN4CVC313TheoryRecordsE@Base 2.4.1
 _ZTSN4CVC314ArithExceptionE@Base 2.4.1
 _ZTSN4CVC314CoreProofRulesE@Base 2.4.1
 _ZTSN4CVC314DecisionEngineE@Base 2.4.1
 _ZTSN4CVC314RWTheoremValueE@Base 2.4.1
 _ZTSN4CVC314ResetExceptionE@Base 2.4.1
 _ZTSN4CVC314SearchImplBaseE@Base 2.4.1
 _ZTSN4CVC314SoundExceptionE@Base 2.4.1
 _ZTSN4CVC314TheoryArithNewE@Base 2.4.1
 _ZTSN4CVC314TheoryArithOldE@Base 2.4.1
 _ZTSN4CVC314TheoryDatatypeE@Base 2.4.1
 _ZTSN4CVC314TheorySimulateE@Base 2.4.1
 _ZTSN4CVC315ArithProofRulesE@Base 2.4.1
 _ZTSN4CVC315ArrayProofRulesE@Base 2.4.1
 _ZTSN4CVC315ParserExceptionE@Base 2.4.1
 _ZTSN4CVC315QuantProofRulesE@Base 2.4.1
 _ZTSN4CVC315RegTheoremValueE@Base 2.4.1
 _ZTSN4CVC315SmtlibExceptionE@Base 2.4.1
 _ZTSN4CVC315TheoremProducerE@Base 2.4.1
 _ZTSN4CVC315TheoryBitvectorE@Base 2.4.1
 _ZTSN4CVC315ValidityCheckerE@Base 2.4.1
 _ZTSN4CVC316CommonProofRulesE@Base 2.4.1
 _ZTSN4CVC316ContextNotifyObjE@Base 2.4.1
 _ZTSN4CVC316SearchEngineFast21ConflictClauseManagerE@Base 2.4.1
 _ZTSN4CVC316SearchEngineFastE@Base 2.4.1
 _ZTSN4CVC316SearchSatDeciderE@Base 2.4.1
 _ZTSN4CVC316TypeComputerCoreE@Base 2.4.1
 _ZTSN4CVC317DecisionEngineDFSE@Base 2.4.1
 _ZTSN4CVC317PrettyPrinterCoreE@Base 2.4.1
 _ZTSN4CVC317RecordsProofRulesE@Base 2.4.1
 _ZTSN4CVC317SearchEngineRulesE@Base 2.4.1
 _ZTSN4CVC317UFTheoremProducerE@Base 2.4.1
 _ZTSN4CVC318DatatypeProofRulesE@Base 2.4.1
 _ZTSN4CVC318SearchSatTheoryAPIE@Base 2.4.1
 _ZTSN4CVC318SimulateProofRulesE@Base 2.4.1
 _ZTSN4CVC318TheoryDatatypeLazyE@Base 2.4.1
 _ZTSN4CVC318TypecheckExceptionE@Base 2.4.1
 _ZTSN4CVC319BitvectorProofRulesE@Base 2.4.1
 _ZTSN4CVC319CNF_TheoremProducerE@Base 2.4.1
 _ZTSN4CVC319CoreSatAPI_implBaseE@Base 2.4.1
 _ZTSN4CVC319CoreTheoremProducerE@Base 2.4.1
 _ZTSN4CVC319MemoryManagerChunksE@Base 2.4.1
 _ZTSN4CVC319MemoryManagerMallocE@Base 2.4.1
 _ZTSN4CVC319SearchSatCoreSatAPIE@Base 2.4.1
 _ZTSN4CVC320ArithTheoremProducerE@Base 2.4.1
 _ZTSN4CVC320ArrayTheoremProducerE@Base 2.4.1
 _ZTSN4CVC320ContextMemoryManagerE@Base 2.4.1
 _ZTSN4CVC320ExprManagerNotifyObjE@Base 2.4.1
 _ZTSN4CVC320QuantTheoremProducerE@Base 2.4.1
 _ZTSN4CVC320SearchSatCNFCallbackE@Base 2.4.1
 _ZTSN4CVC321ArithTheoremProducer3E@Base 2.4.1
 _ZTSN4CVC321CommonTheoremProducerE@Base 2.4.1
 _ZTSN4CVC322RecordsTheoremProducerE@Base 2.4.1
 _ZTSN4CVC323ArithTheoremProducerOldE@Base 2.4.1
 _ZTSN4CVC323DatatypeTheoremProducerE@Base 2.4.1
 _ZTSN4CVC323SimulateTheoremProducerE@Base 2.4.1
 _ZTSN4CVC324BitvectorTheoremProducerE@Base 2.4.1
 _ZTSN4CVC324VariableManagerNotifyObjE@Base 2.4.1
 _ZTSN4CVC327SearchEngineTheoremProducerE@Base 2.4.1
 _ZTSN4CVC33CDOINS_11QueryResultEEE@Base 2.4.1
 _ZTSN4CVC33CDOINS_4ExprEEE@Base 2.4.1
 _ZTSN4CVC33CDOINS_6ClauseEEE@Base 2.4.1
 _ZTSN4CVC33CDOINS_7TheoremEEE@Base 2.4.1
 _ZTSN4CVC33CDOINS_8RationalEEE@Base 2.4.1
 _ZTSN4CVC33CDOINS_8UnsignedEEE@Base 2.4.1
 _ZTSN4CVC33CDOISt23_Rb_tree_const_iteratorINS_9SearchSat15LitPriorityPairEEEE@Base 2.4.1
 _ZTSN4CVC33CDOIbEE@Base 2.4.1
 _ZTSN4CVC33CDOIiEE@Base 2.4.1
 _ZTSN4CVC33CDOIjEE@Base 2.4.1
 _ZTSN4CVC33CDOImEE@Base 2.4.1
 _ZTSN4CVC33VCLE@Base 2.4.1
 _ZTSN4CVC35CDMapINS_4ExprENS_12TheoryArith39FreeConstEN4Hash4hashIS1_EEEE@Base 2.4.1
 _ZTSN4CVC35CDMapINS_4ExprENS_14TheoryArithNew11EpsRationalEN4Hash4hashIS1_EEEE@Base 2.4.1
 _ZTSN4CVC35CDMapINS_4ExprENS_14TheoryArithNew9BoundInfoEN4Hash4hashIS1_EEEE@Base 2.4.1
 _ZTSN4CVC35CDMapINS_4ExprENS_14TheoryArithNew9FreeConstEN4Hash4hashIS1_EEEE@Base 2.4.1
 _ZTSN4CVC35CDMapINS_4ExprENS_14TheoryArithOld20DifferenceLogicGraph11EpsRationalEN4Hash4hashIS1_EEEE@Base 2.4.1
 _ZTSN4CVC35CDMapINS_4ExprENS_14TheoryArithOld20DifferenceLogicGraph8EdgeInfoEN4Hash4hashIS1_EEEE@Base 2.4.1
 _ZTSN4CVC35CDMapINS_4ExprENS_14TheoryArithOld9FreeConstEN4Hash4hashIS1_EEEE@Base 2.4.1
 _ZTSN4CVC35CDMapINS_4ExprENS_3VCL13UserAssertionEN4Hash4hashIS1_EEEE@Base 2.4.1
 _ZTSN4CVC35CDMapINS_4ExprENS_7LiteralEN4Hash4hashIS1_EEEE@Base 2.4.1
 _ZTSN4CVC35CDMapINS_4ExprENS_7TheoremEN4Hash4hashIS1_EEEE@Base 2.4.1
 _ZTSN4CVC35CDMapINS_4ExprENS_8RationalEN4Hash4hashIS1_EEEE@Base 2.4.1
 _ZTSN4CVC35CDMapINS_4ExprENS_8SmartCDOINS_8UnsignedEEEN4Hash4hashIS1_EEEE@Base 2.4.1
 _ZTSN4CVC35CDMapINS_4ExprEPNS_6CDListINS_7dynTrigEEEN4Hash4hashIS1_EEEE@Base 2.4.1
 _ZTSN4CVC35CDMapINS_4ExprES1_N4Hash4hashIS1_EEEE@Base 2.4.1
 _ZTSN4CVC35CDMapINS_4ExprESt3setISt6vectorIS1_SaIS1_EESt4lessIS5_ESaIS5_EEN4Hash4hashIS1_EEEE@Base 2.4.1
 _ZTSN4CVC35CDMapINS_4ExprESt6vectorIS1_SaIS1_EEN4Hash4hashIS1_EEEE@Base 2.4.1
 _ZTSN4CVC35CDMapINS_4ExprEbN4Hash4hashIS1_EEEE@Base 2.4.1
 _ZTSN4CVC35CDMapINS_4ExprEiN4Hash4hashIS1_EEEE@Base 2.4.1
 _ZTSN4CVC35CDMapISsbN4Hash4hashISsEEEE@Base 2.4.1
 _ZTSN4CVC36CDListIN3SAT6ClauseEEE@Base 2.4.1
 _ZTSN4CVC36CDListINS_11ClauseOwnerEEE@Base 2.4.1
 _ZTSN4CVC36CDListINS_12TheoryArith34IneqEEE@Base 2.4.1
 _ZTSN4CVC36CDListINS_14SearchImplBase8SplitterEEE@Base 2.4.1
 _ZTSN4CVC36CDListINS_14TheoryArithNew4IneqEEE@Base 2.4.1
 _ZTSN4CVC36CDListINS_14TheoryArithOld4IneqEEE@Base 2.4.1
 _ZTSN4CVC36CDListINS_18TheoryDatatypeLazy12ProcessKindsEEE@Base 2.4.1
 _ZTSN4CVC36CDListINS_4ExprEEE@Base 2.4.1
 _ZTSN4CVC36CDListINS_7LiteralEEE@Base 2.4.1
 _ZTSN4CVC36CDListINS_7TheoremEEE@Base 2.4.1
 _ZTSN4CVC36CDListINS_7TriggerEEE@Base 2.4.1
 _ZTSN4CVC36CDListINS_7dynTrigEEE@Base 2.4.1
 _ZTSN4CVC36CDListINS_8SmartCDOINS_7TheoremEEEEE@Base 2.4.1
 _ZTSN4CVC36CDListIPNS_6TheoryEEE@Base 2.4.1
 _ZTSN4CVC36CDListImEE@Base 2.4.1
 _ZTSN4CVC36CDOmapINS_4ExprENS_12TheoryArith39FreeConstEN4Hash4hashIS1_EEEE@Base 2.4.1
 _ZTSN4CVC36CDOmapINS_4ExprENS_14TheoryArithNew11EpsRationalEN4Hash4hashIS1_EEEE@Base 2.4.1
 _ZTSN4CVC36CDOmapINS_4ExprENS_14TheoryArithNew9BoundInfoEN4Hash4hashIS1_EEEE@Base 2.4.1
 _ZTSN4CVC36CDOmapINS_4ExprENS_14TheoryArithNew9FreeConstEN4Hash4hashIS1_EEEE@Base 2.4.1
 _ZTSN4CVC36CDOmapINS_4ExprENS_14TheoryArithOld20DifferenceLogicGraph11EpsRationalEN4Hash4hashIS1_EEEE@Base 2.4.1
 _ZTSN4CVC36CDOmapINS_4ExprENS_14TheoryArithOld20DifferenceLogicGraph8EdgeInfoEN4Hash4hashIS1_EEEE@Base 2.4.1
 _ZTSN4CVC36CDOmapINS_4ExprENS_14TheoryArithOld9FreeConstEN4Hash4hashIS1_EEEE@Base 2.4.1
 _ZTSN4CVC36CDOmapINS_4ExprENS_3VCL13UserAssertionEN4Hash4hashIS1_EEEE@Base 2.4.1
 _ZTSN4CVC36CDOmapINS_4ExprENS_7LiteralEN4Hash4hashIS1_EEEE@Base 2.4.1
 _ZTSN4CVC36CDOmapINS_4ExprENS_7TheoremEN4Hash4hashIS1_EEEE@Base 2.4.1
 _ZTSN4CVC36CDOmapINS_4ExprENS_8RationalEN4Hash4hashIS1_EEEE@Base 2.4.1
 _ZTSN4CVC36CDOmapINS_4ExprENS_8SmartCDOINS_8UnsignedEEEN4Hash4hashIS1_EEEE@Base 2.4.1
 _ZTSN4CVC36CDOmapINS_4ExprEPNS_6CDListINS_7dynTrigEEEN4Hash4hashIS1_EEEE@Base 2.4.1
 _ZTSN4CVC36CDOmapINS_4ExprES1_N4Hash4hashIS1_EEEE@Base 2.4.1
 _ZTSN4CVC36CDOmapINS_4ExprESt3setISt6vectorIS1_SaIS1_EESt4lessIS5_ESaIS5_EEN4Hash4hashIS1_EEEE@Base 2.4.1
 _ZTSN4CVC36CDOmapINS_4ExprESt6vectorIS1_SaIS1_EEN4Hash4hashIS1_EEEE@Base 2.4.1
 _ZTSN4CVC36CDOmapINS_4ExprEbN4Hash4hashIS1_EEEE@Base 2.4.1
 _ZTSN4CVC36CDOmapINS_4ExprEiN4Hash4hashIS1_EEEE@Base 2.4.1
 _ZTSN4CVC36CDOmapISsbN4Hash4hashISsEEEE@Base 2.4.1
 _ZTSN4CVC36TheoryE@Base 2.4.1
 _ZTSN4CVC37CDFlagsE@Base 2.4.1
 _ZTSN4CVC37ExprVarE@Base 2.4.1
 _ZTSN4CVC38ExprNodeE@Base 2.4.1
 _ZTSN4CVC38Rational4ImplE@Base 2.4.1
 _ZTSN4CVC38SmartCDOINS_7TheoremEE6RefCDOIS1_E12RefNotifyObjE@Base 2.4.1
 _ZTSN4CVC38SmartCDOINS_8UnsignedEE6RefCDOIS1_E12RefNotifyObjE@Base 2.4.1
 _ZTSN4CVC38Theorem3E@Base 2.4.1
 _ZTSN4CVC38TheoryUFE@Base 2.4.1
 _ZTSN4CVC38Unsigned4ImplE@Base 2.4.1
 _ZTSN4CVC39CDMapDataE@Base 2.4.1
 _ZTSN4CVC39CNF_RulesE@Base 2.4.1
 _ZTSN4CVC39ExceptionE@Base 2.4.1
 _ZTSN4CVC39ExprApplyE@Base 2.4.1
 _ZTSN4CVC39ExprValueE@Base 2.4.1
 _ZTSN4CVC39SearchSat8RestorerE@Base 2.4.1
 _ZTSN4CVC39SearchSatE@Base 2.4.1
 _ZTSPN4CVC39ExceptionE@Base 2.4.1
 _ZTSSt8fdoutbuf@Base 2.4.1
 _ZTSSt9fdostream@Base 2.4.1
 _ZTTSt9fdostream@Base 2.4.1
 _ZTV10LFSCAssume@Base 2.4.1
 _ZTV10LFSCLraAdd@Base 2.4.1
 _ZTV10LFSCLraSub@Base 2.4.1
 _ZTV11LFSCBoolRes@Base 2.4.1
 _ZTV11LFSCConvert@Base 2.4.1
 _ZTV11LFSCLraMulC@Base 2.4.1
 _ZTV11LFSCLraPoly@Base 2.4.1
 _ZTV11LFSCPrinter@Base 2.4.1
 _ZTV12LFSCClausify@Base 2.4.1
 _ZTV12LFSCLraAxiom@Base 2.4.1
 _ZTV12LFSCPfLambda@Base 2.4.1
 _ZTV13LFSCLraContra@Base 2.4.1
 _ZTV13LFSCProofExpr@Base 2.4.1
 _ZTV16LFSCProofGeneric@Base 2.4.1
 _ZTV3Obj@Base 2.4.1
 _ZTV7LFSCLem@Base 2.4.1
 _ZTV7LFSCObj@Base 2.4.1
 _ZTV7TReturn@Base 2.4.1
 _ZTV9LFSCPfLet@Base 2.4.1
 _ZTV9LFSCPfVar@Base 2.4.1
 _ZTV9LFSCProof@Base 2.4.1
 _ZTVN3SAT10DPLLTBasicE@Base 2.4.1
 _ZTVN3SAT11CNF_FormulaE@Base 2.4.1
 _ZTVN3SAT11CNF_Manager11CNFCallbackE@Base 2.4.1
 _ZTVN3SAT12DPLLTMiniSatE@Base 2.4.1
 _ZTVN3SAT14CD_CNF_FormulaE@Base 2.4.1
 _ZTVN3SAT16CNF_Formula_ImplE@Base 2.4.1
 _ZTVN3SAT5DPLLT7DeciderE@Base 2.4.1
 _ZTVN3SAT5DPLLT9TheoryAPIE@Base 2.4.1
 _ZTVN3SAT5DPLLTE@Base 2.4.1
 _ZTVN4CVC310ContextObjE@Base 2.4.1
 _ZTVN4CVC310ExprSkolemE@Base 2.4.1
 _ZTVN4CVC310ExprStringE@Base 2.4.1
 _ZTVN4CVC310ExprSymbolE@Base 2.4.1
 _ZTVN4CVC310TheoryCore10CoreSatAPIE@Base 2.4.1
 _ZTVN4CVC310TheoryCore13CoreNotifyObjE@Base 2.4.1
 _ZTVN4CVC310TheoryCoreE@Base 2.4.1
 _ZTVN4CVC311BVConstExprE@Base 2.4.1
 _ZTVN4CVC311CLExceptionE@Base 2.4.1
 _ZTVN4CVC311ExprClosureE@Base 2.4.1
 _ZTVN4CVC311ExprManager12TypeComputerE@Base 2.4.1
 _ZTVN4CVC311ExprNodeTmpE@Base 2.4.1
 _ZTVN4CVC311TheoryArithE@Base 2.4.1
 _ZTVN4CVC311TheoryArrayE@Base 2.4.1
 _ZTVN4CVC311TheoryQuantE@Base 2.4.1
 _ZTVN4CVC312ExprApplyTmpE@Base 2.4.1
 _ZTVN4CVC312ExprBoundVarE@Base 2.4.1
 _ZTVN4CVC312ExprRationalE@Base 2.4.1
 _ZTVN4CVC312SearchEngineE@Base 2.4.1
 _ZTVN4CVC312SearchSimpleE@Base 2.4.1
 _ZTVN4CVC312TheoremValueE@Base 2.4.1
 _ZTVN4CVC312TheoryArith3E@Base 2.4.1
 _ZTVN4CVC312UFProofRulesE@Base 2.4.1
 _ZTVN4CVC313EvalExceptionE@Base 2.4.1
 _ZTVN4CVC313MemoryManagerE@Base 2.4.1
 _ZTVN4CVC313PrettyPrinterE@Base 2.4.1
 _ZTVN4CVC313TheoryRecordsE@Base 2.4.1
 _ZTVN4CVC314ArithExceptionE@Base 2.4.1
 _ZTVN4CVC314CoreProofRulesE@Base 2.4.1
 _ZTVN4CVC314DecisionEngineE@Base 2.4.1
 _ZTVN4CVC314RWTheoremValueE@Base 2.4.1
 _ZTVN4CVC314ResetExceptionE@Base 2.4.1
 _ZTVN4CVC314SearchImplBaseE@Base 2.4.1
 _ZTVN4CVC314SoundExceptionE@Base 2.4.1
 _ZTVN4CVC314TheoryArithNewE@Base 2.4.1
 _ZTVN4CVC314TheoryArithOldE@Base 2.4.1
 _ZTVN4CVC314TheoryDatatypeE@Base 2.4.1
 _ZTVN4CVC314TheorySimulateE@Base 2.4.1
 _ZTVN4CVC315ArithProofRulesE@Base 2.4.1
 _ZTVN4CVC315ArrayProofRulesE@Base 2.4.1
 _ZTVN4CVC315ParserExceptionE@Base 2.4.1
 _ZTVN4CVC315QuantProofRulesE@Base 2.4.1
 _ZTVN4CVC315RegTheoremValueE@Base 2.4.1
 _ZTVN4CVC315SmtlibExceptionE@Base 2.4.1
 _ZTVN4CVC315TheoremProducerE@Base 2.4.1
 _ZTVN4CVC315TheoryBitvectorE@Base 2.4.1
 _ZTVN4CVC315ValidityCheckerE@Base 2.4.1
 _ZTVN4CVC316CommonProofRulesE@Base 2.4.1
 _ZTVN4CVC316ContextNotifyObjE@Base 2.4.1
 _ZTVN4CVC316SearchEngineFast21ConflictClauseManagerE@Base 2.4.1
 _ZTVN4CVC316SearchEngineFastE@Base 2.4.1
 _ZTVN4CVC316SearchSatDeciderE@Base 2.4.1
 _ZTVN4CVC316TypeComputerCoreE@Base 2.4.1
 _ZTVN4CVC317DecisionEngineDFSE@Base 2.4.1
 _ZTVN4CVC317PrettyPrinterCoreE@Base 2.4.1
 _ZTVN4CVC317RecordsProofRulesE@Base 2.4.1
 _ZTVN4CVC317SearchEngineRulesE@Base 2.4.1
 _ZTVN4CVC317UFTheoremProducerE@Base 2.4.1
 _ZTVN4CVC318DatatypeProofRulesE@Base 2.4.1
 _ZTVN4CVC318SearchSatTheoryAPIE@Base 2.4.1
 _ZTVN4CVC318SimulateProofRulesE@Base 2.4.1
 _ZTVN4CVC318TheoryDatatypeLazyE@Base 2.4.1
 _ZTVN4CVC318TypecheckExceptionE@Base 2.4.1
 _ZTVN4CVC319BitvectorProofRulesE@Base 2.4.1
 _ZTVN4CVC319CNF_TheoremProducerE@Base 2.4.1
 _ZTVN4CVC319CoreSatAPI_implBaseE@Base 2.4.1
 _ZTVN4CVC319CoreTheoremProducerE@Base 2.4.1
 _ZTVN4CVC319MemoryManagerChunksE@Base 2.4.1
 _ZTVN4CVC319MemoryManagerMallocE@Base 2.4.1
 _ZTVN4CVC319SearchSatCoreSatAPIE@Base 2.4.1
 _ZTVN4CVC320ArithTheoremProducerE@Base 2.4.1
 _ZTVN4CVC320ArrayTheoremProducerE@Base 2.4.1
 _ZTVN4CVC320ContextMemoryManagerE@Base 2.4.1
 _ZTVN4CVC320ExprManagerNotifyObjE@Base 2.4.1
 _ZTVN4CVC320QuantTheoremProducerE@Base 2.4.1
 _ZTVN4CVC320SearchSatCNFCallbackE@Base 2.4.1
 _ZTVN4CVC321ArithTheoremProducer3E@Base 2.4.1
 _ZTVN4CVC321CommonTheoremProducerE@Base 2.4.1
 _ZTVN4CVC322RecordsTheoremProducerE@Base 2.4.1
 _ZTVN4CVC323ArithTheoremProducerOldE@Base 2.4.1
 _ZTVN4CVC323DatatypeTheoremProducerE@Base 2.4.1
 _ZTVN4CVC323SimulateTheoremProducerE@Base 2.4.1
 _ZTVN4CVC324BitvectorTheoremProducerE@Base 2.4.1
 _ZTVN4CVC324VariableManagerNotifyObjE@Base 2.4.1
 _ZTVN4CVC327SearchEngineTheoremProducerE@Base 2.4.1
 _ZTVN4CVC33CDOINS_11QueryResultEEE@Base 2.4.1
 _ZTVN4CVC33CDOINS_4ExprEEE@Base 2.4.1
 _ZTVN4CVC33CDOINS_6ClauseEEE@Base 2.4.1
 _ZTVN4CVC33CDOINS_7TheoremEEE@Base 2.4.1
 _ZTVN4CVC33CDOINS_8RationalEEE@Base 2.4.1
 _ZTVN4CVC33CDOINS_8UnsignedEEE@Base 2.4.1
 _ZTVN4CVC33CDOISt23_Rb_tree_const_iteratorINS_9SearchSat15LitPriorityPairEEEE@Base 2.4.1
 _ZTVN4CVC33CDOIbEE@Base 2.4.1
 _ZTVN4CVC33CDOIiEE@Base 2.4.1
 _ZTVN4CVC33CDOIjEE@Base 2.4.1
 _ZTVN4CVC33CDOImEE@Base 2.4.1
 _ZTVN4CVC33VCLE@Base 2.4.1
 _ZTVN4CVC35CDMapINS_4ExprENS_12TheoryArith39FreeConstEN4Hash4hashIS1_EEEE@Base 2.4.1
 _ZTVN4CVC35CDMapINS_4ExprENS_14TheoryArithNew11EpsRationalEN4Hash4hashIS1_EEEE@Base 2.4.1
 _ZTVN4CVC35CDMapINS_4ExprENS_14TheoryArithNew9BoundInfoEN4Hash4hashIS1_EEEE@Base 2.4.1
 _ZTVN4CVC35CDMapINS_4ExprENS_14TheoryArithNew9FreeConstEN4Hash4hashIS1_EEEE@Base 2.4.1
 _ZTVN4CVC35CDMapINS_4ExprENS_14TheoryArithOld20DifferenceLogicGraph11EpsRationalEN4Hash4hashIS1_EEEE@Base 2.4.1
 _ZTVN4CVC35CDMapINS_4ExprENS_14TheoryArithOld20DifferenceLogicGraph8EdgeInfoEN4Hash4hashIS1_EEEE@Base 2.4.1
 _ZTVN4CVC35CDMapINS_4ExprENS_14TheoryArithOld9FreeConstEN4Hash4hashIS1_EEEE@Base 2.4.1
 _ZTVN4CVC35CDMapINS_4ExprENS_3VCL13UserAssertionEN4Hash4hashIS1_EEEE@Base 2.4.1
 _ZTVN4CVC35CDMapINS_4ExprENS_7LiteralEN4Hash4hashIS1_EEEE@Base 2.4.1
 _ZTVN4CVC35CDMapINS_4ExprENS_7TheoremEN4Hash4hashIS1_EEEE@Base 2.4.1
 _ZTVN4CVC35CDMapINS_4ExprENS_8RationalEN4Hash4hashIS1_EEEE@Base 2.4.1
 _ZTVN4CVC35CDMapINS_4ExprENS_8SmartCDOINS_8UnsignedEEEN4Hash4hashIS1_EEEE@Base 2.4.1
 _ZTVN4CVC35CDMapINS_4ExprEPNS_6CDListINS_7dynTrigEEEN4Hash4hashIS1_EEEE@Base 2.4.1
 _ZTVN4CVC35CDMapINS_4ExprES1_N4Hash4hashIS1_EEEE@Base 2.4.1
 _ZTVN4CVC35CDMapINS_4ExprESt3setISt6vectorIS1_SaIS1_EESt4lessIS5_ESaIS5_EEN4Hash4hashIS1_EEEE@Base 2.4.1
 _ZTVN4CVC35CDMapINS_4ExprESt6vectorIS1_SaIS1_EEN4Hash4hashIS1_EEEE@Base 2.4.1
 _ZTVN4CVC35CDMapINS_4ExprEbN4Hash4hashIS1_EEEE@Base 2.4.1
 _ZTVN4CVC35CDMapINS_4ExprEiN4Hash4hashIS1_EEEE@Base 2.4.1
 _ZTVN4CVC35CDMapISsbN4Hash4hashISsEEEE@Base 2.4.1
 _ZTVN4CVC36CDListIN3SAT6ClauseEEE@Base 2.4.1
 _ZTVN4CVC36CDListINS_11ClauseOwnerEEE@Base 2.4.1
 _ZTVN4CVC36CDListINS_12TheoryArith34IneqEEE@Base 2.4.1
 _ZTVN4CVC36CDListINS_14SearchImplBase8SplitterEEE@Base 2.4.1
 _ZTVN4CVC36CDListINS_14TheoryArithNew4IneqEEE@Base 2.4.1
 _ZTVN4CVC36CDListINS_14TheoryArithOld4IneqEEE@Base 2.4.1
 _ZTVN4CVC36CDListINS_18TheoryDatatypeLazy12ProcessKindsEEE@Base 2.4.1
 _ZTVN4CVC36CDListINS_4ExprEEE@Base 2.4.1
 _ZTVN4CVC36CDListINS_7LiteralEEE@Base 2.4.1
 _ZTVN4CVC36CDListINS_7TheoremEEE@Base 2.4.1
 _ZTVN4CVC36CDListINS_7TriggerEEE@Base 2.4.1
 _ZTVN4CVC36CDListINS_7dynTrigEEE@Base 2.4.1
 _ZTVN4CVC36CDListINS_8SmartCDOINS_7TheoremEEEEE@Base 2.4.1
 _ZTVN4CVC36CDListIPNS_6TheoryEEE@Base 2.4.1
 _ZTVN4CVC36CDListImEE@Base 2.4.1
 _ZTVN4CVC36CDOmapINS_4ExprENS_12TheoryArith39FreeConstEN4Hash4hashIS1_EEEE@Base 2.4.1
 _ZTVN4CVC36CDOmapINS_4ExprENS_14TheoryArithNew11EpsRationalEN4Hash4hashIS1_EEEE@Base 2.4.1
 _ZTVN4CVC36CDOmapINS_4ExprENS_14TheoryArithNew9BoundInfoEN4Hash4hashIS1_EEEE@Base 2.4.1
 _ZTVN4CVC36CDOmapINS_4ExprENS_14TheoryArithNew9FreeConstEN4Hash4hashIS1_EEEE@Base 2.4.1
 _ZTVN4CVC36CDOmapINS_4ExprENS_14TheoryArithOld20DifferenceLogicGraph11EpsRationalEN4Hash4hashIS1_EEEE@Base 2.4.1
 _ZTVN4CVC36CDOmapINS_4ExprENS_14TheoryArithOld20DifferenceLogicGraph8EdgeInfoEN4Hash4hashIS1_EEEE@Base 2.4.1
 _ZTVN4CVC36CDOmapINS_4ExprENS_14TheoryArithOld9FreeConstEN4Hash4hashIS1_EEEE@Base 2.4.1
 _ZTVN4CVC36CDOmapINS_4ExprENS_3VCL13UserAssertionEN4Hash4hashIS1_EEEE@Base 2.4.1
 _ZTVN4CVC36CDOmapINS_4ExprENS_7LiteralEN4Hash4hashIS1_EEEE@Base 2.4.1
 _ZTVN4CVC36CDOmapINS_4ExprENS_7TheoremEN4Hash4hashIS1_EEEE@Base 2.4.1
 _ZTVN4CVC36CDOmapINS_4ExprENS_8RationalEN4Hash4hashIS1_EEEE@Base 2.4.1
 _ZTVN4CVC36CDOmapINS_4ExprENS_8SmartCDOINS_8UnsignedEEEN4Hash4hashIS1_EEEE@Base 2.4.1
 _ZTVN4CVC36CDOmapINS_4ExprEPNS_6CDListINS_7dynTrigEEEN4Hash4hashIS1_EEEE@Base 2.4.1
 _ZTVN4CVC36CDOmapINS_4ExprES1_N4Hash4hashIS1_EEEE@Base 2.4.1
 _ZTVN4CVC36CDOmapINS_4ExprESt3setISt6vectorIS1_SaIS1_EESt4lessIS5_ESaIS5_EEN4Hash4hashIS1_EEEE@Base 2.4.1
 _ZTVN4CVC36CDOmapINS_4ExprESt6vectorIS1_SaIS1_EEN4Hash4hashIS1_EEEE@Base 2.4.1
 _ZTVN4CVC36CDOmapINS_4ExprEbN4Hash4hashIS1_EEEE@Base 2.4.1
 _ZTVN4CVC36CDOmapINS_4ExprEiN4Hash4hashIS1_EEEE@Base 2.4.1
 _ZTVN4CVC36CDOmapISsbN4Hash4hashISsEEEE@Base 2.4.1
 _ZTVN4CVC36TheoryE@Base 2.4.1
 _ZTVN4CVC37CDFlagsE@Base 2.4.1
 _ZTVN4CVC37ExprVarE@Base 2.4.1
 _ZTVN4CVC38ExprNodeE@Base 2.4.1
 _ZTVN4CVC38Rational4ImplE@Base 2.4.1
 _ZTVN4CVC38SmartCDOINS_7TheoremEE6RefCDOIS1_E12RefNotifyObjE@Base 2.4.1
 _ZTVN4CVC38SmartCDOINS_8UnsignedEE6RefCDOIS1_E12RefNotifyObjE@Base 2.4.1
 _ZTVN4CVC38Theorem3E@Base 2.4.1
 _ZTVN4CVC38TheoryUFE@Base 2.4.1
 _ZTVN4CVC38Unsigned4ImplE@Base 2.4.1
 _ZTVN4CVC39CDMapDataE@Base 2.4.1
 _ZTVN4CVC39CNF_RulesE@Base 2.4.1
 _ZTVN4CVC39ExceptionE@Base 2.4.1
 _ZTVN4CVC39ExprApplyE@Base 2.4.1
 _ZTVN4CVC39ExprValueE@Base 2.4.1
 _ZTVN4CVC39SearchSat8RestorerE@Base 2.4.1
 _ZTVN4CVC39SearchSatE@Base 2.4.1
 _ZTVSt8fdoutbuf@Base 2.4.1
 _ZTVSt9fdostream@Base 2.4.1
 _ZThn8_N4CVC317UFTheoremProducerD0Ev@Base 2.4.1
 _ZThn8_N4CVC317UFTheoremProducerD1Ev@Base 2.4.1
 _ZThn8_N4CVC319CNF_TheoremProducerD0Ev@Base 2.4.1
 _ZThn8_N4CVC319CNF_TheoremProducerD1Ev@Base 2.4.1
 _ZThn8_N4CVC319CoreTheoremProducerD0Ev@Base 2.4.1
 _ZThn8_N4CVC319CoreTheoremProducerD1Ev@Base 2.4.1
 _ZThn8_N4CVC320ArithTheoremProducerD0Ev@Base 2.4.1
 _ZThn8_N4CVC320ArithTheoremProducerD1Ev@Base 2.4.1
 _ZThn8_N4CVC320ArrayTheoremProducerD0Ev@Base 2.4.1
 _ZThn8_N4CVC320ArrayTheoremProducerD1Ev@Base 2.4.1
 _ZThn8_N4CVC320QuantTheoremProducerD0Ev@Base 2.4.1
 _ZThn8_N4CVC320QuantTheoremProducerD1Ev@Base 2.4.1
 _ZThn8_N4CVC321ArithTheoremProducer3D0Ev@Base 2.4.1
 _ZThn8_N4CVC321ArithTheoremProducer3D1Ev@Base 2.4.1
 _ZThn8_N4CVC321CommonTheoremProducerD0Ev@Base 2.4.1
 _ZThn8_N4CVC321CommonTheoremProducerD1Ev@Base 2.4.1
 _ZThn8_N4CVC322RecordsTheoremProducerD0Ev@Base 2.4.1
 _ZThn8_N4CVC322RecordsTheoremProducerD1Ev@Base 2.4.1
 _ZThn8_N4CVC323ArithTheoremProducerOldD0Ev@Base 2.4.1
 _ZThn8_N4CVC323ArithTheoremProducerOldD1Ev@Base 2.4.1
 _ZThn8_N4CVC323DatatypeTheoremProducerD0Ev@Base 2.4.1
 _ZThn8_N4CVC323DatatypeTheoremProducerD1Ev@Base 2.4.1
 _ZThn8_N4CVC323SimulateTheoremProducerD0Ev@Base 2.4.1
 _ZThn8_N4CVC323SimulateTheoremProducerD1Ev@Base 2.4.1
 _ZThn8_N4CVC324BitvectorTheoremProducerD0Ev@Base 2.4.1
 _ZThn8_N4CVC324BitvectorTheoremProducerD1Ev@Base 2.4.1
 _ZThn8_N4CVC327SearchEngineTheoremProducerD0Ev@Base 2.4.1
 _ZThn8_N4CVC327SearchEngineTheoremProducerD1Ev@Base 2.4.1
 _ZTv0_n24_NSt9fdostreamD0Ev@Base 2.4.1
 _ZTv0_n24_NSt9fdostreamD1Ev@Base 2.4.1
 _ZZN4CVC311ExprManager15newBoundVarExprERKNS_4TypeEE7nextNum@Base 2.4.1
 _ZZN9LFSCProof12print_structERSoiE9psCounter@Base 2.4.1
 _ZZNK4CVC313VariableValue10getTheoremEvE4null@Base 2.4.1
 _ZZNK4CVC313VariableValue12getAssumpThmEvE4null@Base 2.4.1
 _ZZNK4CVC313VariableValue13getAntecedentEvE4null@Base 2.4.1
 _ZZNK4CVC34Expr6getRepEvE7nullThm@Base 2.4.1
 _ZZNK4CVC34Expr6getSigEvE7nullThm@Base 2.4.1
 _ZZNK4CVC38Rational4Impl11getUnsignedEvE3max@Base 2.4.1
 _ZZNK4CVC38Rational4Impl11getUnsignedEvE3min@Base 2.4.1
 _ZZNK4CVC38Rational4Impl6getIntEvE3max@Base 2.4.1
 _ZZNK4CVC38Rational4Impl6getIntEvE3min@Base 2.4.1
 _ZZNK4CVC38Unsigned4Impl11getUnsignedEvE3max@Base 2.4.1
 _ZZNK4CVC39ExprValue10getTheoremEvE4null@Base 2.4.1
 _ZZNK4CVC39ExprValue11getRationalEvE1r@Base 2.4.1
 _ZZNK4CVC39ExprValue11getTriggersEvE4null@Base 2.4.1
 _ZZNK4CVC39ExprValue14getExistentialEvE4null@Base 2.4.1
 _ZZNK4CVC39ExprValue6getUidEvE4null@Base 2.4.1
 _ZZNK4CVC39ExprValue6getVarEvE4null@Base 2.4.1
 _ZZNK4CVC39ExprValue7getBodyEvE4null@Base 2.4.1
 _ZZNK4CVC39ExprValue7getNameEvE3ret@Base 2.4.1
 _ZZNK4CVC39ExprValue7getVarsEvE4null@Base 2.4.1
 _ZZNK4CVC39ExprValue8getFieldEvE4null@Base 2.4.1
 _ZZNK4CVC39ExprValue9getFieldsEvE4null@Base 2.4.1
 _ZZNK4CVC39ExprValue9getStringEvE1s@Base 2.4.1
 _ZdlPvS_@Base 2.4.1
 _ZnwmPv@Base 2.4.1
 c_interface_error_flag@Base 2.4.1
 c_interface_error_message@Base 2.4.1
 c_interface_error_string@Base 2.4.1
 debug_skolem@Base 2.4.1
 debug_write@Base 2.4.1
 lfsc_called@Base 2.4.1
 search_engine@Base 2.4.1
 smtlib2_flex_debug@Base 2.4.1
 smtlib2char@Base 2.4.1
 smtlib2debug@Base 2.4.1
 smtlib2in@Base 2.4.1
 smtlib2leng@Base 2.4.1
 smtlib2lineno@Base 2.4.1
 smtlib2lval@Base 2.4.1
 smtlib2nerrs@Base 2.4.1
 smtlib2out@Base 2.4.1
 smtlib2text@Base 2.4.1
 smtlib_flex_debug@Base 2.4.1
 smtlibchar@Base 2.4.1
 smtlibdebug@Base 2.4.1
 smtlibin@Base 2.4.1
 smtlibleng@Base 2.4.1
 smtliblineno@Base 2.4.1
 smtliblval@Base 2.4.1
 smtlibnerrs@Base 2.4.1
 smtlibout@Base 2.4.1
 smtlibtext@Base 2.4.1
 vMap@Base 2.4.1
 vc_andExpr@Base 2.4.1
 vc_andExprN@Base 2.4.1
 vc_arity@Base 2.4.1
 vc_arrayType@Base 2.4.1
 vc_assertFormula@Base 2.4.1
 vc_boolType@Base 2.4.1
 vc_boundVarExpr@Base 2.4.1
 vc_bv32ConstExprFromInt@Base 2.4.1
 vc_bv32LeftShiftExpr@Base 2.4.1
 vc_bv32MinusExpr@Base 2.4.1
 vc_bv32MultExpr@Base 2.4.1
 vc_bv32PlusExpr@Base 2.4.1
 vc_bv32RightShiftExpr@Base 2.4.1
 vc_bv32Type@Base 2.4.1
 vc_bvAndExpr@Base 2.4.1
 vc_bvBoolExtract@Base 2.4.1
 vc_bvConcatExpr@Base 2.4.1
 vc_bvConcatExprN@Base 2.4.1
 vc_bvConstExprFromInt@Base 2.4.1
 vc_bvConstExprFromLL@Base 2.4.1
 vc_bvConstExprFromStr@Base 2.4.1
 vc_bvCreateMemoryArray@Base 2.4.1
 vc_bvExtract@Base 2.4.1
 vc_bvGeExpr@Base 2.4.1
 vc_bvGtExpr@Base 2.4.1
 vc_bvLeExpr@Base 2.4.1
 vc_bvLeftShiftExpr@Base 2.4.1
 vc_bvLtExpr@Base 2.4.1
 vc_bvMinusExpr@Base 2.4.1
 vc_bvMultExpr@Base 2.4.1
 vc_bvNotExpr@Base 2.4.1
 vc_bvOrExpr@Base 2.4.1
 vc_bvPlusExpr@Base 2.4.1
 vc_bvReadMemoryArray@Base 2.4.1
 vc_bvRightShiftExpr@Base 2.4.1
 vc_bvSDivExpr@Base 2.4.1
 vc_bvSGeExpr@Base 2.4.1
 vc_bvSGtExpr@Base 2.4.1
 vc_bvSLeExpr@Base 2.4.1
 vc_bvSLtExpr@Base 2.4.1
 vc_bvSModExpr@Base 2.4.1
 vc_bvSRemExpr@Base 2.4.1
 vc_bvSignExtend@Base 2.4.1
 vc_bvType@Base 2.4.1
 vc_bvUDivExpr@Base 2.4.1
 vc_bvUMinusExpr@Base 2.4.1
 vc_bvURemExpr@Base 2.4.1
 vc_bvVar32DivByPowOfTwoExpr@Base 2.4.1
 vc_bvVar32LeftShiftExpr@Base 2.4.1
 vc_bvVar32RightShiftExpr@Base 2.4.1
 vc_bvWriteToMemoryArray@Base 2.4.1
 vc_bvXorExpr@Base 2.4.1
 vc_checkContinue@Base 2.4.1
 vc_compare_exprs@Base 2.4.1
 vc_createFlags@Base 2.4.1
 vc_createOp@Base 2.4.1
 vc_createOpDef@Base 2.4.1
 vc_createType@Base 2.4.1
 vc_createValidityChecker@Base 2.4.1
 vc_dataType1@Base 2.4.1
 vc_dataTypeMN@Base 2.4.1
 vc_dataTypeN@Base 2.4.1
 vc_datatypeConsExpr@Base 2.4.1
 vc_datatypeSelExpr@Base 2.4.1
 vc_datatypeTestExpr@Base 2.4.1
 vc_deleteExpr@Base 2.4.1
 vc_deleteFlags@Base 2.4.1
 vc_deleteOp@Base 2.4.1
 vc_deleteString@Base 2.4.1
 vc_deleteType@Base 2.4.1
 vc_deleteTypeVector@Base 2.4.1
 vc_deleteVector@Base 2.4.1
 vc_destroyValidityChecker@Base 2.4.1
 vc_distinctExpr@Base 2.4.1
 vc_divideExpr@Base 2.4.1
 vc_eqExpr@Base 2.4.1
 vc_existsExpr@Base 2.4.1
 vc_exprString@Base 2.4.1
 vc_falseExpr@Base 2.4.1
 vc_forallExpr@Base 2.4.1
 vc_funExpr1@Base 2.4.1
 vc_funExpr2@Base 2.4.1
 vc_funExpr3@Base 2.4.1
 vc_funExprN@Base 2.4.1
 vc_funType1@Base 2.4.1
 vc_funType2@Base 2.4.1
 vc_funType3@Base 2.4.1
 vc_funTypeN@Base 2.4.1
 vc_geExpr@Base 2.4.1
 vc_getAssumptions@Base 2.4.1
 vc_getAssumptionsTCC@Base 2.4.1
 vc_getAssumptionsUsed@Base 2.4.1
 vc_getBVInt@Base 2.4.1
 vc_getBVUnsigned@Base 2.4.1
 vc_getBaseType@Base 2.4.1
 vc_getBaseTypeOfType@Base 2.4.1
 vc_getBody@Base 2.4.1
 vc_getChild@Base 2.4.1
 vc_getClosure@Base 2.4.1
 vc_getConcreteModel@Base 2.4.1
 vc_getCounterExample@Base 2.4.1
 vc_getCurrentContext@Base 2.4.1
 vc_getEM@Base 2.4.1
 vc_getExistential@Base 2.4.1
 vc_getFun@Base 2.4.1
 vc_getImpliedLiteral@Base 2.4.1
 vc_getInt@Base 2.4.1
 vc_getInternalAssumptions@Base 2.4.1
 vc_getKind@Base 2.4.1
 vc_getKindInt@Base 2.4.1
 vc_getKindString@Base 2.4.1
 vc_getNumVars@Base 2.4.1
 vc_getProof@Base 2.4.1
 vc_getProofAssumptions@Base 2.4.1
 vc_getProofClosure@Base 2.4.1
 vc_getProofOfFile@Base 2.4.1
 vc_getProofQuery@Base 2.4.1
 vc_getProofTCC@Base 2.4.1
 vc_getTCC@Base 2.4.1
 vc_getType@Base 2.4.1
 vc_getTypePred@Base 2.4.1
 vc_getUserAssumptions@Base 2.4.1
 vc_getVar@Base 2.4.1
 vc_get_error_status@Base 2.4.1
 vc_get_error_string@Base 2.4.1
 vc_gtExpr@Base 2.4.1
 vc_idExpr@Base 2.4.1
 vc_iffExpr@Base 2.4.1
 vc_impliesExpr@Base 2.4.1
 vc_importExpr@Base 2.4.1
 vc_importType@Base 2.4.1
 vc_incomplete@Base 2.4.1
 vc_inconsistent@Base 2.4.1
 vc_intType@Base 2.4.1
 vc_isClosure@Base 2.4.1
 vc_isLambda@Base 2.4.1
 vc_isQuantifier@Base 2.4.1
 vc_isVar@Base 2.4.1
 vc_iteExpr@Base 2.4.1
 vc_lambdaExpr@Base 2.4.1
 vc_leExpr@Base 2.4.1
 vc_listExpr@Base 2.4.1
 vc_lookupOp@Base 2.4.1
 vc_lookupType@Base 2.4.1
 vc_lookupVar@Base 2.4.1
 vc_ltExpr@Base 2.4.1
 vc_minusExpr@Base 2.4.1
 vc_multExpr@Base 2.4.1
 vc_notExpr@Base 2.4.1
 vc_orExpr@Base 2.4.1
 vc_orExprN@Base 2.4.1
 vc_plusExpr@Base 2.4.1
 vc_plusExprN@Base 2.4.1
 vc_pop@Base 2.4.1
 vc_popto@Base 2.4.1
 vc_powExpr@Base 2.4.1
 vc_printExpr@Base 2.4.1
 vc_printExprFile@Base 2.4.1
 vc_printExprString@Base 2.4.1
 vc_print_statistics@Base 2.4.1
 vc_push@Base 2.4.1
 vc_query@Base 2.4.1
 vc_ratExpr@Base 2.4.1
 vc_ratExprFromStr1@Base 2.4.1
 vc_ratExprFromStr@Base 2.4.1
 vc_readExpr@Base 2.4.1
 vc_realType@Base 2.4.1
 vc_recSelectExpr@Base 2.4.1
 vc_recUpdateExpr@Base 2.4.1
 vc_recordExpr1@Base 2.4.1
 vc_recordExpr2@Base 2.4.1
 vc_recordExpr3@Base 2.4.1
 vc_recordExprN@Base 2.4.1
 vc_recordType1@Base 2.4.1
 vc_recordType2@Base 2.4.1
 vc_recordType3@Base 2.4.1
 vc_recordTypeN@Base 2.4.1
 vc_registerAtom@Base 2.4.1
 vc_reset_error_status@Base 2.4.1
 vc_restart@Base 2.4.1
 vc_returnFromCheck@Base 2.4.1
 vc_setBoolFlag@Base 2.4.1
 vc_setIntFlag@Base 2.4.1
 vc_setResourceLimit@Base 2.4.1
 vc_setStrSeqFlag@Base 2.4.1
 vc_setStringFlag@Base 2.4.1
 vc_setTriggers@Base 2.4.1
 vc_simplify@Base 2.4.1
 vc_stackLevel@Base 2.4.1
 vc_stringExpr@Base 2.4.1
 vc_subRangeType@Base 2.4.1
 vc_substExpr@Base 2.4.1
 vc_subtypeType@Base 2.4.1
 vc_toExpr@Base 2.4.1
 vc_trueExpr@Base 2.4.1
 vc_tupleExprN@Base 2.4.1
 vc_tupleSelectExpr@Base 2.4.1
 vc_tupleType2@Base 2.4.1
 vc_tupleType3@Base 2.4.1
 vc_tupleTypeN@Base 2.4.1
 vc_tupleUpdateExpr@Base 2.4.1
 vc_typeString@Base 2.4.1
 vc_uminusExpr@Base 2.4.1
 vc_varExpr@Base 2.4.1
 vc_varExprDef@Base 2.4.1
 vc_writeExpr@Base 2.4.1
libcvc3jni.so.5.0 libcvc3-5 #MINVER#
 Java_cvc3_EmbeddedManager_jniDelete@Base 2.4.1
 Java_cvc3_ExprManager_jniGetInputLanguage@Base 2.4.1
 Java_cvc3_ExprManager_jniGetOutputLanguage@Base 2.4.1
 Java_cvc3_Expr_jniArity@Base 2.4.1
 Java_cvc3_Expr_jniEquals@Base 2.4.1
 Java_cvc3_Expr_jniGetBody@Base 2.4.1
 Java_cvc3_Expr_jniGetBoundIndex@Base 2.4.1
 Java_cvc3_Expr_jniGetExistential@Base 2.4.1
 Java_cvc3_Expr_jniGetKid@Base 2.4.1
 Java_cvc3_Expr_jniGetKids@Base 2.4.1
 Java_cvc3_Expr_jniGetKind@Base 2.4.1
 Java_cvc3_Expr_jniGetName@Base 2.4.1
 Java_cvc3_Expr_jniGetOp@Base 2.4.1
 Java_cvc3_Expr_jniGetOpExpr@Base 2.4.1
 Java_cvc3_Expr_jniGetRational@Base 2.4.1
 Java_cvc3_Expr_jniGetString@Base 2.4.1
 Java_cvc3_Expr_jniGetTheorem@Base 2.4.1
 Java_cvc3_Expr_jniGetTriggers@Base 2.4.1
 Java_cvc3_Expr_jniGetType@Base 2.4.1
 Java_cvc3_Expr_jniGetUid@Base 2.4.1
 Java_cvc3_Expr_jniGetVars@Base 2.4.1
 Java_cvc3_Expr_jniHash@Base 2.4.1
 Java_cvc3_Expr_jniIsAbsAtomicFormula@Base 2.4.1
 Java_cvc3_Expr_jniIsAbsLiteral@Base 2.4.1
 Java_cvc3_Expr_jniIsAnd@Base 2.4.1
 Java_cvc3_Expr_jniIsApply@Base 2.4.1
 Java_cvc3_Expr_jniIsArrayLiteral@Base 2.4.1
 Java_cvc3_Expr_jniIsAtomic@Base 2.4.1
 Java_cvc3_Expr_jniIsAtomicFormula@Base 2.4.1
 Java_cvc3_Expr_jniIsBoolConnective@Base 2.4.1
 Java_cvc3_Expr_jniIsBoolConst@Base 2.4.1
 Java_cvc3_Expr_jniIsBoundVar@Base 2.4.1
 Java_cvc3_Expr_jniIsBvConcat@Base 2.4.1
 Java_cvc3_Expr_jniIsBvConst@Base 2.4.1
 Java_cvc3_Expr_jniIsBvExtract@Base 2.4.1
 Java_cvc3_Expr_jniIsBvGe@Base 2.4.1
 Java_cvc3_Expr_jniIsBvGt@Base 2.4.1
 Java_cvc3_Expr_jniIsBvLe@Base 2.4.1
 Java_cvc3_Expr_jniIsBvLt@Base 2.4.1
 Java_cvc3_Expr_jniIsBvPlus@Base 2.4.1
 Java_cvc3_Expr_jniIsBvSub@Base 2.4.1
 Java_cvc3_Expr_jniIsClosure@Base 2.4.1
 Java_cvc3_Expr_jniIsDivide@Base 2.4.1
 Java_cvc3_Expr_jniIsEq@Base 2.4.1
 Java_cvc3_Expr_jniIsExists@Base 2.4.1
 Java_cvc3_Expr_jniIsFalse@Base 2.4.1
 Java_cvc3_Expr_jniIsForall@Base 2.4.1
 Java_cvc3_Expr_jniIsGe@Base 2.4.1
 Java_cvc3_Expr_jniIsGt@Base 2.4.1
 Java_cvc3_Expr_jniIsITE@Base 2.4.1
 Java_cvc3_Expr_jniIsIff@Base 2.4.1
 Java_cvc3_Expr_jniIsImpl@Base 2.4.1
 Java_cvc3_Expr_jniIsLambda@Base 2.4.1
 Java_cvc3_Expr_jniIsLe@Base 2.4.1
 Java_cvc3_Expr_jniIsLiteral@Base 2.4.1
 Java_cvc3_Expr_jniIsLt@Base 2.4.1
 Java_cvc3_Expr_jniIsMinus@Base 2.4.1
 Java_cvc3_Expr_jniIsMult@Base 2.4.1
 Java_cvc3_Expr_jniIsNot@Base 2.4.1
 Java_cvc3_Expr_jniIsNull@Base 2.4.1
 Java_cvc3_Expr_jniIsOr@Base 2.4.1
 Java_cvc3_Expr_jniIsPlus@Base 2.4.1
 Java_cvc3_Expr_jniIsPow@Base 2.4.1
 Java_cvc3_Expr_jniIsPropAtom@Base 2.4.1
 Java_cvc3_Expr_jniIsPropLiteral@Base 2.4.1
 Java_cvc3_Expr_jniIsQuantifier@Base 2.4.1
 Java_cvc3_Expr_jniIsRational@Base 2.4.1
 Java_cvc3_Expr_jniIsRead@Base 2.4.1
 Java_cvc3_Expr_jniIsSkolem@Base 2.4.1
 Java_cvc3_Expr_jniIsString@Base 2.4.1
 Java_cvc3_Expr_jniIsSymbol@Base 2.4.1
 Java_cvc3_Expr_jniIsTerm@Base 2.4.1
 Java_cvc3_Expr_jniIsTheorem@Base 2.4.1
 Java_cvc3_Expr_jniIsTrue@Base 2.4.1
 Java_cvc3_Expr_jniIsType@Base 2.4.1
 Java_cvc3_Expr_jniIsUminus@Base 2.4.1
 Java_cvc3_Expr_jniIsVar@Base 2.4.1
 Java_cvc3_Expr_jniIsWrite@Base 2.4.1
 Java_cvc3_Expr_jniIsXor@Base 2.4.1
 Java_cvc3_Expr_jniMkOp@Base 2.4.1
 Java_cvc3_Expr_jniPrint@Base 2.4.1
 Java_cvc3_Expr_jniSubstExpr@Base 2.4.1
 Java_cvc3_Expr_jniToString@Base 2.4.1
 Java_cvc3_Flag_jniGetBool@Base 2.4.1
 Java_cvc3_Flag_jniGetHelp@Base 2.4.1
 Java_cvc3_Flag_jniGetInt@Base 2.4.1
 Java_cvc3_Flag_jniGetString@Base 2.4.1
 Java_cvc3_Flag_jniIsBool@Base 2.4.1
 Java_cvc3_Flag_jniIsInt@Base 2.4.1
 Java_cvc3_Flag_jniIsNull@Base 2.4.1
 Java_cvc3_Flag_jniIsString@Base 2.4.1
 Java_cvc3_Flag_jniIsStringVec@Base 2.4.1
 Java_cvc3_FlagsMut_jniSetFlag1@Base 2.4.1
 Java_cvc3_FlagsMut_jniSetFlag2@Base 2.4.1
 Java_cvc3_FlagsMut_jniSetFlag3@Base 2.4.1
 Java_cvc3_FlagsMut_jniSetFlag4@Base 2.4.1
 Java_cvc3_Flags_jniGetFlag@Base 2.4.1
 Java_cvc3_Flags_jniGetFlags@Base 2.4.1
 Java_cvc3_Op_jniEquals@Base 2.4.1
 Java_cvc3_Op_jniGetExpr@Base 2.4.1
 Java_cvc3_Op_jniIsNull@Base 2.4.1
 Java_cvc3_Op_jniToString@Base 2.4.1
 Java_cvc3_Rational_jniAbs@Base 2.4.1
 Java_cvc3_Rational_jniCeil@Base 2.4.1
 Java_cvc3_Rational_jniDivide@Base 2.4.1
 Java_cvc3_Rational_jniEquals@Base 2.4.1
 Java_cvc3_Rational_jniFloor@Base 2.4.1
 Java_cvc3_Rational_jniGcd@Base 2.4.1
 Java_cvc3_Rational_jniGetDenominator@Base 2.4.1
 Java_cvc3_Rational_jniGetInteger@Base 2.4.1
 Java_cvc3_Rational_jniGetNumerator@Base 2.4.1
 Java_cvc3_Rational_jniHash@Base 2.4.1
 Java_cvc3_Rational_jniIsGe@Base 2.4.1
 Java_cvc3_Rational_jniIsGt@Base 2.4.1
 Java_cvc3_Rational_jniIsInteger@Base 2.4.1
 Java_cvc3_Rational_jniIsLe@Base 2.4.1
 Java_cvc3_Rational_jniIsLt@Base 2.4.1
 Java_cvc3_Rational_jniLcm@Base 2.4.1
 Java_cvc3_Rational_jniMinus@Base 2.4.1
 Java_cvc3_Rational_jniMod@Base 2.4.1
 Java_cvc3_Rational_jniMult@Base 2.4.1
 Java_cvc3_Rational_jniPlus@Base 2.4.1
 Java_cvc3_Rational_jniRational1@Base 2.4.1
 Java_cvc3_Rational_jniRational2@Base 2.4.1
 Java_cvc3_Rational_jniRational3@Base 2.4.1
 Java_cvc3_Rational_jniToString@Base 2.4.1
 Java_cvc3_Type_jniArity@Base 2.4.1
 Java_cvc3_Type_jniConstr@Base 2.4.1
 Java_cvc3_Type_jniEquals@Base 2.4.1
 Java_cvc3_Type_jniGetChild@Base 2.4.1
 Java_cvc3_Type_jniGetExpr@Base 2.4.1
 Java_cvc3_Type_jniIsAny@Base 2.4.1
 Java_cvc3_Type_jniIsArray@Base 2.4.1
 Java_cvc3_Type_jniIsBitvector@Base 2.4.1
 Java_cvc3_Type_jniIsBool@Base 2.4.1
 Java_cvc3_Type_jniIsDatatype@Base 2.4.1
 Java_cvc3_Type_jniIsFunction@Base 2.4.1
 Java_cvc3_Type_jniIsNull@Base 2.4.1
 Java_cvc3_Type_jniIsSubtype@Base 2.4.1
 Java_cvc3_Type_jniToString@Base 2.4.1
 Java_cvc3_ValidityChecker_jniAndExpr1@Base 2.4.1
 Java_cvc3_ValidityChecker_jniAndExpr2@Base 2.4.1
 Java_cvc3_ValidityChecker_jniAnyType@Base 2.4.1
 Java_cvc3_ValidityChecker_jniArrayLiteral@Base 2.4.1
 Java_cvc3_ValidityChecker_jniArrayType@Base 2.4.1
 Java_cvc3_ValidityChecker_jniAssertFormula@Base 2.4.1
 Java_cvc3_ValidityChecker_jniBitvecType@Base 2.4.1
 Java_cvc3_ValidityChecker_jniBoolType@Base 2.4.1
 Java_cvc3_ValidityChecker_jniBoundVarExpr@Base 2.4.1
 Java_cvc3_ValidityChecker_jniCheckContinue@Base 2.4.1
 Java_cvc3_ValidityChecker_jniCheckUnsat@Base 2.4.1
 Java_cvc3_ValidityChecker_jniCmdsFromString@Base 2.4.1
 Java_cvc3_ValidityChecker_jniComputeBVConst@Base 2.4.1
 Java_cvc3_ValidityChecker_jniCreate1@Base 2.4.1
 Java_cvc3_ValidityChecker_jniCreate2@Base 2.4.1
 Java_cvc3_ValidityChecker_jniCreateFlags@Base 2.4.1
 Java_cvc3_ValidityChecker_jniCreateOp1@Base 2.4.1
 Java_cvc3_ValidityChecker_jniCreateOp2@Base 2.4.1
 Java_cvc3_ValidityChecker_jniCreateType1@Base 2.4.1
 Java_cvc3_ValidityChecker_jniCreateType2@Base 2.4.1
 Java_cvc3_ValidityChecker_jniDataType1@Base 2.4.1
 Java_cvc3_ValidityChecker_jniDataType2@Base 2.4.1
 Java_cvc3_ValidityChecker_jniDataType3@Base 2.4.1
 Java_cvc3_ValidityChecker_jniDatatypeConsExpr@Base 2.4.1
 Java_cvc3_ValidityChecker_jniDatatypeSelExpr@Base 2.4.1
 Java_cvc3_ValidityChecker_jniDatatypeTestExpr@Base 2.4.1
 Java_cvc3_ValidityChecker_jniDistinctExpr@Base 2.4.1
 Java_cvc3_ValidityChecker_jniDivideExpr@Base 2.4.1
 Java_cvc3_ValidityChecker_jniDivideOp@Base 2.4.1
 Java_cvc3_ValidityChecker_jniEqExpr@Base 2.4.1
 Java_cvc3_ValidityChecker_jniEqOp@Base 2.4.1
 Java_cvc3_ValidityChecker_jniExistsExpr@Base 2.4.1
 Java_cvc3_ValidityChecker_jniExprFromString@Base 2.4.1
 Java_cvc3_ValidityChecker_jniFalseExpr@Base 2.4.1
 Java_cvc3_ValidityChecker_jniForallExpr1@Base 2.4.1
 Java_cvc3_ValidityChecker_jniForallExpr2@Base 2.4.1
 Java_cvc3_ValidityChecker_jniForallExpr3@Base 2.4.1
 Java_cvc3_ValidityChecker_jniForallExpr4@Base 2.4.1
 Java_cvc3_ValidityChecker_jniFunExpr1@Base 2.4.1
 Java_cvc3_ValidityChecker_jniFunExpr2@Base 2.4.1
 Java_cvc3_ValidityChecker_jniFunExpr3@Base 2.4.1
 Java_cvc3_ValidityChecker_jniFunExpr4@Base 2.4.1
 Java_cvc3_ValidityChecker_jniFunType1@Base 2.4.1
 Java_cvc3_ValidityChecker_jniFunType2@Base 2.4.1
 Java_cvc3_ValidityChecker_jniGeExpr@Base 2.4.1
 Java_cvc3_ValidityChecker_jniGeOp@Base 2.4.1
 Java_cvc3_ValidityChecker_jniGetAssumptions@Base 2.4.1
 Java_cvc3_ValidityChecker_jniGetAssumptionsTCC@Base 2.4.1
 Java_cvc3_ValidityChecker_jniGetAssumptionsUsed@Base 2.4.1
 Java_cvc3_ValidityChecker_jniGetBaseType1@Base 2.4.1
 Java_cvc3_ValidityChecker_jniGetBaseType2@Base 2.4.1
 Java_cvc3_ValidityChecker_jniGetClosure@Base 2.4.1
 Java_cvc3_ValidityChecker_jniGetConcreteModel@Base 2.4.1
 Java_cvc3_ValidityChecker_jniGetCounterExample@Base 2.4.1
 Java_cvc3_ValidityChecker_jniGetCurrentContext@Base 2.4.1
 Java_cvc3_ValidityChecker_jniGetExprManager@Base 2.4.1
 Java_cvc3_ValidityChecker_jniGetFlags@Base 2.4.1
 Java_cvc3_ValidityChecker_jniGetImpliedLiteral@Base 2.4.1
 Java_cvc3_ValidityChecker_jniGetInternalAssumptions@Base 2.4.1
 Java_cvc3_ValidityChecker_jniGetProof@Base 2.4.1
 Java_cvc3_ValidityChecker_jniGetProofClosure@Base 2.4.1
 Java_cvc3_ValidityChecker_jniGetProofTCC@Base 2.4.1
 Java_cvc3_ValidityChecker_jniGetStatistics@Base 2.4.1
 Java_cvc3_ValidityChecker_jniGetTCC@Base 2.4.1
 Java_cvc3_ValidityChecker_jniGetType@Base 2.4.1
 Java_cvc3_ValidityChecker_jniGetTypePred@Base 2.4.1
 Java_cvc3_ValidityChecker_jniGetUserAssumptions@Base 2.4.1
 Java_cvc3_ValidityChecker_jniGetValue@Base 2.4.1
 Java_cvc3_ValidityChecker_jniGtExpr@Base 2.4.1
 Java_cvc3_ValidityChecker_jniGtOp@Base 2.4.1
 Java_cvc3_ValidityChecker_jniIdExpr@Base 2.4.1
 Java_cvc3_ValidityChecker_jniIffExpr@Base 2.4.1
 Java_cvc3_ValidityChecker_jniImpliesExpr@Base 2.4.1
 Java_cvc3_ValidityChecker_jniImportExpr@Base 2.4.1
 Java_cvc3_ValidityChecker_jniImportType@Base 2.4.1
 Java_cvc3_ValidityChecker_jniIncomplete1@Base 2.4.1
 Java_cvc3_ValidityChecker_jniIncomplete2@Base 2.4.1
 Java_cvc3_ValidityChecker_jniInconsistent1@Base 2.4.1
 Java_cvc3_ValidityChecker_jniInconsistent2@Base 2.4.1
 Java_cvc3_ValidityChecker_jniIntType@Base 2.4.1
 Java_cvc3_ValidityChecker_jniIteExpr@Base 2.4.1
 Java_cvc3_ValidityChecker_jniLambdaExpr@Base 2.4.1
 Java_cvc3_ValidityChecker_jniLeExpr@Base 2.4.1
 Java_cvc3_ValidityChecker_jniLeOp@Base 2.4.1
 Java_cvc3_ValidityChecker_jniListExpr1@Base 2.4.1
 Java_cvc3_ValidityChecker_jniListExpr2@Base 2.4.1
 Java_cvc3_ValidityChecker_jniListExpr3@Base 2.4.1
 Java_cvc3_ValidityChecker_jniListExpr4@Base 2.4.1
 Java_cvc3_ValidityChecker_jniListExpr5@Base 2.4.1
 Java_cvc3_ValidityChecker_jniListExpr6@Base 2.4.1
 Java_cvc3_ValidityChecker_jniListExpr7@Base 2.4.1
 Java_cvc3_ValidityChecker_jniListExpr8@Base 2.4.1
 Java_cvc3_ValidityChecker_jniLoadFile1@Base 2.4.1
 Java_cvc3_ValidityChecker_jniLookupOp@Base 2.4.1
 Java_cvc3_ValidityChecker_jniLookupType@Base 2.4.1
 Java_cvc3_ValidityChecker_jniLookupVar@Base 2.4.1
 Java_cvc3_ValidityChecker_jniLtExpr@Base 2.4.1
 Java_cvc3_ValidityChecker_jniLtOp@Base 2.4.1
 Java_cvc3_ValidityChecker_jniMinusExpr@Base 2.4.1
 Java_cvc3_ValidityChecker_jniMinusOp@Base 2.4.1
 Java_cvc3_ValidityChecker_jniMultExpr@Base 2.4.1
 Java_cvc3_ValidityChecker_jniMultOp@Base 2.4.1
 Java_cvc3_ValidityChecker_jniNewBVASHR@Base 2.4.1
 Java_cvc3_ValidityChecker_jniNewBVAndExpr1@Base 2.4.1
 Java_cvc3_ValidityChecker_jniNewBVAndExpr2@Base 2.4.1
 Java_cvc3_ValidityChecker_jniNewBVConstExpr1@Base 2.4.1
 Java_cvc3_ValidityChecker_jniNewBVConstExpr2@Base 2.4.1
 Java_cvc3_ValidityChecker_jniNewBVConstExpr3@Base 2.4.1
 Java_cvc3_ValidityChecker_jniNewBVExtractExpr@Base 2.4.1
 Java_cvc3_ValidityChecker_jniNewBVLEExpr@Base 2.4.1
 Java_cvc3_ValidityChecker_jniNewBVLSHR@Base 2.4.1
 Java_cvc3_ValidityChecker_jniNewBVLTExpr@Base 2.4.1
 Java_cvc3_ValidityChecker_jniNewBVMultExpr@Base 2.4.1
 Java_cvc3_ValidityChecker_jniNewBVNandExpr@Base 2.4.1
 Java_cvc3_ValidityChecker_jniNewBVNegExpr@Base 2.4.1
 Java_cvc3_ValidityChecker_jniNewBVNorExpr@Base 2.4.1
 Java_cvc3_ValidityChecker_jniNewBVOrExpr1@Base 2.4.1
 Java_cvc3_ValidityChecker_jniNewBVOrExpr2@Base 2.4.1
 Java_cvc3_ValidityChecker_jniNewBVPlusExpr@Base 2.4.1
 Java_cvc3_ValidityChecker_jniNewBVSDivExpr@Base 2.4.1
 Java_cvc3_ValidityChecker_jniNewBVSHL@Base 2.4.1
 Java_cvc3_ValidityChecker_jniNewBVSLEExpr@Base 2.4.1
 Java_cvc3_ValidityChecker_jniNewBVSLTExpr@Base 2.4.1
 Java_cvc3_ValidityChecker_jniNewBVSModExpr@Base 2.4.1
 Java_cvc3_ValidityChecker_jniNewBVSRemExpr@Base 2.4.1
 Java_cvc3_ValidityChecker_jniNewBVSubExpr@Base 2.4.1
 Java_cvc3_ValidityChecker_jniNewBVUDivExpr@Base 2.4.1
 Java_cvc3_ValidityChecker_jniNewBVURemExpr@Base 2.4.1
 Java_cvc3_ValidityChecker_jniNewBVUminusExpr@Base 2.4.1
 Java_cvc3_ValidityChecker_jniNewBVXnorExpr1@Base 2.4.1
 Java_cvc3_ValidityChecker_jniNewBVXnorExpr2@Base 2.4.1
 Java_cvc3_ValidityChecker_jniNewBVXorExpr1@Base 2.4.1
 Java_cvc3_ValidityChecker_jniNewBVXorExpr2@Base 2.4.1
 Java_cvc3_ValidityChecker_jniNewConcatExpr1@Base 2.4.1
 Java_cvc3_ValidityChecker_jniNewConcatExpr2@Base 2.4.1
 Java_cvc3_ValidityChecker_jniNewFixedConstWidthLeftShiftExpr@Base 2.4.1
 Java_cvc3_ValidityChecker_jniNewFixedLeftShiftExpr@Base 2.4.1
 Java_cvc3_ValidityChecker_jniNewFixedRightShiftExpr@Base 2.4.1
 Java_cvc3_ValidityChecker_jniNewSXExpr@Base 2.4.1
 Java_cvc3_ValidityChecker_jniNotExpr@Base 2.4.1
 Java_cvc3_ValidityChecker_jniNullExpr@Base 2.4.1
 Java_cvc3_ValidityChecker_jniOrExpr1@Base 2.4.1
 Java_cvc3_ValidityChecker_jniOrExpr2@Base 2.4.1
 Java_cvc3_ValidityChecker_jniParseExpr@Base 2.4.1
 Java_cvc3_ValidityChecker_jniParseType@Base 2.4.1
 Java_cvc3_ValidityChecker_jniPlusExpr1@Base 2.4.1
 Java_cvc3_ValidityChecker_jniPlusExpr2@Base 2.4.1
 Java_cvc3_ValidityChecker_jniPlusOp@Base 2.4.1
 Java_cvc3_ValidityChecker_jniPop@Base 2.4.1
 Java_cvc3_ValidityChecker_jniPopScope@Base 2.4.1
 Java_cvc3_ValidityChecker_jniPopTo@Base 2.4.1
 Java_cvc3_ValidityChecker_jniPopToScope@Base 2.4.1
 Java_cvc3_ValidityChecker_jniPowExpr@Base 2.4.1
 Java_cvc3_ValidityChecker_jniPrintExpr@Base 2.4.1
 Java_cvc3_ValidityChecker_jniPrintStatistics@Base 2.4.1
 Java_cvc3_ValidityChecker_jniPush@Base 2.4.1
 Java_cvc3_ValidityChecker_jniPushScope@Base 2.4.1
 Java_cvc3_ValidityChecker_jniQuery@Base 2.4.1
 Java_cvc3_ValidityChecker_jniRatExpr1@Base 2.4.1
 Java_cvc3_ValidityChecker_jniRatExpr2@Base 2.4.1
 Java_cvc3_ValidityChecker_jniRatExpr3@Base 2.4.1
 Java_cvc3_ValidityChecker_jniReadExpr@Base 2.4.1
 Java_cvc3_ValidityChecker_jniRealType@Base 2.4.1
 Java_cvc3_ValidityChecker_jniRecSelectExpr@Base 2.4.1
 Java_cvc3_ValidityChecker_jniRecUpdateExpr@Base 2.4.1
 Java_cvc3_ValidityChecker_jniRecordExpr1@Base 2.4.1
 Java_cvc3_ValidityChecker_jniRecordExpr2@Base 2.4.1
 Java_cvc3_ValidityChecker_jniRecordExpr3@Base 2.4.1
 Java_cvc3_ValidityChecker_jniRecordExpr4@Base 2.4.1
 Java_cvc3_ValidityChecker_jniRecordType1@Base 2.4.1
 Java_cvc3_ValidityChecker_jniRecordType2@Base 2.4.1
 Java_cvc3_ValidityChecker_jniRecordType3@Base 2.4.1
 Java_cvc3_ValidityChecker_jniRecordType4@Base 2.4.1
 Java_cvc3_ValidityChecker_jniRegisterAtom@Base 2.4.1
 Java_cvc3_ValidityChecker_jniRestart@Base 2.4.1
 Java_cvc3_ValidityChecker_jniReturnFromCheck@Base 2.4.1
 Java_cvc3_ValidityChecker_jniScopeLevel@Base 2.4.1
 Java_cvc3_ValidityChecker_jniSetMultiTrigger@Base 2.4.1
 Java_cvc3_ValidityChecker_jniSetResourceLimit@Base 2.4.1
 Java_cvc3_ValidityChecker_jniSetTimeLimit@Base 2.4.1
 Java_cvc3_ValidityChecker_jniSetTrigger@Base 2.4.1
 Java_cvc3_ValidityChecker_jniSetTriggers2@Base 2.4.1
 Java_cvc3_ValidityChecker_jniSetTriggers@Base 2.4.1
 Java_cvc3_ValidityChecker_jniSimplify@Base 2.4.1
 Java_cvc3_ValidityChecker_jniSimulateExpr@Base 2.4.1
 Java_cvc3_ValidityChecker_jniStackLevel@Base 2.4.1
 Java_cvc3_ValidityChecker_jniStringExpr@Base 2.4.1
 Java_cvc3_ValidityChecker_jniSubrangeType@Base 2.4.1
 Java_cvc3_ValidityChecker_jniSubtypeType@Base 2.4.1
 Java_cvc3_ValidityChecker_jniTransClosure@Base 2.4.1
 Java_cvc3_ValidityChecker_jniTrueExpr@Base 2.4.1
 Java_cvc3_ValidityChecker_jniTupleExpr@Base 2.4.1
 Java_cvc3_ValidityChecker_jniTupleSelectExpr@Base 2.4.1
 Java_cvc3_ValidityChecker_jniTupleType1@Base 2.4.1
 Java_cvc3_ValidityChecker_jniTupleType2@Base 2.4.1
 Java_cvc3_ValidityChecker_jniTupleType3@Base 2.4.1
 Java_cvc3_ValidityChecker_jniTupleUpdateExpr@Base 2.4.1
 Java_cvc3_ValidityChecker_jniUminusExpr@Base 2.4.1
 Java_cvc3_ValidityChecker_jniVarExpr1@Base 2.4.1
 Java_cvc3_ValidityChecker_jniVarExpr2@Base 2.4.1
 Java_cvc3_ValidityChecker_jniWriteExpr@Base 2.4.1
 _ZGVZNK4CVC39ExprValue10getTheoremEvE4null@Base 2.4.1
 _ZN18Java_cvc3_JniUtils10embed_copyIN4CVC32OpEEEP8_jobjectP7JNIEnv_RKT_@Base 2.4.1
 _ZN18Java_cvc3_JniUtils10embed_copyIN4CVC34ExprEEEP8_jobjectP7JNIEnv_RKT_@Base 2.4.1
 _ZN18Java_cvc3_JniUtils10embed_copyIN4CVC34TypeEEEP8_jobjectP7JNIEnv_RKT_@Base 2.4.1
 _ZN18Java_cvc3_JniUtils10embed_copyIN4CVC35ProofEEEP8_jobjectP7JNIEnv_RKT_@Base 2.4.1
 _ZN18Java_cvc3_JniUtils10embed_copyIN4CVC37CLFlagsEEEP8_jobjectP7JNIEnv_RKT_@Base 2.4.1
 _ZN18Java_cvc3_JniUtils10embed_copyIN4CVC38RationalEEEP8_jobjectP7JNIEnv_RKT_@Base 2.4.1
 _ZN18Java_cvc3_JniUtils11toJavaHCopyIN4CVC34ExprEEEP13_jobjectArrayP7JNIEnv_RKNS1_7ExprMapIT_EE@Base 2.4.1
 _ZN18Java_cvc3_JniUtils11toJavaVCopyIN4CVC34ExprEEEP13_jobjectArrayP7JNIEnv_RKSt6vectorIT_SaIS8_EE@Base 2.4.1
 _ZN18Java_cvc3_JniUtils11toJavaVCopyISsEEP13_jobjectArrayP7JNIEnv_RKSt6vectorIT_SaIS6_EE@Base 2.4.1
 _ZN18Java_cvc3_JniUtils14DeleteEmbeddedIN4CVC315ValidityCheckerEE14deleteEmbeddedEPv@Base 2.4.1
 _ZN18Java_cvc3_JniUtils14DeleteEmbeddedIN4CVC32OpEE14deleteEmbeddedEPv@Base 2.4.1
 _ZN18Java_cvc3_JniUtils14DeleteEmbeddedIN4CVC34ExprEE14deleteEmbeddedEPv@Base 2.4.1
 _ZN18Java_cvc3_JniUtils14DeleteEmbeddedIN4CVC34TypeEE14deleteEmbeddedEPv@Base 2.4.1
 _ZN18Java_cvc3_JniUtils14DeleteEmbeddedIN4CVC35ProofEE14deleteEmbeddedEPv@Base 2.4.1
 _ZN18Java_cvc3_JniUtils14DeleteEmbeddedIN4CVC37CLFlagsEE14deleteEmbeddedEPv@Base 2.4.1
 _ZN18Java_cvc3_JniUtils14DeleteEmbeddedIN4CVC38RationalEE14deleteEmbeddedEPv@Base 2.4.1
 _ZN18Java_cvc3_JniUtils14DeleteEmbeddedISsE14deleteEmbeddedEPv@Base 2.4.1
 _ZN18Java_cvc3_JniUtils14deleteEmbeddedEP7JNIEnv_P8_jobject@Base 2.4.1
 _ZN18Java_cvc3_JniUtils15toJavaVConstRefIN4CVC34ExprEEEP13_jobjectArrayP7JNIEnv_RKSt6vectorIT_SaIS8_EE@Base 2.4.1
 _ZN18Java_cvc3_JniUtils18toCppInputLanguageEP7JNIEnv_RKSs@Base 2.4.1
 _ZN18Java_cvc3_JniUtils5embedIN4CVC315ValidityCheckerEEEP8_jobjectP7JNIEnv_PT_RKSt9type_infoPFvPvE@Base 2.4.1
 _ZN18Java_cvc3_JniUtils5embedIN4CVC34ExprEEEP8_jobjectP7JNIEnv_PT_RKSt9type_infoPFvPvE@Base 2.4.1
 _ZN18Java_cvc3_JniUtils5embedIN4CVC37CLFlagsEEEP8_jobjectP7JNIEnv_PT_RKSt9type_infoPFvPvE@Base 2.4.1
 _ZN18Java_cvc3_JniUtils5toCppEP7JNIEnv_RKP8_jstring@Base 2.4.1
 _ZN18Java_cvc3_JniUtils5toCppEh@Base 2.4.1
 _ZN18Java_cvc3_JniUtils6toCppVEP7JNIEnv_RKP13_jobjectArray@Base 2.4.1
 _ZN18Java_cvc3_JniUtils6toCppVEP7JNIEnv_RKP14_jbooleanArray@Base 2.4.1
 _ZN18Java_cvc3_JniUtils6toCppVIN4CVC34ExprEEESt6vectorIT_SaIS4_EEP7JNIEnv_RKP13_jobjectArray@Base 2.4.1
 _ZN18Java_cvc3_JniUtils6toCppVIN4CVC34TypeEEESt6vectorIT_SaIS4_EEP7JNIEnv_RKP13_jobjectArray@Base 2.4.1
 _ZN18Java_cvc3_JniUtils6toJavaEP7JNIEnv_N4CVC311QueryResultE@Base 2.4.1
 _ZN18Java_cvc3_JniUtils6toJavaEP7JNIEnv_N4CVC312FormulaValueE@Base 2.4.1
 _ZN18Java_cvc3_JniUtils6toJavaEP7JNIEnv_N4CVC313InputLanguageE@Base 2.4.1
 _ZN18Java_cvc3_JniUtils6toJavaEP7JNIEnv_PKc@Base 2.4.1
 _ZN18Java_cvc3_JniUtils6toJavaEP7JNIEnv_RKN4CVC39ExceptionE@Base 2.4.1
 _ZN18Java_cvc3_JniUtils6toJavaEP7JNIEnv_RKSs@Base 2.4.1
 _ZN18Java_cvc3_JniUtils7toCppVVEP7JNIEnv_RKP13_jobjectArray@Base 2.4.1
 _ZN18Java_cvc3_JniUtils7toCppVVIN4CVC34ExprEEESt6vectorIS3_IT_SaIS4_EESaIS6_EEP7JNIEnv_RKP13_jobjectArray@Base 2.4.1
 _ZN18Java_cvc3_JniUtils7toJavaVEP7JNIEnv_RKSt6vectorISsSaISsEE@Base 2.4.1
 _ZN18Java_cvc3_JniUtils7unembedEP7JNIEnv_P8_jobject@Base 2.4.1
 _ZN18Java_cvc3_JniUtils8toCppVVVEP7JNIEnv_RKP13_jobjectArray@Base 2.4.1
 _ZN18Java_cvc3_JniUtils8toCppVVVIN4CVC34ExprEEESt6vectorIS3_IS3_IT_SaIS4_EESaIS6_EESaIS8_EEP7JNIEnv_RKP13_jobjectArray@Base 2.4.1
 _ZN4CVC311ExprManager11newLeafExprERKNS_2OpE@Base 2.4.1
 _ZN4CVC320ContextMemoryManager7newDataEm@Base 2.4.1
 _ZN4CVC34ExprD1Ev@Base 2.4.1
 _ZN4CVC34ExprD2Ev@Base 2.4.1
 _ZN4CVC37CDFlags11restoreDataEPNS_10ContextObjE@Base 2.4.1
 _ZN4CVC37CDFlags7setNullEv@Base 2.4.1
 _ZN4CVC37CDFlags8makeCopyEPNS_20ContextMemoryManagerE@Base 2.4.1
 _ZN4CVC37CDFlagsD0Ev@Base 2.4.1
 _ZN4CVC37CDFlagsD1Ev@Base 2.4.1
 _ZN4CVC37CDFlagsD2Ev@Base 2.4.1
 _ZNK4CVC39ExprValue10getTheoremEv@Base 2.4.1
 _ZNK4CVC39ExprValue9isTheoremEv@Base 2.4.1
 _ZNSt12_Destroy_auxILb0EE9__destroyIPSsEEvT_S3_@Base 2.4.1
 _ZNSt12_Destroy_auxILb0EE9__destroyIPSt4pairISsbEEEvT_S5_@Base 2.4.1
 _ZNSt20__uninitialized_copyILb0EE13__uninit_copyIPSt6vectorIN4CVC34ExprESaIS4_EES7_EET0_T_S9_S8_@Base 2.4.1
 _ZNSt6vectorIN4CVC34ExprESaIS1_EE13_M_insert_auxEN9__gnu_cxx17__normal_iteratorIPS1_S3_EERKS1_@Base 2.4.1
 _ZNSt6vectorIN4CVC34ExprESaIS1_EED1Ev@Base 2.4.1
 _ZNSt6vectorIN4CVC34ExprESaIS1_EED2Ev@Base 2.4.1
 _ZNSt6vectorIN4CVC34ExprESaIS1_EEaSERKS3_@Base 2.4.1
 _ZNSt6vectorIN4CVC34TypeESaIS1_EE13_M_insert_auxEN9__gnu_cxx17__normal_iteratorIPS1_S3_EERKS1_@Base 2.4.1
 _ZNSt6vectorIN4CVC34TypeESaIS1_EED1Ev@Base 2.4.1
 _ZNSt6vectorIN4CVC34TypeESaIS1_EED2Ev@Base 2.4.1
 _ZNSt6vectorIPcSaIS0_EE13_M_insert_auxEN9__gnu_cxx17__normal_iteratorIPS0_S2_EERKS0_@Base 2.4.1
 _ZNSt6vectorIS_IN4CVC34ExprESaIS1_EESaIS3_EE13_M_insert_auxEN9__gnu_cxx17__normal_iteratorIPS3_S5_EERKS3_@Base 2.4.1
 _ZNSt6vectorIS_IN4CVC34ExprESaIS1_EESaIS3_EEC1ERKS5_@Base 2.4.1
 _ZNSt6vectorIS_IN4CVC34ExprESaIS1_EESaIS3_EEC2ERKS5_@Base 2.4.1
 _ZNSt6vectorIS_IN4CVC34ExprESaIS1_EESaIS3_EED1Ev@Base 2.4.1
 _ZNSt6vectorIS_IN4CVC34ExprESaIS1_EESaIS3_EED2Ev@Base 2.4.1
 _ZNSt6vectorIS_IN4CVC34ExprESaIS1_EESaIS3_EEaSERKS5_@Base 2.4.1
 _ZNSt6vectorIS_IS_IN4CVC34ExprESaIS1_EESaIS3_EESaIS5_EE13_M_insert_auxEN9__gnu_cxx17__normal_iteratorIPS5_S7_EERKS5_@Base 2.4.1
 _ZNSt6vectorIS_IS_IN4CVC34ExprESaIS1_EESaIS3_EESaIS5_EED1Ev@Base 2.4.1
 _ZNSt6vectorIS_IS_IN4CVC34ExprESaIS1_EESaIS3_EESaIS5_EED2Ev@Base 2.4.1
 _ZNSt6vectorIS_IS_ISsSaISsEESaIS1_EESaIS3_EE13_M_insert_auxEN9__gnu_cxx17__normal_iteratorIPS3_S5_EERKS3_@Base 2.4.1
 _ZNSt6vectorIS_IS_ISsSaISsEESaIS1_EESaIS3_EED1Ev@Base 2.4.1
 _ZNSt6vectorIS_IS_ISsSaISsEESaIS1_EESaIS3_EED2Ev@Base 2.4.1
 _ZNSt6vectorIS_ISsSaISsEESaIS1_EE13_M_insert_auxEN9__gnu_cxx17__normal_iteratorIPS1_S3_EERKS1_@Base 2.4.1
 _ZNSt6vectorIS_ISsSaISsEESaIS1_EED1Ev@Base 2.4.1
 _ZNSt6vectorIS_ISsSaISsEESaIS1_EED2Ev@Base 2.4.1
 _ZNSt6vectorIS_ISsSaISsEESaIS1_EEaSERKS3_@Base 2.4.1
 _ZNSt6vectorISsSaISsEE13_M_insert_auxEN9__gnu_cxx17__normal_iteratorIPSsS1_EERKSs@Base 2.4.1
 _ZNSt6vectorISsSaISsEED1Ev@Base 2.4.1
 _ZNSt6vectorISsSaISsEED2Ev@Base 2.4.1
 _ZNSt6vectorISsSaISsEEaSERKS1_@Base 2.4.1
 _ZNSt6vectorISt4pairISsbESaIS1_EE13_M_insert_auxEN9__gnu_cxx17__normal_iteratorIPS1_S3_EERKS1_@Base 2.4.1
 _ZNSt6vectorIbSaIbEE13_M_insert_auxESt13_Bit_iteratorb@Base 2.4.1
 _ZNSt8_Rb_treeIN4CVC34ExprESt4pairIKS1_S1_ESt10_Select1stIS4_ESt4lessIS1_ESaIS4_EE8_M_eraseEPSt13_Rb_tree_nodeIS4_E@Base 2.4.1
 _ZNSt8_Rb_treeISsSt4pairIKSsN4CVC36CLFlagEESt10_Select1stIS4_ESt4lessISsESaIS4_EE4findERS1_@Base 2.4.1
 _ZNSt8_Rb_treeISsSt4pairIKSsN4CVC36CLFlagEESt10_Select1stIS4_ESt4lessISsESaIS4_EE7_M_copyEPKSt13_Rb_tree_nodeIS4_EPSC_@Base 2.4.1
 _ZNSt8_Rb_treeISsSt4pairIKSsN4CVC36CLFlagEESt10_Select1stIS4_ESt4lessISsESaIS4_EE8_M_eraseEPSt13_Rb_tree_nodeIS4_E@Base 2.4.1
 _ZTIN4CVC310StatisticsE@Base 2.4.1
 _ZTIN4CVC311CLExceptionE@Base 2.4.1
 _ZTIN4CVC311ExprManagerE@Base 2.4.1
 _ZTIN4CVC313EvalExceptionE@Base 2.4.1
 _ZTIN4CVC314DebugExceptionE@Base 2.4.1
 _ZTIN4CVC314SoundExceptionE@Base 2.4.1
 _ZTIN4CVC315ParserExceptionE@Base 2.4.1
 _ZTIN4CVC315SmtlibExceptionE@Base 2.4.1
 _ZTIN4CVC315ValidityCheckerE@Base 2.4.1
 _ZTIN4CVC318TypecheckExceptionE@Base 2.4.1
 _ZTIN4CVC32OpE@Base 2.4.1
 _ZTIN4CVC34ExprE@Base 2.4.1
 _ZTIN4CVC34TypeE@Base 2.4.1
 _ZTIN4CVC35ProofE@Base 2.4.1
 _ZTIN4CVC36CLFlagE@Base 2.4.1
 _ZTIN4CVC37CDFlagsE@Base 2.4.1
 _ZTIN4CVC37CLFlagsE@Base 2.4.1
 _ZTIN4CVC37ContextE@Base 2.4.1
 _ZTIN4CVC37TheoremE@Base 2.4.1
 _ZTIN4CVC38RationalE@Base 2.4.1
 _ZTIN4CVC39ExceptionE@Base 2.4.1
 _ZTIPKN4CVC34ExprE@Base 2.4.1
 _ZTIPKN4CVC36CLFlagE@Base 2.4.1
 _ZTIPKN4CVC37TheoremE@Base 2.4.1
 _ZTIPKN4CVC38RationalE@Base 2.4.1
 _ZTIPN4CVC310StatisticsE@Base 2.4.1
 _ZTIPN4CVC311ExprManagerE@Base 2.4.1
 _ZTIPN4CVC315ValidityCheckerE@Base 2.4.1
 _ZTIPN4CVC32OpE@Base 2.4.1
 _ZTIPN4CVC34ExprE@Base 2.4.1
 _ZTIPN4CVC34TypeE@Base 2.4.1
 _ZTIPN4CVC35ProofE@Base 2.4.1
 _ZTIPN4CVC37CLFlagsE@Base 2.4.1
 _ZTIPN4CVC37ContextE@Base 2.4.1
 _ZTIPN4CVC38RationalE@Base 2.4.1
 _ZTIPSs@Base 2.4.1
 _ZTISs@Base 2.4.1
 _ZTSN4CVC310StatisticsE@Base 2.4.1
 _ZTSN4CVC311CLExceptionE@Base 2.4.1
 _ZTSN4CVC311ExprManagerE@Base 2.4.1
 _ZTSN4CVC313EvalExceptionE@Base 2.4.1
 _ZTSN4CVC314DebugExceptionE@Base 2.4.1
 _ZTSN4CVC314SoundExceptionE@Base 2.4.1
 _ZTSN4CVC315ParserExceptionE@Base 2.4.1
 _ZTSN4CVC315SmtlibExceptionE@Base 2.4.1
 _ZTSN4CVC315ValidityCheckerE@Base 2.4.1
 _ZTSN4CVC318TypecheckExceptionE@Base 2.4.1
 _ZTSN4CVC32OpE@Base 2.4.1
 _ZTSN4CVC34ExprE@Base 2.4.1
 _ZTSN4CVC34TypeE@Base 2.4.1
 _ZTSN4CVC35ProofE@Base 2.4.1
 _ZTSN4CVC36CLFlagE@Base 2.4.1
 _ZTSN4CVC37CDFlagsE@Base 2.4.1
 _ZTSN4CVC37CLFlagsE@Base 2.4.1
 _ZTSN4CVC37ContextE@Base 2.4.1
 _ZTSN4CVC37TheoremE@Base 2.4.1
 _ZTSN4CVC38RationalE@Base 2.4.1
 _ZTSN4CVC39ExceptionE@Base 2.4.1
 _ZTSPKN4CVC34ExprE@Base 2.4.1
 _ZTSPKN4CVC36CLFlagE@Base 2.4.1
 _ZTSPKN4CVC37TheoremE@Base 2.4.1
 _ZTSPKN4CVC38RationalE@Base 2.4.1
 _ZTSPN4CVC310StatisticsE@Base 2.4.1
 _ZTSPN4CVC311ExprManagerE@Base 2.4.1
 _ZTSPN4CVC315ValidityCheckerE@Base 2.4.1
 _ZTSPN4CVC32OpE@Base 2.4.1
 _ZTSPN4CVC34ExprE@Base 2.4.1
 _ZTSPN4CVC34TypeE@Base 2.4.1
 _ZTSPN4CVC35ProofE@Base 2.4.1
 _ZTSPN4CVC37CLFlagsE@Base 2.4.1
 _ZTSPN4CVC37ContextE@Base 2.4.1
 _ZTSPN4CVC38RationalE@Base 2.4.1
 _ZTSPSs@Base 2.4.1
 _ZTSSs@Base 2.4.1
 _ZTVN4CVC37CDFlagsE@Base 2.4.1
 _ZZNK4CVC39ExprValue10getTheoremEvE4null@Base 2.4.1
